 TerrainDemo

 Timestamp is 42a8e53a (Fri Jun 10 01:56:26 2005)

 Preferred load address is 00400000

 Start         Length     Name                   Class
 0001:00000000 0001ffc4H .text                   CODE
 0001:0001ffd0 00001c58H .text$x                 CODE
 0001:00021c30 000007feH .text$yc                CODE
 0001:00022430 000003b0H .text$yd                CODE
 0002:00000000 00000334H .idata$5                DATA
 0002:00000340 00004f04H .rdata                  DATA
 0002:00005244 00000035H .rdata$debug            DATA
 0002:0000527c 00001e38H .rdata$r                DATA
 0002:000070b4 00000004H .rtc$IAA                DATA
 0002:000070b8 00000004H .rtc$IZZ                DATA
 0002:000070bc 00000004H .rtc$TAA                DATA
 0002:000070c0 00000004H .rtc$TZZ                DATA
 0002:000070c4 000036f8H .xdata$x                DATA
 0002:0000a7bc 00000000H ATL$__a                 DATA
 0002:0000a7bc 00000000H ATL$__z                 DATA
 0002:0000a7bc 0000008cH .idata$2                DATA
 0002:0000a848 00000014H .idata$3                DATA
 0002:0000a85c 00000334H .idata$4                DATA
 0002:0000ab90 000025ecH .idata$6                DATA
 0002:0000d17c 00000000H .edata                  DATA
 0003:00000000 00000004H .CRT$XCA                DATA
 0003:00000004 00000004H .CRT$XCAA               DATA
 0003:00000008 0000016cH .CRT$XCU                DATA
 0003:00000174 00000004H .CRT$XCZ                DATA
 0003:00000178 00000004H .CRT$XIA                DATA
 0003:0000017c 00000004H .CRT$XIZ                DATA
 0003:00000180 00003ae0H .data                   DATA
 0003:00003c60 000005dcH .bss                    DATA

  Address         Publics by Value              Rva+Base     Lib:Object

 0000:00000000       __except_list              00000000     <absolute>
 0000:00009876       __ldused                   00009876     <absolute>
 0000:00009876       __fltused                  00009876     <absolute>
 0001:00000000       ?GameMain@@YAHAAV?$vector@V?$basic_string@DV?$char_traits@D@_STL@@V?$allocator@D@2@@_STL@@V?$allocator@V?$basic_string@DV?$char_traits@D@_STL@@V?$allocator@D@2@@_STL@@@2@@_STL@@@Z 00401000 f   Main.obj
 0001:00000089       ??1shared_count@detail@boost@@QAE@XZ 00401089 f i Main.obj
 0001:000000a4       ?release@sp_counted_base@detail@boost@@QAEXXZ 004010a4 f i Main.obj
 0001:0000011c       ??0scoped_lock@lightweight_mutex@detail@boost@@QAE@AAV123@@Z 0040111c f i Main.obj
 0001:0000014d       ??1scoped_lock@lightweight_mutex@detail@boost@@QAE@XZ 0040114d f i Main.obj
 0001:00000163       ?weak_release@sp_counted_base@detail@boost@@QAEXXZ 00401163 f i Main.obj
 0001:000001ac       _WinMain@16                004011ac f   Main.obj
 0001:00000217       ??1?$vector@V?$basic_string@DV?$char_traits@D@_STL@@V?$allocator@D@2@@_STL@@V?$allocator@V?$basic_string@DV?$char_traits@D@_STL@@V?$allocator@D@2@@_STL@@@2@@_STL@@QAE@XZ 00401217 f i Main.obj
 0001:00000253       ?push_back@?$vector@V?$basic_string@DV?$char_traits@D@_STL@@V?$allocator@D@2@@_STL@@V?$allocator@V?$basic_string@DV?$char_traits@D@_STL@@V?$allocator@D@2@@_STL@@@2@@_STL@@QAEXABV?$basic_string@DV?$char_traits@D@_STL@@V?$allocator@D@2@@2@@Z 00401253 f i Main.obj
 0001:000002a7       ?_M_insert_overflow@?$vector@V?$basic_string@DV?$char_traits@D@_STL@@V?$allocator@D@2@@_STL@@V?$allocator@V?$basic_string@DV?$char_traits@D@_STL@@V?$allocator@D@2@@_STL@@@2@@_STL@@IAEXPAV?$basic_string@DV?$char_traits@D@_STL@@V?$allocator@D@2@@2@ABV32@ABU__false_type@2@I_N@Z 004012a7 f i Main.obj
 0001:000003e2       ?size@?$vector@V?$basic_string@DV?$char_traits@D@_STL@@V?$allocator@D@2@@_STL@@V?$allocator@V?$basic_string@DV?$char_traits@D@_STL@@V?$allocator@D@2@@_STL@@@2@@_STL@@QBEIXZ 004013e2 f i Main.obj
 0001:000003fc       ??1?$_Vector_base@V?$basic_string@DV?$char_traits@D@_STL@@V?$allocator@D@2@@_STL@@V?$allocator@V?$basic_string@DV?$char_traits@D@_STL@@V?$allocator@D@2@@_STL@@@2@@_STL@@QAE@XZ 004013fc f i Main.obj
 0001:00000453       ?_M_clear@?$vector@V?$basic_string@DV?$char_traits@D@_STL@@V?$allocator@D@2@@_STL@@V?$allocator@V?$basic_string@DV?$char_traits@D@_STL@@V?$allocator@D@2@@_STL@@@2@@_STL@@IAEXXZ 00401453 f i Main.obj
 0001:00000490       ?allocate@?$allocator@V?$basic_string@DV?$char_traits@D@_STL@@V?$allocator@D@2@@_STL@@@_STL@@QAEPAV?$basic_string@DV?$char_traits@D@_STL@@V?$allocator@D@2@@2@IPBX@Z 00401490 f i Main.obj
 0001:000004bc       ?deallocate@?$allocator@V?$basic_string@DV?$char_traits@D@_STL@@V?$allocator@D@2@@_STL@@@_STL@@QAEXPAV?$basic_string@DV?$char_traits@D@_STL@@V?$allocator@D@2@@2@I@Z 004014bc f i Main.obj
 0001:000004df       ?max@_STL@@YAABIABI0@Z     004014df f i Main.obj
 0001:00000509       ??0?$shared_ptr@VGameApplication@OidFX@@@boost@@QAE@PAVTerrainDemoApplication@TerrainDemo@@@Z 00401509 f i Main.obj
 0001:0000055f       ?_Destroy@_STL@@YAXPAV?$basic_string@DV?$char_traits@D@_STL@@V?$allocator@D@2@@1@0@Z 0040155f f i Main.obj
 0001:0000057c       ?_Construct@_STL@@YAXPAV?$basic_string@DV?$char_traits@D@_STL@@V?$allocator@D@2@@1@ABV21@@Z 0040157c f i Main.obj
 0001:000005cd       ??2@YAPAXIPAX@Z            004015cd f i Main.obj
 0001:000005d5       ?__uninitialized_copy@_STL@@YAPAV?$basic_string@DV?$char_traits@D@_STL@@V?$allocator@D@2@@1@PAV21@00ABU__false_type@1@@Z 004015d5 f i Main.obj
 0001:0000064a       ?__uninitialized_fill_n@_STL@@YAPAV?$basic_string@DV?$char_traits@D@_STL@@V?$allocator@D@2@@1@PAV21@IABV21@ABU__false_type@1@@Z 0040164a f i Main.obj
 0001:000006bb       ??0shared_count@detail@boost@@QAE@PAVTerrainDemoApplication@TerrainDemo@@U?$checked_deleter@VTerrainDemoApplication@TerrainDemo@@@2@@Z 004016bb f i Main.obj
 0001:00000754       ?__destroy@_STL@@YAXPAV?$basic_string@DV?$char_traits@D@_STL@@V?$allocator@D@2@@1@00@Z 00401754 f i Main.obj
 0001:0000076c       ??0?$sp_counted_base_impl@PAVTerrainDemoApplication@TerrainDemo@@U?$checked_deleter@VTerrainDemoApplication@TerrainDemo@@@boost@@@detail@boost@@QAE@PAVTerrainDemoApplication@TerrainDemo@@U?$checked_deleter@VTerrainDemoApplication@TerrainDemo@@@2@@Z 0040176c f i Main.obj
 0001:0000079d       ??0sp_counted_base@detail@boost@@QAE@XZ 0040179d f i Main.obj
 0001:000007d1       ?destruct@sp_counted_base@detail@boost@@UAEXXZ 004017d1 f i Main.obj
 0001:00000803       ??_Gsp_counted_base@detail@boost@@UAEPAXI@Z 00401803 f i Main.obj
 0001:00000803       ??_Esp_counted_base@detail@boost@@UAEPAXI@Z 00401803 f i Main.obj
 0001:0000082c       ??1sp_counted_base@detail@boost@@UAE@XZ 0040182c f i Main.obj
 0001:0000083e       ?get_deleter@?$sp_counted_base_impl@PAVTerrainDemoApplication@TerrainDemo@@U?$checked_deleter@VTerrainDemoApplication@TerrainDemo@@@boost@@@detail@boost@@UAEPAXABVtype_info@@@Z 0040183e f i Main.obj
 0001:00000863       ?__destroy_aux@_STL@@YAXPAV?$basic_string@DV?$char_traits@D@_STL@@V?$allocator@D@2@@1@0ABU__false_type@1@@Z 00401863 f i Main.obj
 0001:00000886       ?_Destroy@_STL@@YAXPAV?$basic_string@DV?$char_traits@D@_STL@@V?$allocator@D@2@@1@@Z 00401886 f i Main.obj
 0001:00000895       ??_G?$basic_string@DV?$char_traits@D@_STL@@V?$allocator@D@2@@_STL@@QAEPAXI@Z 00401895 f i Main.obj
 0001:000008bf       ??0TerrainDemoApplication@TerrainDemo@@QAE@XZ 004018bf f   TerrainDemoApplication.obj
 0001:000008dc       ??_ETerrainDemoApplication@TerrainDemo@@UAEPAXI@Z 004018dc f i TerrainDemoApplication.obj
 0001:000008dc       ??_GTerrainDemoApplication@TerrainDemo@@UAEPAXI@Z 004018dc f i TerrainDemoApplication.obj
 0001:00000905       ??1TerrainDemoApplication@TerrainDemo@@UAE@XZ 00401905 f i TerrainDemoApplication.obj
 0001:00000916       ??1GameApplication@OidFX@@UAE@XZ 00401916 f i TerrainDemoApplication.obj
 0001:0000097c       ?InitialiseScene@TerrainDemoApplication@TerrainDemo@@UAEXXZ 0040197c f   TerrainDemoApplication.obj
 0001:00000a2f       ??6_STL@@YAAAV?$basic_ostream@DV?$char_traits@D@_STL@@@0@AAV10@PBD@Z 00401a2f f i TerrainDemoApplication.obj
 0001:00000a2f       ??6_STL@@YAAAV?$basic_ostream@DV?$char_traits@D@_STL@@@0@AAV10@PBE@Z 00401a2f f i DirectX9Renderer:DirectX9Renderer.obj
 0001:00000a43       ?Lock@VertexBuffer@Renderer@@QAE?AV?$ScopedBufferLock@VVertexBuffer@Renderer@@@2@I@Z 00401a43 f i TerrainDemoApplication.obj
 0001:00000a8a       ?VertexSize@VertexBuffer@Renderer@@QBEIXZ 00401a8a f i TerrainDemoApplication.obj
 0001:00000a99       ?VertexCount@VertexBuffer@Renderer@@QBEIXZ 00401a99 f i TerrainDemoApplication.obj
 0001:00000aa8       ?GetRenderer@GameApplication@OidFX@@IAEAAVIRenderer@Renderer@@XZ 00401aa8 f i TerrainDemoApplication.obj
 0001:00000abc       ?UpdateScene@TerrainDemoApplication@TerrainDemo@@UAEXM@Z 00401abc f   TerrainDemoApplication.obj
 0001:00000ac7       ??1?$Singleton@VGameApplication@OidFX@@@Core@@UAE@XZ 00401ac7 f i TerrainDemoApplication.obj
 0001:00000ae0       ??_G?$Singleton@VGameApplication@OidFX@@@Core@@UAEPAXI@Z 00401ae0 f i TerrainDemoApplication.obj
 0001:00000ae0       ??_E?$Singleton@VGameApplication@OidFX@@@Core@@UAEPAXI@Z 00401ae0 f i TerrainDemoApplication.obj
 0001:00000b09       ?endl@_STL@@YAAAV?$basic_ostream@DV?$char_traits@D@_STL@@@1@AAV21@@Z 00401b09 f i TerrainDemoApplication.obj
 0001:00000b37       ??1?$ScopedBufferLock@VVertexBuffer@Renderer@@@Renderer@@QAE@XZ 00401b37 f i TerrainDemoApplication.obj
 0001:00000b50       ??1?$Handle@VVertexBuffer@Renderer@@@Core@@QAE@XZ 00401b50 f i TerrainDemoApplication.obj
 0001:00000b72       ??C?$Handle@VVertexBuffer@Renderer@@@Core@@QAEPAVVertexBuffer@Renderer@@XZ 00401b72 f i TerrainDemoApplication.obj
 0001:00000bff       ??0Exception@Core@@QAE@ABV01@@Z 00401bff f i TerrainDemoApplication.obj
 0001:00000cac       ?What@Exception@Core@@UBEPBDXZ 00401cac f i TerrainDemoApplication.obj
 0001:00000cc1       ?File@Exception@Core@@UBEPBDXZ 00401cc1 f i TerrainDemoApplication.obj
 0001:00000cd6       ?Function@Exception@Core@@UBEPBDXZ 00401cd6 f i TerrainDemoApplication.obj
 0001:00000ceb       ?Line@Exception@Core@@UBEIXZ 00401ceb f i TerrainDemoApplication.obj
 0001:00000cfa       ?ErrorCode@Exception@Core@@UBEIXZ 00401cfa f i TerrainDemoApplication.obj
 0001:00000d09       ??_GException@Core@@UAEPAXI@Z 00401d09 f i TerrainDemoApplication.obj
 0001:00000d09       ??_EException@Core@@UAEPAXI@Z 00401d09 f i TerrainDemoApplication.obj
 0001:00000d32       ??1Exception@Core@@UAE@XZ  00401d32 f i TerrainDemoApplication.obj
 0001:00000d88       ??4Exception@Core@@UAEAAV01@ABV01@@Z 00401d88 f i TerrainDemoApplication.obj
 0001:00000de7       ??0InvalidArgument@Core@@QAE@ABV01@@Z 00401de7 f i TerrainDemoApplication.obj
 0001:00000e09       ??1NullHandleDereference@Core@@UAE@XZ 00401e09 f i TerrainDemoApplication.obj
 0001:00000e09       ??1RendererError@Renderer@@UAE@XZ 00401e09 f i DirectX9Renderer:DirectX9Renderer.obj
 0001:00000e09       ??1?$OutOfFreePoolSlots@V?$shared_ptr@VVertexBuffer@Renderer@@@boost@@@Core@@UAE@XZ 00401e09 f i Renderer:VertexBufferManager.obj
 0001:00000e09       ??1ConsoleRegistrationError@Core@@UAE@XZ 00401e09 f i Core:ConsoleCommandManager.obj
 0001:00000e09       ??1InvalidArgument@Core@@UAE@XZ 00401e09 f i TerrainDemoApplication.obj
 0001:00000e1a       ??0LogicError@Core@@QAE@ABV01@@Z 00401e1a f i TerrainDemoApplication.obj
 0001:00000e3c       ??0NullHandleDereference@Core@@QAE@PBDI00I@Z 00401e3c f i TerrainDemoApplication.obj
 0001:00000e6a       ??0RuntimeError@Core@@QAE@PBDI00I@Z 00401e6a f i TerrainDemoApplication.obj
 0001:00000e98       ??0Exception@Core@@QAE@PBDI00I@Z 00401e98 f i TerrainDemoApplication.obj
 0001:00000f6d       ??_ELogicError@Core@@UAEPAXI@Z 00401f6d f i TerrainDemoApplication.obj
 0001:00000f6d       ??_GLogicError@Core@@UAEPAXI@Z 00401f6d f i TerrainDemoApplication.obj
 0001:00000f6d       ??_ERuntimeError@Core@@UAEPAXI@Z 00401f6d f i TerrainDemoApplication.obj
 0001:00000f6d       ??_GRuntimeError@Core@@UAEPAXI@Z 00401f6d f i TerrainDemoApplication.obj
 0001:00000f96       ??1LogicError@Core@@UAE@XZ 00401f96 f i TerrainDemoApplication.obj
 0001:00000f96       ??1RuntimeError@Core@@UAE@XZ 00401f96 f i TerrainDemoApplication.obj
 0001:00000fa7       ??0BadHandle@Core@@QAE@PBDI00I@Z 00401fa7 f i TerrainDemoApplication.obj
 0001:00000fd5       ??0InvalidArgument@Core@@QAE@PBDI00I@Z 00401fd5 f i TerrainDemoApplication.obj
 0001:00001003       ??0LogicError@Core@@QAE@PBDI00I@Z 00402003 f i TerrainDemoApplication.obj
 0001:00001031       ??_GBadHandle@Core@@UAEPAXI@Z 00402031 f i TerrainDemoApplication.obj
 0001:00001031       ??_EBadHandle@Core@@UAEPAXI@Z 00402031 f i TerrainDemoApplication.obj
 0001:0000105a       ??1BadHandle@Core@@UAE@XZ  0040205a f i TerrainDemoApplication.obj
 0001:0000106b       ??0NullHandleDereference@Core@@QAE@ABV01@@Z 0040206b f i TerrainDemoApplication.obj
 0001:0000108d       ??0RuntimeError@Core@@QAE@ABV01@@Z 0040208d f i TerrainDemoApplication.obj
 0001:000010af       ??0BadHandle@Core@@QAE@ABV01@@Z 004020af f i TerrainDemoApplication.obj
 0001:000010d1       ?Release@?$ScopedBufferLock@VVertexBuffer@Renderer@@@Renderer@@QAEXXZ 004020d1 f i TerrainDemoApplication.obj
 0001:00001105       ?ReleaseResource@?$ResourceManager@VVertexBuffer@Renderer@@@Core@@IAEXABV?$Handle@VVertexBuffer@Renderer@@@2@@Z 00402105 f i TerrainDemoApplication.obj
 0001:00001230       ?DecrementReferenceCount@Resource@Core@@IAEIXZ 00402230 f i TerrainDemoApplication.obj
 0001:0000124c       ?GetResourcePointer@?$ResourceManager@VVertexBuffer@Renderer@@@Core@@IAEPAVVertexBuffer@Renderer@@ABV?$Handle@VVertexBuffer@Renderer@@@2@@Z 0040224c f i TerrainDemoApplication.obj
 0001:00001272       ?GetManager@?$ResourceManager@VVertexBuffer@Renderer@@@Core@@CAPAV12@XZ 00402272 f i TerrainDemoApplication.obj
 0001:0000127c       ??4shared_count@detail@boost@@QAEAAV012@ABV012@@Z 0040227c f i TerrainDemoApplication.obj
 0001:000012c5       ?add_ref_copy@sp_counted_base@detail@boost@@QAEXXZ 004022c5 f i TerrainDemoApplication.obj
 0001:000012f3       ?Index@?$Handle@VVertexBuffer@Renderer@@@Core@@QBEIXZ 004022f3 f i TerrainDemoApplication.obj
 0001:00001303       ?Unlock@?$RendererBuffer@VVertexBuffer@Renderer@@@Renderer@@IAEXXZ 00402303 f i TerrainDemoApplication.obj
 0001:0000131e       ?SetLockPointer@?$RendererBuffer@VVertexBuffer@Renderer@@@Renderer@@AAEXPAV?$ScopedBufferLock@VVertexBuffer@Renderer@@@2@@Z 0040231e f i TerrainDemoApplication.obj
 0001:00001332       ?IsHandleValid@?$ResourceManager@VVertexBuffer@Renderer@@@Core@@IBE_NABV?$Handle@VVertexBuffer@Renderer@@@2@@Z 00402332 f i TerrainDemoApplication.obj
 0001:0000134b       ??A?$ManagedPool@V?$shared_ptr@VVertexBuffer@Renderer@@@boost@@@Core@@QBEAAV?$shared_ptr@VVertexBuffer@Renderer@@@boost@@I@Z 0040234b f i TerrainDemoApplication.obj
 0001:00001361       ?RemoveItem@?$ManagedPool@V?$shared_ptr@VVertexBuffer@Renderer@@@boost@@@Core@@QAEXI@Z 00402361 f i TerrainDemoApplication.obj
 0001:0000137b       ?ClearHandle@?$HandleManager@VVertexBuffer@Renderer@@@Core@@QAEXI@Z 0040237b f i TerrainDemoApplication.obj
 0001:00001394       ?push_back@?$deque@IV?$allocator@I@_STL@@@_STL@@QAEXABI@Z 00402394 f i TerrainDemoApplication.obj
 0001:000013dc       ?IsHandleValid@?$HandleManager@VVertexBuffer@Renderer@@@Core@@QBE_NABV?$Handle@VVertexBuffer@Renderer@@@2@@Z 004023dc f i TerrainDemoApplication.obj
 0001:00001440       ?_M_push_back_aux_v@?$deque@IV?$allocator@I@_STL@@@_STL@@IAEXABI@Z 00402440 f i TerrainDemoApplication.obj
 0001:000014f4       ?buffer_size@?$_Deque_base@IV?$allocator@I@_STL@@@_STL@@SAIXZ 004024f4 f i TerrainDemoApplication.obj
 0001:000014fc       ?_M_set_node@?$_Deque_iterator_base@I@_STL@@QAEXPAPAI@Z 004024fc f i TerrainDemoApplication.obj
 0001:0000152c       ?_M_reserve_map_at_back@?$deque@IV?$allocator@I@_STL@@@_STL@@IAEXI@Z 0040252c f i TerrainDemoApplication.obj
 0001:00001563       ?MagicNumber@?$Handle@VVertexBuffer@Renderer@@@Core@@QBEIXZ 00402563 f i TerrainDemoApplication.obj
 0001:00001572       ??8?$Handle@VVertexBuffer@Renderer@@@Core@@QBE_NABVNullHandle@1@@Z 00402572 f i TerrainDemoApplication.obj
 0001:00001585       ?_M_reallocate_map@?$deque@IV?$allocator@I@_STL@@@_STL@@IAEXI_N@Z 00402585 f i TerrainDemoApplication.obj
 0001:000016e7       ?copy_backward@_STL@@YAPAPAIPAPAI00@Z 004026e7 f i TerrainDemoApplication.obj
 0001:0000170a       ?__copy_backward_aux@_STL@@YAPAPAIPAPAI00ABU__true_type@1@@Z 0040270a f i TerrainDemoApplication.obj
 0001:0000174d       ?_Ret@?$_BothPtrType@PAPAIPAPAI@_STL@@SA?AU__true_type@2@XZ 0040274d f i TerrainDemoApplication.obj
 0001:0000174d       ?_Ret@?$_OKToMemCpy@PAU?$definition@V?$scanner@PBDU?$scanner_policies@Uiteration_policy@spirit@boost@@Umatch_policy@23@Uaction_policy@23@@spirit@boost@@@spirit@boost@@@ConsoleGrammar@@PAU12@@_STL@@SA?AU__true_type@2@XZ 0040274d f i Core:ConsoleCommandLineParser.obj
 0001:0000174d       ?_Ret@?$_OKToMemCpy@DD@_STL@@SA?AU__true_type@2@XZ 0040274d f i Core:CommandLine.obj
 0001:0000174d       ?_Ret@?$_OKToMemCpy@PAIPAI@_STL@@SA?AU__true_type@2@XZ 0040274d f i TerrainDemoApplication.obj
 0001:0000174d       ?_Ret@?$_BothPtrType@PADPAD@_STL@@SA?AU__true_type@2@XZ 0040274d f i Core:CommandLine.obj
 0001:0000174d       ?_Ret@?$_IsPOD@D@_STL@@SA?AU__true_type@2@XZ 0040274d f i Core:CommandLine.obj
 0001:0000174d       ?_Ret@?$_IsPOD@PAU?$definition@V?$scanner@PBDU?$scanner_policies@Uiteration_policy@spirit@boost@@Umatch_policy@23@Uaction_policy@23@@spirit@boost@@@spirit@boost@@@ConsoleGrammar@@@_STL@@SA?AU__true_type@2@XZ 0040274d f i Core:ConsoleCommandLineParser.obj
 0001:0000174d       ?_Ret@?$_BothPtrType@PAPAU?$definition@V?$scanner@PBDU?$scanner_policies@Uiteration_policy@spirit@boost@@Umatch_policy@23@Uaction_policy@23@@spirit@boost@@@spirit@boost@@@ConsoleGrammar@@PAPAU12@@_STL@@SA?AU__true_type@2@XZ 0040274d f i Core:ConsoleCommandLineParser.obj
 0001:0000174d       ?_Ret@?$_BothPtrType@PAKPAK@_STL@@SA?AU__true_type@2@XZ 0040274d f i Core:ConsoleCommandLineParser.obj
 0001:0000174d       ?_Ret@?$_OKToMemCpy@KK@_STL@@SA?AU__true_type@2@XZ 0040274d f i Core:ConsoleCommandLineParser.obj
 0001:00001756       ?__copy_trivial@_STL@@YAPAXPBX0PAX@Z 00402756 f i TerrainDemoApplication.obj
 0001:00001790       ?__copy_trivial_backward@_STL@@YAPAXPBX0PAX@Z 00402790 f i TerrainDemoApplication.obj
 0001:000017ca       ??0GameApplication@OidFX@@QAE@XZ 004027ca f   OidFX:GameApplication.obj
 0001:00001918       ??0DirectXRendererCreator@DirectX9Renderer@@QAE@XZ 00402918 f i OidFX:GameApplication.obj
 0001:0000193a       ??_GDirectXRendererCreator@DirectX9Renderer@@UAEPAXI@Z 0040293a f i OidFX:GameApplication.obj
 0001:0000193a       ??_EDirectXRendererCreator@DirectX9Renderer@@UAEPAXI@Z 0040293a f i OidFX:GameApplication.obj
 0001:00001963       ??1DirectXRendererCreator@DirectX9Renderer@@UAE@XZ 00402963 f i OidFX:GameApplication.obj
 0001:00001974       ??1RendererCreator@Renderer@@UAE@XZ 00402974 f i OidFX:GameApplication.obj
 0001:000019b6       ??_GRendererCreator@Renderer@@UAEPAXI@Z 004029b6 f i OidFX:GameApplication.obj
 0001:000019b6       ??_ERendererCreator@Renderer@@UAEPAXI@Z 004029b6 f i OidFX:GameApplication.obj
 0001:000019df       ??_EGameApplication@OidFX@@UAEPAXI@Z 004029df f i OidFX:GameApplication.obj
 0001:000019df       ??_GGameApplication@OidFX@@UAEPAXI@Z 004029df f i OidFX:GameApplication.obj
 0001:00001a08       ??0shared_count@detail@boost@@QAE@ABV012@@Z 00402a08 f i OidFX:GameApplication.obj
 0001:00001a32       ?Run@GameApplication@OidFX@@QAEHAAV?$vector@V?$basic_string@DV?$char_traits@D@_STL@@V?$allocator@D@2@@_STL@@V?$allocator@V?$basic_string@DV?$char_traits@D@_STL@@V?$allocator@D@2@@_STL@@@2@@_STL@@PBD1@Z 00402a32 f   OidFX:GameApplication.obj
 0001:00001fa4       ?Update@Timer@Core@@QAENXZ 00402fa4 f i OidFX:GameApplication.obj
 0001:00001fd1       ?GetTime@Timer@Core@@ABENXZ 00402fd1 f i OidFX:GameApplication.obj
 0001:00001fef       ?CreateRenderer@GameApplication@OidFX@@IAEXXZ 00402fef f   OidFX:GameApplication.obj
 0001:0000207b       ??BConsoleString@Core@@QAEABV?$basic_string@DV?$char_traits@D@_STL@@V?$allocator@D@2@@_STL@@XZ 0040307b f i OidFX:GameApplication.obj
 0001:00002093       ?GetString@ConsoleVariable@Core@@QBEABV?$basic_string@DV?$char_traits@D@_STL@@V?$allocator@D@2@@_STL@@XZ 00403093 f i OidFX:GameApplication.obj
 0001:000020a9       ?SupportedDisplayModes@GameApplication@OidFX@@IBEABVDisplayModeList@Renderer@@XZ 004030a9 f   OidFX:GameApplication.obj
 0001:000020cc       ?Initialise@GameApplication@OidFX@@IAEXPBD@Z 004030cc f   OidFX:GameApplication.obj
 0001:0000233f       ??BConsoleUInt@Core@@QAEIXZ 0040333f f i OidFX:GameApplication.obj
 0001:00002357       ?GetUInt@ConsoleVariable@Core@@QBEIXZ 00403357 f i OidFX:GameApplication.obj
 0001:0000236d       ??4ConsoleUInt@Core@@QAEII@Z 0040336d f i OidFX:GameApplication.obj
 0001:0000238d       ?SetUInt@ConsoleVariable@Core@@QAEXI@Z 0040338d f i OidFX:GameApplication.obj
 0001:000023a7       ??BConsoleBool@Core@@QAE_NXZ 004033a7 f i OidFX:GameApplication.obj
 0001:000023bf       ?GetBool@ConsoleVariable@Core@@QBE_NXZ 004033bf f i OidFX:GameApplication.obj
 0001:000023d5       ?SupportsWindowed@DisplayMode@Renderer@@QBE_NXZ 004033d5 f i OidFX:GameApplication.obj
 0001:000023e4       ?GetMode@DisplayModeList@Renderer@@QBEABVDisplayMode@2@II@Z 004033e4 f i OidFX:GameApplication.obj
 0001:0000241f       ?ModeCount@DisplayModeList@Renderer@@QBEII@Z 0040341f f i OidFX:GameApplication.obj
 0001:00002458       ??0GameAppStartFunc@@QAE@AAVGameApplication@OidFX@@@Z 00403458 f i OidFX:GameApplication.obj
 0001:00002480       ??RGameAppStartFunc@@UAEXXZ 00403480 f i OidFX:GameApplication.obj
 0001:00002494       ??0IStartFunc@SettingsDialogue@@QAE@XZ 00403494 f i OidFX:GameApplication.obj
 0001:000024a9       ??0GameAppExitFunc@@QAE@AAVGameApplication@OidFX@@@Z 004034a9 f i OidFX:GameApplication.obj
 0001:000024d1       ??RGameAppExitFunc@@UAEXXZ 004034d1 f i OidFX:GameApplication.obj
 0001:000024e5       ?Quit@GameApplication@OidFX@@QAEXXZ 004034e5 f i OidFX:GameApplication.obj
 0001:000024f5       ??0IExitFunc@SettingsDialogue@@QAE@XZ 004034f5 f i OidFX:GameApplication.obj
 0001:0000250a       ??1Dialogue@SettingsDialogue@@UAE@XZ 0040350a f i OidFX:GameApplication.obj
 0001:0000256f       ??1EventConnection@Core@@QAE@XZ 0040356f f i OidFX:GameApplication.obj
 0001:000025d2       ?Disconnect@EventConnection@Core@@QAEXXZ 004035d2 f i OidFX:GameApplication.obj
 0001:00002667       ?InitialiseConsole@GameApplication@OidFX@@MAEXPBD@Z 00403667 f   OidFX:GameApplication.obj
 0001:00002755       ??4?$shared_ptr@VIRenderer@Renderer@@@boost@@QAEAAV01@ABV01@@Z 00403755 f i OidFX:GameApplication.obj
 0001:00002755       ??4?$shared_ptr@VRendererWindow@Renderer@@@boost@@QAEAAV01@ABV01@@Z 00403755 f i DirectX9Renderer:DirectX9Renderer.obj
 0001:00002755       ??4?$shared_ptr@VRendererFactory@Renderer@@@boost@@QAEAAV01@ABV01@@Z 00403755 f i OidFX:GameApplication.obj
 0001:00002755       ??4?$shared_ptr@U?$object_with_id_base_supply@K@impl@spirit@boost@@@boost@@QAEAAV01@ABV01@@Z 00403755 f i Core:ConsoleCommandLineParser.obj
 0001:00002755       ??4?$shared_ptr@VVertexBuffer@Renderer@@@boost@@QAEAAV01@ABV01@@Z 00403755 f i TerrainDemoApplication.obj
 0001:00002755       ??4?$shared_ptr@VEventProxy@Core@@@boost@@QAEAAV01@ABV01@@Z 00403755 f i Core:Console.obj
 0001:00002755       ??4?$shared_ptr@VConsole@Core@@@boost@@QAEAAV01@ABV01@@Z 00403755 f i OidFX:GameApplication.obj
 0001:00002755       ??4?$shared_ptr@V?$basic_ostream@DV?$char_traits@D@_STL@@@_STL@@@boost@@QAEAAV01@ABV01@@Z 00403755 f i Core:Console.obj
 0001:00002755       ??4?$shared_ptr@VConsoleVariable@Core@@@boost@@QAEAAV01@ABV01@@Z 00403755 f i Core:ConsoleVariableHelpers.obj
 0001:00002755       ??4?$shared_ptr@VOConsoleBuf@Console@Core@@@boost@@QAEAAV01@ABV01@@Z 00403755 f i Core:Console.obj
 0001:00002755       ??4?$shared_ptr@VVertexBufferManager@Renderer@@@boost@@QAEAAV01@ABV01@@Z 00403755 f i DirectX9Renderer:DirectX9Renderer.obj
 0001:00002755       ??4?$shared_ptr@VConsoleBuffer@Core@@@boost@@QAEAAV01@ABV01@@Z 00403755 f i Core:ConsoleCommandLine.obj
 0001:00002755       ??4?$shared_ptr@VConsoleOutputEvent@Core@@@boost@@QAEAAV01@ABV01@@Z 00403755 f i Core:Console.obj
 0001:00002755       ??4?$shared_ptr@VConsoleOutputEventHandler@Core@@@boost@@QAEAAV01@ABV01@@Z 00403755 f i Core:Console.obj
 0001:00002755       ??4?$shared_ptr@VIVertexBufferCreator@Renderer@@@boost@@QAEAAV01@ABV01@@Z 00403755 f i DirectX9Renderer:DirectX9Renderer.obj
 0001:00002755       ??4?$shared_ptr@VConsoleCursor@Core@@@boost@@QAEAAV01@ABV01@@Z 00403755 f i Core:ConsoleCommandLine.obj
 0001:00002755       ??4?$shared_ptr@VConsoleCommandLine@Core@@@boost@@QAEAAV01@ABV01@@Z 00403755 f i Core:Console.obj
 0001:00002755       ??4?$shared_ptr@VProxyType@?$Event@VConsoleOutputEventHandler@Core@@VIConsoleOutputListener@2@@Core@@@boost@@QAEAAV01@ABV01@@Z 00403755 f i Core:Console.obj
 0001:00002755       ??4?$shared_ptr@VConsoleCommand@Core@@@boost@@QAEAAV01@ABV01@@Z 00403755 f i Core:Console.obj
 0001:0000277f       ?InitialiseRenderer@GameApplication@OidFX@@QAEXXZ 0040377f f   OidFX:GameApplication.obj
 0001:00002812       ??0Colour4f@Renderer@@QAE@MMMM@Z 00403812 f i OidFX:GameApplication.obj
 0001:00002843       ?InitialiseScene@GameApplication@OidFX@@MAEXXZ 00403843 f   OidFX:GameApplication.obj
 0001:00002863       ?Update@GameApplication@OidFX@@IAEXM@Z 00403863 f   OidFX:GameApplication.obj
 0001:00002880       ?UpdateScene@GameApplication@OidFX@@MAEXM@Z 00403880 f   OidFX:GameApplication.obj
 0001:000028a2       ?PreRender@GameApplication@OidFX@@MAEXXZ 004038a2 f   OidFX:GameApplication.obj
 0001:000028c2       ?Render@GameApplication@OidFX@@MAEXXZ 004038c2 f   OidFX:GameApplication.obj
 0001:000028e2       ?PostRender@GameApplication@OidFX@@MAEXXZ 004038e2 f   OidFX:GameApplication.obj
 0001:00002902       ?reset@?$shared_ptr@VEventProxy@Core@@@boost@@QAEXXZ 00403902 f i OidFX:GameApplication.obj
 0001:0000294a       ?size@?$vector@VDisplayMode@Renderer@@V?$allocator@VDisplayMode@Renderer@@@_STL@@@_STL@@QBEIXZ 0040394a f i OidFX:GameApplication.obj
 0001:00002964       ??A?$vector@VDisplayMode@Renderer@@V?$allocator@VDisplayMode@Renderer@@@_STL@@@_STL@@QBEABVDisplayMode@Renderer@@I@Z 00403964 f i OidFX:GameApplication.obj
 0001:0000297f       ??1?$Singleton@VDialogue@SettingsDialogue@@@Core@@UAE@XZ 0040397f f i OidFX:GameApplication.obj
 0001:00002998       ??0?$Singleton@VGameApplication@OidFX@@@Core@@QAE@PAVGameApplication@OidFX@@@Z 00403998 f i OidFX:GameApplication.obj
 0001:000029b7       ??_E?$Singleton@VDialogue@SettingsDialogue@@@Core@@UAEPAXI@Z 004039b7 f i OidFX:GameApplication.obj
 0001:000029b7       ??_G?$Singleton@VDialogue@SettingsDialogue@@@Core@@UAEPAXI@Z 004039b7 f i OidFX:GameApplication.obj
 0001:000029e0       ?swap@shared_count@detail@boost@@QAEXAAV123@@Z 004039e0 f i OidFX:GameApplication.obj
 0001:000029e0       ?swap@?$scoped_ptr@U?$abstract_parser@V?$scanner@PBDU?$scanner_policies@Uiteration_policy@spirit@boost@@Umatch_policy@23@Uaction_policy@23@@spirit@boost@@@spirit@boost@@V?$match@Unil_t@spirit@boost@@@23@@impl@spirit@boost@@@boost@@QAEXAAV12@@Z 004039e0 f i Core:ConsoleCommandLineParser.obj
 0001:00002a06       ?any_cast@?$@I@boost@@YAIABVany@1@@Z 00403a06 f i OidFX:GameApplication.obj
 0001:00002a60       ?any_cast@?$@_N@boost@@YA_NABVany@1@@Z 00403a60 f i OidFX:GameApplication.obj
 0001:00002aba       ?any_cast@?$@V?$basic_string@DV?$char_traits@D@_STL@@V?$allocator@D@2@@_STL@@@boost@@YAPBV?$basic_string@DV?$char_traits@D@_STL@@V?$allocator@D@2@@_STL@@PBVany@1@@Z 00403aba f i OidFX:GameApplication.obj
 0001:00002ac8       ??4any@boost@@QAEAAV01@ABI@Z 00403ac8 f i OidFX:GameApplication.obj
 0001:00002b18       ??1any@boost@@QAE@XZ       00403b18 f i OidFX:GameApplication.obj
 0001:00002b4c       ?swap@any@boost@@QAEAAV12@AAV12@@Z 00403b4c f i OidFX:GameApplication.obj
 0001:00002b67       ??6_STL@@YAAAV?$basic_ostream@DV?$char_traits@D@_STL@@@0@AAV10@ABV?$basic_string@DV?$char_traits@D@_STL@@V?$allocator@D@2@@0@@Z 00403b67 f i OidFX:GameApplication.obj
 0001:00002cd1       ??0?$shared_ptr@VRendererFactory@Renderer@@@boost@@QAE@PAVRendererFactory@Renderer@@@Z 00403cd1 f i OidFX:GameApplication.obj
 0001:00002d27       ??0?$shared_ptr@VRendererCreator@Renderer@@@boost@@QAE@PAVDirectXRendererCreator@DirectX9Renderer@@@Z 00403d27 f i OidFX:GameApplication.obj
 0001:00002d7d       ??0?$shared_ptr@VConsole@Core@@@boost@@QAE@PAVConsole@Core@@@Z 00403d7d f i OidFX:GameApplication.obj
 0001:00002dd3       ??0bad_any_cast@boost@@QAE@XZ 00403dd3 f i OidFX:GameApplication.obj
 0001:00002df6       ?what@bad_any_cast@boost@@UBEPBDXZ 00403df6 f i OidFX:GameApplication.obj
 0001:00002e04       ??1bad_any_cast@boost@@UAE@XZ 00403e04 f i OidFX:GameApplication.obj
 0001:00002e16       ??_Gbad_any_cast@boost@@UAEPAXI@Z 00403e16 f i OidFX:GameApplication.obj
 0001:00002e16       ??_Ebad_any_cast@boost@@UAEPAXI@Z 00403e16 f i OidFX:GameApplication.obj
 0001:00002e3f       ?throw_exception@boost@@YAXABVbad_any_cast@1@@Z 00403e3f f i OidFX:GameApplication.obj
 0001:00002e60       ?any_cast@?$@I@boost@@YAPBIPBVany@1@@Z 00403e60 f i OidFX:GameApplication.obj
 0001:00002e6e       ?any_cast@?$@_N@boost@@YAPB_NPBVany@1@@Z 00403e6e f i OidFX:GameApplication.obj
 0001:00002e7c       ?any_cast@?$@V?$basic_string@DV?$char_traits@D@_STL@@V?$allocator@D@2@@_STL@@@boost@@YAPAV?$basic_string@DV?$char_traits@D@_STL@@V?$allocator@D@2@@_STL@@PAVany@1@@Z 00403e7c f i OidFX:GameApplication.obj
 0001:00002eb5       ?type@any@boost@@QBEABVtype_info@@XZ 00403eb5 f i OidFX:GameApplication.obj
 0001:00002eec       ??0any@boost@@QAE@ABI@Z    00403eec f i OidFX:GameApplication.obj
 0001:00002f48       ?__stlp_string_fill@_STL@@YA_NAAV?$basic_ostream@DV?$char_traits@D@_STL@@@1@PAV?$basic_streambuf@DV?$char_traits@D@_STL@@@1@I@Z 00403f48 f i OidFX:GameApplication.obj
 0001:00002fcc       ??0shared_count@detail@boost@@QAE@PAVRendererFactory@Renderer@@U?$checked_deleter@VRendererFactory@Renderer@@@2@@Z 00403fcc f i OidFX:GameApplication.obj
 0001:00003065       ??0shared_count@detail@boost@@QAE@PAVDirectXRendererCreator@DirectX9Renderer@@U?$checked_deleter@VDirectXRendererCreator@DirectX9Renderer@@@2@@Z 00404065 f i OidFX:GameApplication.obj
 0001:000030fe       ??0shared_count@detail@boost@@QAE@PAVConsole@Core@@U?$checked_deleter@VConsole@Core@@@2@@Z 004040fe f i OidFX:GameApplication.obj
 0001:00003197       ??0bad_any_cast@boost@@QAE@ABV01@@Z 00404197 f i OidFX:GameApplication.obj
 0001:000031ba       ??R?$checked_deleter@VRendererFactory@Renderer@@@boost@@QBEXPAVRendererFactory@Renderer@@@Z 004041ba f i OidFX:GameApplication.obj
 0001:000031ce       ??0?$holder@I@any@boost@@QAE@ABI@Z 004041ce f i OidFX:GameApplication.obj
 0001:000031f8       ?type@?$holder@I@any@boost@@UBEABVtype_info@@XZ 004041f8 f i OidFX:GameApplication.obj
 0001:00003206       ?clone@?$holder@I@any@boost@@UBEPAVplaceholder@23@XZ 00404206 f i OidFX:GameApplication.obj
 0001:0000325c       ??0?$sp_counted_base_impl@PAVRendererFactory@Renderer@@U?$checked_deleter@VRendererFactory@Renderer@@@boost@@@detail@boost@@QAE@PAVRendererFactory@Renderer@@U?$checked_deleter@VRendererFactory@Renderer@@@2@@Z 0040425c f i OidFX:GameApplication.obj
 0001:0000328d       ?dispose@?$sp_counted_base_impl@PAVRendererFactory@Renderer@@U?$checked_deleter@VRendererFactory@Renderer@@@boost@@@detail@boost@@UAEXXZ 0040428d f i OidFX:GameApplication.obj
 0001:000032a7       ?get_deleter@?$sp_counted_base_impl@PAVRendererFactory@Renderer@@U?$checked_deleter@VRendererFactory@Renderer@@@boost@@@detail@boost@@UAEPAXABVtype_info@@@Z 004042a7 f i OidFX:GameApplication.obj
 0001:000032cc       ??0?$sp_counted_base_impl@PAVDirectXRendererCreator@DirectX9Renderer@@U?$checked_deleter@VDirectXRendererCreator@DirectX9Renderer@@@boost@@@detail@boost@@QAE@PAVDirectXRendererCreator@DirectX9Renderer@@U?$checked_deleter@VDirectXRendererCreator@DirectX9Renderer@@@2@@Z 004042cc f i OidFX:GameApplication.obj
 0001:000032fd       ?get_deleter@?$sp_counted_base_impl@PAVDirectXRendererCreator@DirectX9Renderer@@U?$checked_deleter@VDirectXRendererCreator@DirectX9Renderer@@@boost@@@detail@boost@@UAEPAXABVtype_info@@@Z 004042fd f i OidFX:GameApplication.obj
 0001:00003322       ??0?$sp_counted_base_impl@PAVConsole@Core@@U?$checked_deleter@VConsole@Core@@@boost@@@detail@boost@@QAE@PAVConsole@Core@@U?$checked_deleter@VConsole@Core@@@2@@Z 00404322 f i OidFX:GameApplication.obj
 0001:00003353       ?get_deleter@?$sp_counted_base_impl@PAVConsole@Core@@U?$checked_deleter@VConsole@Core@@@boost@@@detail@boost@@UAEPAXABVtype_info@@@Z 00404353 f i OidFX:GameApplication.obj
 0001:00003378       ??0placeholder@any@boost@@QAE@XZ 00404378 f i OidFX:GameApplication.obj
 0001:0000338d       ??_Eplaceholder@any@boost@@UAEPAXI@Z 0040438d f i OidFX:GameApplication.obj
 0001:0000338d       ??_Gplaceholder@any@boost@@UAEPAXI@Z 0040438d f i OidFX:GameApplication.obj
 0001:000033b6       ??1placeholder@any@boost@@UAE@XZ 004043b6 f i OidFX:GameApplication.obj
 0001:000033c8       ??1?$holder@I@any@boost@@UAE@XZ 004043c8 f i OidFX:GameApplication.obj
 0001:000033c8       ??1?$holder@H@any@boost@@UAE@XZ 004043c8 f i Core:ConsoleVariableHelpers.obj
 0001:000033c8       ??1?$holder@M@any@boost@@UAE@XZ 004043c8 f i Core:ConsoleVariableHelpers.obj
 0001:000033c8       ??1?$holder@_N@any@boost@@UAE@XZ 004043c8 f i Core:ConsoleVariableHelpers.obj
 0001:000033d9       ?any_cast@?$@I@boost@@YAPAIPAVany@1@@Z 004043d9 f i OidFX:GameApplication.obj
 0001:00003412       ?any_cast@?$@_N@boost@@YAPA_NPAVany@1@@Z 00404412 f i OidFX:GameApplication.obj
 0001:0000344b       ?checked_delete@boost@@YAXPAVRendererFactory@Renderer@@@Z 0040444b f i OidFX:GameApplication.obj
 0001:00003478       ??_GRendererFactory@Renderer@@QAEPAXI@Z 00404478 f i OidFX:GameApplication.obj
 0001:000034a1       ??1RendererFactory@Renderer@@QAE@XZ 004044a1 f i OidFX:GameApplication.obj
 0001:000034b2       ??1?$map@IV?$shared_ptr@VRendererCreator@Renderer@@@boost@@U?$less@I@_STL@@V?$allocator@U?$pair@$$CBIV?$shared_ptr@VRendererCreator@Renderer@@@boost@@@_STL@@@4@@_STL@@QAE@XZ 004044b2 f i OidFX:GameApplication.obj
 0001:000034c3       ??1?$_Rb_tree@IU?$pair@$$CBIV?$shared_ptr@VRendererCreator@Renderer@@@boost@@@_STL@@U?$_Select1st@U?$pair@$$CBIV?$shared_ptr@VRendererCreator@Renderer@@@boost@@@_STL@@@2@U?$less@I@2@V?$allocator@U?$pair@$$CBIV?$shared_ptr@VRendererCreator@Renderer@@@boost@@@_STL@@@2@@_STL@@QAE@XZ 004044c3 f i OidFX:GameApplication.obj
 0001:000034f5       ?clear@?$_Rb_tree@IU?$pair@$$CBIV?$shared_ptr@VRendererCreator@Renderer@@@boost@@@_STL@@U?$_Select1st@U?$pair@$$CBIV?$shared_ptr@VRendererCreator@Renderer@@@boost@@@_STL@@@2@U?$less@I@2@V?$allocator@U?$pair@$$CBIV?$shared_ptr@VRendererCreator@Renderer@@@boost@@@_STL@@@2@@_STL@@QAEXXZ 004044f5 f i OidFX:GameApplication.obj
 0001:00003549       ??1?$_Rb_tree_base@U?$pair@$$CBIV?$shared_ptr@VRendererCreator@Renderer@@@boost@@@_STL@@V?$allocator@U?$pair@$$CBIV?$shared_ptr@VRendererCreator@Renderer@@@boost@@@_STL@@@2@@_STL@@QAE@XZ 00404549 f i OidFX:GameApplication.obj
 0001:00003582       ?_M_rightmost@?$_Rb_tree@IU?$pair@$$CBIV?$shared_ptr@VRendererCreator@Renderer@@@boost@@@_STL@@U?$_Select1st@U?$pair@$$CBIV?$shared_ptr@VRendererCreator@Renderer@@@boost@@@_STL@@@2@U?$less@I@2@V?$allocator@U?$pair@$$CBIV?$shared_ptr@VRendererCreator@Renderer@@@boost@@@_STL@@@2@@_STL@@IBEAAPAU?$_Rb_tree_node@U?$pair@$$CBIV?$shared_ptr@VRendererCreator@Renderer@@@boost@@@_STL@@@2@XZ 00404582 f i OidFX:GameApplication.obj
 0001:00003582       ?_M_rightmost@?$_Rb_tree@JU?$pair@$$CBJV?$basic_string@DV?$char_traits@D@_STL@@V?$allocator@D@2@@_STL@@@_STL@@U?$_Select1st@U?$pair@$$CBJV?$basic_string@DV?$char_traits@D@_STL@@V?$allocator@D@2@@_STL@@@_STL@@@2@U?$less@J@2@V?$allocator@U?$pair@$$CBJV?$basic_string@DV?$char_traits@D@_STL@@V?$allocator@D@2@@_STL@@@_STL@@@2@@_STL@@IBEAAPAU?$_Rb_tree_node@U?$pair@$$CBJV?$basic_string@DV?$char_traits@D@_STL@@V?$allocator@D@2@@_STL@@@_STL@@@2@XZ 00404582 f i DirectX9Renderer:ErrorCodes.obj
 0001:00003582       ?_M_rightmost@?$_Rb_tree@W4_D3DFORMAT@@U?$pair@$$CBW4_D3DFORMAT@@V?$basic_string@DV?$char_traits@D@_STL@@V?$allocator@D@2@@_STL@@@_STL@@U?$_Select1st@U?$pair@$$CBW4_D3DFORMAT@@V?$basic_string@DV?$char_traits@D@_STL@@V?$allocator@D@2@@_STL@@@_STL@@@3@U?$less@W4_D3DFORMAT@@@3@V?$allocator@U?$pair@$$CBW4_D3DFORMAT@@V?$basic_string@DV?$char_traits@D@_STL@@V?$allocator@D@2@@_STL@@@_STL@@@3@@_STL@@IBEAAPAU?$_Rb_tree_node@U?$pair@$$CBW4_D3DFORMAT@@V?$basic_string@DV?$char_traits@D@_STL@@V?$allocator@D@2@@_STL@@@_STL@@@2@XZ 00404582 f i DirectX9Renderer:Formats.obj
 0001:00003582       ?_M_rightmost@?$_Rb_tree@IU?$pair@$$CBIV?$shared_ptr@VConsoleVariable@Core@@@boost@@@_STL@@U?$_Select1st@U?$pair@$$CBIV?$shared_ptr@VConsoleVariable@Core@@@boost@@@_STL@@@2@U?$less@I@2@V?$allocator@U?$pair@$$CBIV?$shared_ptr@VConsoleVariable@Core@@@boost@@@_STL@@@2@@_STL@@IBEAAPAU?$_Rb_tree_node@U?$pair@$$CBIV?$shared_ptr@VConsoleVariable@Core@@@boost@@@_STL@@@2@XZ 00404582 f i Core:Console.obj
 0001:00003582       ?_M_rightmost@?$_Rb_tree@IU?$pair@$$CBIPAVConsoleCommand@Core@@@_STL@@U?$_Select1st@U?$pair@$$CBIPAVConsoleCommand@Core@@@_STL@@@2@U?$less@I@2@V?$allocator@U?$pair@$$CBIPAVConsoleCommand@Core@@@_STL@@@2@@_STL@@IBEAAPAU?$_Rb_tree_node@U?$pair@$$CBIPAVConsoleCommand@Core@@@_STL@@@2@XZ 00404582 f i Core:Console.obj
 0001:00003593       ?_M_erase@?$_Rb_tree@IU?$pair@$$CBIV?$shared_ptr@VRendererCreator@Renderer@@@boost@@@_STL@@U?$_Select1st@U?$pair@$$CBIV?$shared_ptr@VRendererCreator@Renderer@@@boost@@@_STL@@@2@U?$less@I@2@V?$allocator@U?$pair@$$CBIV?$shared_ptr@VRendererCreator@Renderer@@@boost@@@_STL@@@2@@_STL@@AAEXPAU?$_Rb_tree_node@U?$pair@$$CBIV?$shared_ptr@VRendererCreator@Renderer@@@boost@@@_STL@@@2@@Z 00404593 f i OidFX:GameApplication.obj
 0001:000035e8       ?_S_left@?$_Rb_tree@JU?$pair@$$CBJV?$basic_string@DV?$char_traits@D@_STL@@V?$allocator@D@2@@_STL@@@_STL@@U?$_Select1st@U?$pair@$$CBJV?$basic_string@DV?$char_traits@D@_STL@@V?$allocator@D@2@@_STL@@@_STL@@@2@U?$less@J@2@V?$allocator@U?$pair@$$CBJV?$basic_string@DV?$char_traits@D@_STL@@V?$allocator@D@2@@_STL@@@_STL@@@2@@_STL@@KAAAPAU?$_Rb_tree_node@U?$pair@$$CBJV?$basic_string@DV?$char_traits@D@_STL@@V?$allocator@D@2@@_STL@@@_STL@@@2@PAU32@@Z 004045e8 f i DirectX9Renderer:ErrorCodes.obj
 0001:000035e8       ?_S_left@?$_Rb_tree@W4_D3DFORMAT@@U?$pair@$$CBW4_D3DFORMAT@@V?$basic_string@DV?$char_traits@D@_STL@@V?$allocator@D@2@@_STL@@@_STL@@U?$_Select1st@U?$pair@$$CBW4_D3DFORMAT@@V?$basic_string@DV?$char_traits@D@_STL@@V?$allocator@D@2@@_STL@@@_STL@@@3@U?$less@W4_D3DFORMAT@@@3@V?$allocator@U?$pair@$$CBW4_D3DFORMAT@@V?$basic_string@DV?$char_traits@D@_STL@@V?$allocator@D@2@@_STL@@@_STL@@@3@@_STL@@KAAAPAU?$_Rb_tree_node@U?$pair@$$CBW4_D3DFORMAT@@V?$basic_string@DV?$char_traits@D@_STL@@V?$allocator@D@2@@_STL@@@_STL@@@2@PAU32@@Z 004045e8 f i DirectX9Renderer:Formats.obj
 0001:000035e8       ?_S_left@?$_Rb_tree@IU?$pair@$$CBIPAVConsoleCommand@Core@@@_STL@@U?$_Select1st@U?$pair@$$CBIPAVConsoleCommand@Core@@@_STL@@@2@U?$less@I@2@V?$allocator@U?$pair@$$CBIPAVConsoleCommand@Core@@@_STL@@@2@@_STL@@KAAAPAU?$_Rb_tree_node@U?$pair@$$CBIPAVConsoleCommand@Core@@@_STL@@@2@PAU32@@Z 004045e8 f i Core:Console.obj
 0001:000035e8       ?_S_left@?$_Rb_tree@IU?$pair@$$CBIV?$shared_ptr@VConsoleVariable@Core@@@boost@@@_STL@@U?$_Select1st@U?$pair@$$CBIV?$shared_ptr@VConsoleVariable@Core@@@boost@@@_STL@@@2@U?$less@I@2@V?$allocator@U?$pair@$$CBIV?$shared_ptr@VConsoleVariable@Core@@@boost@@@_STL@@@2@@_STL@@KAAAPAU?$_Rb_tree_node@U?$pair@$$CBIV?$shared_ptr@VConsoleVariable@Core@@@boost@@@_STL@@@2@PAU32@@Z 004045e8 f i Core:Console.obj
 0001:000035e8       ?_S_left@?$_Rb_tree@IU?$pair@$$CBIV?$shared_ptr@VRendererCreator@Renderer@@@boost@@@_STL@@U?$_Select1st@U?$pair@$$CBIV?$shared_ptr@VRendererCreator@Renderer@@@boost@@@_STL@@@2@U?$less@I@2@V?$allocator@U?$pair@$$CBIV?$shared_ptr@VRendererCreator@Renderer@@@boost@@@_STL@@@2@@_STL@@KAAAPAU?$_Rb_tree_node@U?$pair@$$CBIV?$shared_ptr@VRendererCreator@Renderer@@@boost@@@_STL@@@2@PAU32@@Z 004045e8 f i OidFX:GameApplication.obj
 0001:000035f3       ?_S_right@?$_Rb_tree@IU?$pair@$$CBIV?$shared_ptr@VRendererCreator@Renderer@@@boost@@@_STL@@U?$_Select1st@U?$pair@$$CBIV?$shared_ptr@VRendererCreator@Renderer@@@boost@@@_STL@@@2@U?$less@I@2@V?$allocator@U?$pair@$$CBIV?$shared_ptr@VRendererCreator@Renderer@@@boost@@@_STL@@@2@@_STL@@KAAAPAU?$_Rb_tree_node@U?$pair@$$CBIV?$shared_ptr@VRendererCreator@Renderer@@@boost@@@_STL@@@2@PAU32@@Z 004045f3 f i OidFX:GameApplication.obj
 0001:000035f3       ?_S_right@?$_Rb_tree@W4_D3DFORMAT@@U?$pair@$$CBW4_D3DFORMAT@@V?$basic_string@DV?$char_traits@D@_STL@@V?$allocator@D@2@@_STL@@@_STL@@U?$_Select1st@U?$pair@$$CBW4_D3DFORMAT@@V?$basic_string@DV?$char_traits@D@_STL@@V?$allocator@D@2@@_STL@@@_STL@@@3@U?$less@W4_D3DFORMAT@@@3@V?$allocator@U?$pair@$$CBW4_D3DFORMAT@@V?$basic_string@DV?$char_traits@D@_STL@@V?$allocator@D@2@@_STL@@@_STL@@@3@@_STL@@KAAAPAU?$_Rb_tree_node@U?$pair@$$CBW4_D3DFORMAT@@V?$basic_string@DV?$char_traits@D@_STL@@V?$allocator@D@2@@_STL@@@_STL@@@2@PAU32@@Z 004045f3 f i DirectX9Renderer:Formats.obj
 0001:000035f3       ?_S_right@?$_Rb_tree@IU?$pair@$$CBIV?$shared_ptr@VConsoleVariable@Core@@@boost@@@_STL@@U?$_Select1st@U?$pair@$$CBIV?$shared_ptr@VConsoleVariable@Core@@@boost@@@_STL@@@2@U?$less@I@2@V?$allocator@U?$pair@$$CBIV?$shared_ptr@VConsoleVariable@Core@@@boost@@@_STL@@@2@@_STL@@KAAAPAU?$_Rb_tree_node@U?$pair@$$CBIV?$shared_ptr@VConsoleVariable@Core@@@boost@@@_STL@@@2@PAU_Rb_tree_node_base@2@@Z 004045f3 f i Core:ConsoleVariableManager.obj
 0001:000035f3       ?_S_right@?$_Rb_tree@IU?$pair@$$CBIPAVConsoleCommand@Core@@@_STL@@U?$_Select1st@U?$pair@$$CBIPAVConsoleCommand@Core@@@_STL@@@2@U?$less@I@2@V?$allocator@U?$pair@$$CBIPAVConsoleCommand@Core@@@_STL@@@2@@_STL@@KAAAPAU?$_Rb_tree_node@U?$pair@$$CBIPAVConsoleCommand@Core@@@_STL@@@2@PAU32@@Z 004045f3 f i Core:Console.obj
 0001:000035f3       ?_S_right@?$_Rb_tree@IU?$pair@$$CBIV?$shared_ptr@VConsoleVariable@Core@@@boost@@@_STL@@U?$_Select1st@U?$pair@$$CBIV?$shared_ptr@VConsoleVariable@Core@@@boost@@@_STL@@@2@U?$less@I@2@V?$allocator@U?$pair@$$CBIV?$shared_ptr@VConsoleVariable@Core@@@boost@@@_STL@@@2@@_STL@@KAAAPAU?$_Rb_tree_node@U?$pair@$$CBIV?$shared_ptr@VConsoleVariable@Core@@@boost@@@_STL@@@2@PAU32@@Z 004045f3 f i Core:Console.obj
 0001:000035f3       ?_S_right@?$_Rb_tree@JU?$pair@$$CBJV?$basic_string@DV?$char_traits@D@_STL@@V?$allocator@D@2@@_STL@@@_STL@@U?$_Select1st@U?$pair@$$CBJV?$basic_string@DV?$char_traits@D@_STL@@V?$allocator@D@2@@_STL@@@_STL@@@2@U?$less@J@2@V?$allocator@U?$pair@$$CBJV?$basic_string@DV?$char_traits@D@_STL@@V?$allocator@D@2@@_STL@@@_STL@@@2@@_STL@@KAAAPAU?$_Rb_tree_node@U?$pair@$$CBJV?$basic_string@DV?$char_traits@D@_STL@@V?$allocator@D@2@@_STL@@@_STL@@@2@PAU_Rb_tree_node_base@2@@Z 004045f3 f i DirectX9Renderer:ErrorCodes.obj
 0001:000035f3       ?_S_right@?$_Rb_tree@JU?$pair@$$CBJV?$basic_string@DV?$char_traits@D@_STL@@V?$allocator@D@2@@_STL@@@_STL@@U?$_Select1st@U?$pair@$$CBJV?$basic_string@DV?$char_traits@D@_STL@@V?$allocator@D@2@@_STL@@@_STL@@@2@U?$less@J@2@V?$allocator@U?$pair@$$CBJV?$basic_string@DV?$char_traits@D@_STL@@V?$allocator@D@2@@_STL@@@_STL@@@2@@_STL@@KAAAPAU?$_Rb_tree_node@U?$pair@$$CBJV?$basic_string@DV?$char_traits@D@_STL@@V?$allocator@D@2@@_STL@@@_STL@@@2@PAU32@@Z 004045f3 f i DirectX9Renderer:ErrorCodes.obj
 0001:000035f3       ?_S_right@?$_Rb_tree@W4_D3DFORMAT@@U?$pair@$$CBW4_D3DFORMAT@@V?$basic_string@DV?$char_traits@D@_STL@@V?$allocator@D@2@@_STL@@@_STL@@U?$_Select1st@U?$pair@$$CBW4_D3DFORMAT@@V?$basic_string@DV?$char_traits@D@_STL@@V?$allocator@D@2@@_STL@@@_STL@@@3@U?$less@W4_D3DFORMAT@@@3@V?$allocator@U?$pair@$$CBW4_D3DFORMAT@@V?$basic_string@DV?$char_traits@D@_STL@@V?$allocator@D@2@@_STL@@@_STL@@@3@@_STL@@KAAAPAU?$_Rb_tree_node@U?$pair@$$CBW4_D3DFORMAT@@V?$basic_string@DV?$char_traits@D@_STL@@V?$allocator@D@2@@_STL@@@_STL@@@2@PAU_Rb_tree_node_base@2@@Z 004045f3 f i DirectX9Renderer:Formats.obj
 0001:000035f3       ?_S_right@?$_Rb_tree@IU?$pair@$$CBIPAVConsoleCommand@Core@@@_STL@@U?$_Select1st@U?$pair@$$CBIPAVConsoleCommand@Core@@@_STL@@@2@U?$less@I@2@V?$allocator@U?$pair@$$CBIPAVConsoleCommand@Core@@@_STL@@@2@@_STL@@KAAAPAU?$_Rb_tree_node@U?$pair@$$CBIPAVConsoleCommand@Core@@@_STL@@@2@PAU_Rb_tree_node_base@2@@Z 004045f3 f i Core:ConsoleCommandManager.obj
 0001:000035fe       ?TokeniseCommandLine@Core@@YAXV?$basic_string@DV?$char_traits@D@_STL@@V?$allocator@D@2@@_STL@@AAV?$vector@V?$basic_string@DV?$char_traits@D@_STL@@V?$allocator@D@2@@_STL@@V?$allocator@V?$basic_string@DV?$char_traits@D@_STL@@V?$allocator@D@2@@_STL@@@2@@3@@Z 004045fe f   Core:CommandLine.obj
 0001:000036fb       ?distance@_STL@@YAHABQAD0@Z 004046fb f i Core:CommandLine.obj
 0001:00003720       ??0?$basic_string@DV?$char_traits@D@_STL@@V?$allocator@D@2@@_STL@@QAE@PAD0@Z 00404720 f i Core:CommandLine.obj
 0001:00003786       ?__distance@_STL@@YAHABQAD0ABUrandom_access_iterator_tag@1@@Z 00404786 f i Core:CommandLine.obj
 0001:00003795       ?_M_initialize_dispatch@?$basic_string@DV?$char_traits@D@_STL@@V?$allocator@D@2@@_STL@@AAEXPAD0ABU__false_type@2@@Z 00404795 f i Core:CommandLine.obj
 0001:000037ae       ?_M_range_initialize@?$basic_string@DV?$char_traits@D@_STL@@V?$allocator@D@2@@_STL@@AAEXPAD0@Z 004047ae f i Core:CommandLine.obj
 0001:000037d7       ?_M_range_initialize@?$basic_string@DV?$char_traits@D@_STL@@V?$allocator@D@2@@_STL@@AAEXPAD0ABUforward_iterator_tag@2@@Z 004047d7 f i Core:CommandLine.obj
 0001:00003825       ?uninitialized_copy@_STL@@YAPADPAD00@Z 00404825 f i Core:CommandLine.obj
 0001:0000385d       ?_Is_POD@_STL@@YA?AU?$_IsPOD@PAU?$definition@V?$scanner@PBDU?$scanner_policies@Uiteration_policy@spirit@boost@@Umatch_policy@23@Uaction_policy@23@@spirit@boost@@@spirit@boost@@@ConsoleGrammar@@@1@PAPAU?$definition@V?$scanner@PBDU?$scanner_policies@Uiteration_policy@spirit@boost@@Umatch_policy@23@Uaction_policy@23@@spirit@boost@@@spirit@boost@@@ConsoleGrammar@@@Z 0040485d f i Core:ConsoleCommandLineParser.obj
 0001:0000385d       ?_IsOKToMemCpy@_STL@@YA?AU?$_OKToMemCpy@PAU?$definition@V?$scanner@PBDU?$scanner_policies@Uiteration_policy@spirit@boost@@Umatch_policy@23@Uaction_policy@23@@spirit@boost@@@spirit@boost@@@ConsoleGrammar@@PAU12@@1@PAPAU?$definition@V?$scanner@PBDU?$scanner_policies@Uiteration_policy@spirit@boost@@Umatch_policy@23@Uaction_policy@23@@spirit@boost@@@spirit@boost@@@ConsoleGrammar@@0@Z 0040485d f i Core:ConsoleCommandLineParser.obj
 0001:0000385d       ?iterator_category@_STL@@YA?AUrandom_access_iterator_tag@1@PBD@Z 0040485d f i Core:CommandLine.obj
 0001:0000385d       ?_IsOKToMemCpy@_STL@@YA?AU?$_OKToMemCpy@PAIPAI@1@PAPAI0@Z 0040485d f i TerrainDemoApplication.obj
 0001:0000385d       ?_Is_POD@_STL@@YA?AU?$_IsPOD@D@1@PAD@Z 0040485d f i Core:CommandLine.obj
 0001:0000385d       ?_IsOKToMemCpy@_STL@@YA?AU?$_OKToMemCpy@KK@1@PAK0@Z 0040485d f i Core:ConsoleCommandLineParser.obj
 0001:0000385d       ?_IsOKToMemCpy@_STL@@YA?AU?$_OKToMemCpy@DD@1@PAD0@Z 0040485d f i Core:CommandLine.obj
 0001:0000386e       ?DisplayUnimplementedMessage@Core@@YAXPBD0I@Z 0040486e f   Core:Debug.obj
 0001:00003a2a       ?DisplayError@Core@@YAXPBD0@Z 00404a2a f   Core:Debug.obj
 0001:00003a4b       ??0Timer@Core@@QAE@XZ      00404a4b f   Core:Timer.obj
 0001:00003ace       ?Variables@Console@Core@@QBEAAVConsoleVariableManager@2@XZ 00404ace f i Core:ConsoleVariableHelpers.obj
 0001:00003ae2       ??1ConsoleVariable@Core@@QAE@XZ 00404ae2 f i Core:ConsoleVariableHelpers.obj
 0001:00003b1b       ??0ConsoleUInt@Core@@QAE@PBDI@Z 00404b1b f   Core:ConsoleVariableHelpers.obj
 0001:00003bc9       ??0ConsoleBool@Core@@QAE@PBD_N@Z 00404bc9 f   Core:ConsoleVariableHelpers.obj
 0001:00003c77       ??0ConsoleString@Core@@QAE@PBD0@Z 00404c77 f   Core:ConsoleVariableHelpers.obj
 0001:00003d70       ?GetSingleton@?$Singleton@VConsole@Core@@@Core@@SAAAVConsole@2@XZ 00404d70 f i Core:ConsoleVariableHelpers.obj
 0001:00003d7a       ??0?$bitset@$03@_STL@@QAE@K@Z 00404d7a f i Core:ConsoleVariableHelpers.obj
 0001:00003d9b       ?_M_do_sanitize@?$bitset@$03@_STL@@AAEXXZ 00404d9b f i Core:ConsoleVariableHelpers.obj
 0001:00003db3       ?_M_do_sanitize@?$_Sanitize@$03@_STL@@SAXAAK@Z 00404db3 f i Core:ConsoleVariableHelpers.obj
 0001:00003dc5       ??0any@boost@@QAE@ABM@Z    00404dc5 f i Core:ConsoleVariableHelpers.obj
 0001:00003e21       ??0any@boost@@QAE@ABH@Z    00404e21 f i Core:ConsoleVariableHelpers.obj
 0001:00003e7d       ??0any@boost@@QAE@AB_N@Z   00404e7d f i Core:ConsoleVariableHelpers.obj
 0001:00003ed9       ??0any@boost@@QAE@ABV?$basic_string@DV?$char_traits@D@_STL@@V?$allocator@D@2@@_STL@@@Z 00404ed9 f i Core:ConsoleVariableHelpers.obj
 0001:00003f35       ??0?$holder@M@any@boost@@QAE@ABM@Z 00404f35 f i Core:ConsoleVariableHelpers.obj
 0001:00003f5f       ?type@?$holder@M@any@boost@@UBEABVtype_info@@XZ 00404f5f f i Core:ConsoleVariableHelpers.obj
 0001:00003f6d       ?clone@?$holder@M@any@boost@@UBEPAVplaceholder@23@XZ 00404f6d f i Core:ConsoleVariableHelpers.obj
 0001:00003fc3       ??0?$holder@H@any@boost@@QAE@ABH@Z 00404fc3 f i Core:ConsoleVariableHelpers.obj
 0001:00003fed       ?type@?$holder@H@any@boost@@UBEABVtype_info@@XZ 00404fed f i Core:ConsoleVariableHelpers.obj
 0001:00003ffb       ?clone@?$holder@H@any@boost@@UBEPAVplaceholder@23@XZ 00404ffb f i Core:ConsoleVariableHelpers.obj
 0001:00004051       ??0?$holder@_N@any@boost@@QAE@AB_N@Z 00405051 f i Core:ConsoleVariableHelpers.obj
 0001:0000407b       ?type@?$holder@_N@any@boost@@UBEABVtype_info@@XZ 0040507b f i Core:ConsoleVariableHelpers.obj
 0001:00004089       ?clone@?$holder@_N@any@boost@@UBEPAVplaceholder@23@XZ 00405089 f i Core:ConsoleVariableHelpers.obj
 0001:000040df       ??0?$holder@V?$basic_string@DV?$char_traits@D@_STL@@V?$allocator@D@2@@_STL@@@any@boost@@QAE@ABV?$basic_string@DV?$char_traits@D@_STL@@V?$allocator@D@2@@_STL@@@Z 004050df f i Core:ConsoleVariableHelpers.obj
 0001:00004126       ?type@?$holder@V?$basic_string@DV?$char_traits@D@_STL@@V?$allocator@D@2@@_STL@@@any@boost@@UBEABVtype_info@@XZ 00405126 f i Core:ConsoleVariableHelpers.obj
 0001:00004134       ?clone@?$holder@V?$basic_string@DV?$char_traits@D@_STL@@V?$allocator@D@2@@_STL@@@any@boost@@UBEPAVplaceholder@23@XZ 00405134 f i Core:ConsoleVariableHelpers.obj
 0001:0000418a       ??_G?$holder@_N@any@boost@@UAEPAXI@Z 0040518a f i Core:ConsoleVariableHelpers.obj
 0001:0000418a       ??_G?$holder@H@any@boost@@UAEPAXI@Z 0040518a f i Core:ConsoleVariableHelpers.obj
 0001:0000418a       ??_G?$holder@M@any@boost@@UAEPAXI@Z 0040518a f i Core:ConsoleVariableHelpers.obj
 0001:0000418a       ??_E?$holder@I@any@boost@@UAEPAXI@Z 0040518a f i OidFX:GameApplication.obj
 0001:0000418a       ??_G?$holder@I@any@boost@@UAEPAXI@Z 0040518a f i OidFX:GameApplication.obj
 0001:0000418a       ??_E?$holder@H@any@boost@@UAEPAXI@Z 0040518a f i Core:ConsoleVariableHelpers.obj
 0001:0000418a       ??_E?$holder@M@any@boost@@UAEPAXI@Z 0040518a f i Core:ConsoleVariableHelpers.obj
 0001:0000418a       ??_E?$holder@_N@any@boost@@UAEPAXI@Z 0040518a f i Core:ConsoleVariableHelpers.obj
 0001:000041b3       ??_G?$holder@V?$basic_string@DV?$char_traits@D@_STL@@V?$allocator@D@2@@_STL@@@any@boost@@UAEPAXI@Z 004051b3 f i Core:ConsoleVariableHelpers.obj
 0001:000041b3       ??_E?$holder@V?$basic_string@DV?$char_traits@D@_STL@@V?$allocator@D@2@@_STL@@@any@boost@@UAEPAXI@Z 004051b3 f i Core:ConsoleVariableHelpers.obj
 0001:000041dc       ??1?$holder@V?$basic_string@DV?$char_traits@D@_STL@@V?$allocator@D@2@@_STL@@@any@boost@@UAE@XZ 004051dc f i Core:ConsoleVariableHelpers.obj
 0001:00004212       ??0Console@Core@@QAE@IIPBD@Z 00405212 f   Core:Console.obj
 0001:00004d8b       ??0OConsoleBuf@Console@Core@@QAE@W4StreamID@2@AAV12@@Z 00405d8b f i Core:Console.obj
 0001:00004dbf       ??_GOConsoleBuf@Console@Core@@UAEPAXI@Z 00405dbf f i Core:Console.obj
 0001:00004dbf       ??_EOConsoleBuf@Console@Core@@UAEPAXI@Z 00405dbf f i Core:Console.obj
 0001:00004de8       ??1OConsoleBuf@Console@Core@@UAE@XZ 00405de8 f i Core:Console.obj
 0001:00004dfa       ?sync@OConsoleBuf@Console@Core@@UAEHXZ 00405dfa f i Core:Console.obj
 0001:00004eb6       ??0CmdList@ConsoleCommands@@QAE@XZ 00405eb6 f i Core:Console.obj
 0001:00004ed8       ?Execute@CmdList@ConsoleCommands@@UAE_NABV?$vector@Vany@boost@@V?$allocator@Vany@boost@@@_STL@@@_STL@@@Z 00405ed8 f i Core:Console.obj
 0001:00005011       ??9_Rb_tree_base_iterator@_STL@@QBE_NABU01@@Z 00406011 f i Core:Console.obj
 0001:0000502d       ?Commands@Console@Core@@QBEAAVConsoleCommandManager@2@XZ 0040602d f i Core:Console.obj
 0001:00005041       ??0CvarList@ConsoleCommands@@QAE@XZ 00406041 f i Core:Console.obj
 0001:00005063       ?Execute@CvarList@ConsoleCommands@@UAE_NABV?$vector@Vany@boost@@V?$allocator@Vany@boost@@@_STL@@@_STL@@@Z 00406063 f i Core:Console.obj
 0001:0000518e       ??6Core@@YAAAV?$basic_ostream@DV?$char_traits@D@_STL@@@_STL@@AAV12@ABVConsoleVariable@0@@Z 0040618e f i Core:Console.obj
 0001:0000525a       ?IsBool@ConsoleVariable@Core@@QBE_NXZ 0040625a f i Core:Console.obj
 0001:00005280       ?IsInt@ConsoleVariable@Core@@QBE_NXZ 00406280 f i Core:Console.obj
 0001:000052a6       ?IsUInt@ConsoleVariable@Core@@QBE_NXZ 004062a6 f i Core:Console.obj
 0001:000052cc       ?IsFloat@ConsoleVariable@Core@@QBE_NXZ 004062cc f i Core:Console.obj
 0001:000052f2       ?IsString@ConsoleVariable@Core@@QBE_NXZ 004062f2 f i Core:Console.obj
 0001:00005318       ?GetInt@ConsoleVariable@Core@@QBEHXZ 00406318 f i Core:Console.obj
 0001:0000532e       ?GetFloat@ConsoleVariable@Core@@QBEMXZ 0040632e f i Core:Console.obj
 0001:00005344       ?Begin@ConsoleVariableManager@Core@@QAE?AU?$_Rb_tree_iterator@U?$pair@$$CBIV?$shared_ptr@VConsoleVariable@Core@@@boost@@@_STL@@U?$_Nonconst_traits@U?$pair@$$CBIV?$shared_ptr@VConsoleVariable@Core@@@boost@@@_STL@@@2@@_STL@@XZ 00406344 f i Core:Console.obj
 0001:00005344       ?Begin@ConsoleCommandManager@Core@@QAE?AU?$_Rb_tree_iterator@U?$pair@$$CBIPAVConsoleCommand@Core@@@_STL@@U?$_Nonconst_traits@U?$pair@$$CBIPAVConsoleCommand@Core@@@_STL@@@2@@_STL@@XZ 00406344 f i Core:Console.obj
 0001:0000535d       ?End@ConsoleCommandManager@Core@@QAE?AU?$_Rb_tree_iterator@U?$pair@$$CBIPAVConsoleCommand@Core@@@_STL@@U?$_Nonconst_traits@U?$pair@$$CBIPAVConsoleCommand@Core@@@_STL@@@2@@_STL@@XZ 0040635d f i Core:Console.obj
 0001:0000535d       ?End@ConsoleVariableManager@Core@@QAE?AU?$_Rb_tree_iterator@U?$pair@$$CBIV?$shared_ptr@VConsoleVariable@Core@@@boost@@@_STL@@U?$_Nonconst_traits@U?$pair@$$CBIV?$shared_ptr@VConsoleVariable@Core@@@boost@@@_STL@@@2@@_STL@@XZ 0040635d f i Core:Console.obj
 0001:00005376       ??0Exec@ConsoleCommands@@QAE@XZ 00406376 f i Core:Console.obj
 0001:00005398       ?Execute@Exec@ConsoleCommands@@UAE_NABV?$vector@Vany@boost@@V?$allocator@Vany@boost@@@_STL@@@_STL@@@Z 00406398 f i Core:Console.obj
 0001:00005636       ??_GCmdList@ConsoleCommands@@UAEPAXI@Z 00406636 f i Core:Console.obj
 0001:00005636       ??_EExec@ConsoleCommands@@UAEPAXI@Z 00406636 f i Core:Console.obj
 0001:00005636       ??_ECmdList@ConsoleCommands@@UAEPAXI@Z 00406636 f i Core:Console.obj
 0001:00005636       ??_GCvarList@ConsoleCommands@@UAEPAXI@Z 00406636 f i Core:Console.obj
 0001:00005636       ??_GExec@ConsoleCommands@@UAEPAXI@Z 00406636 f i Core:Console.obj
 0001:00005636       ??_ECvarList@ConsoleCommands@@UAEPAXI@Z 00406636 f i Core:Console.obj
 0001:0000565f       ??1CmdList@ConsoleCommands@@UAE@XZ 0040665f f i Core:Console.obj
 0001:0000565f       ??1CvarList@ConsoleCommands@@UAE@XZ 0040665f f i Core:Console.obj
 0001:0000565f       ??1Exec@ConsoleCommands@@UAE@XZ 0040665f f i Core:Console.obj
 0001:00005670       ??_EConsole@Core@@UAEPAXI@Z 00406670 f i Core:Console.obj
 0001:00005670       ??_GConsole@Core@@UAEPAXI@Z 00406670 f i Core:Console.obj
 0001:00005699       ??1?$shared_ptr@VResizeEventHandler@Core@@@boost@@QAE@XZ 00406699 f i Renderer:RendererWindow.obj
 0001:00005699       ??1?$shared_ptr@VConsoleBuffer@Core@@@boost@@QAE@XZ 00406699 f i Core:Console.obj
 0001:00005699       ??1?$shared_ptr@VIVertexBufferCreator@Renderer@@@boost@@QAE@XZ 00406699 f i DirectX9Renderer:DirectX9Renderer.obj
 0001:00005699       ??1?$shared_ptr@VConsoleOutputEventHandler@Core@@@boost@@QAE@XZ 00406699 f i Core:Console.obj
 0001:00005699       ??1?$shared_ptr@VKeyboardEventHandler@Core@@@boost@@QAE@XZ 00406699 f i Renderer:RendererWindow.obj
 0001:00005699       ??1?$shared_ptr@VGameApplication@OidFX@@@boost@@QAE@XZ 00406699 f i Main.obj
 0001:00005699       ??1?$shared_ptr@VProxyType@?$Event@VKeyboardEventHandler@Core@@VIKeyboardSensitive@2@@Core@@@boost@@QAE@XZ 00406699 f i Renderer:RendererWindow.obj
 0001:00005699       ??1?$shared_ptr@VConsoleVariable@Core@@@boost@@QAE@XZ 00406699 f i OidFX:GameApplication.obj
 0001:00005699       ??1?$shared_ptr@VConsole@Core@@@boost@@QAE@XZ 00406699 f i TerrainDemoApplication.obj
 0001:00005699       ??1?$shared_ptr@VVertexBufferManager@Renderer@@@boost@@QAE@XZ 00406699 f i DirectX9Renderer:DirectX9Renderer.obj
 0001:00005699       ??1?$shared_ptr@V?$basic_ostream@DV?$char_traits@D@_STL@@@_STL@@@boost@@QAE@XZ 00406699 f i Core:Console.obj
 0001:00005699       ??1?$shared_ptr@VEventProxy@Core@@@boost@@QAE@XZ 00406699 f i OidFX:GameApplication.obj
 0001:00005699       ??1?$shared_ptr@VConsoleCommand@Core@@@boost@@QAE@XZ 00406699 f i Core:Console.obj
 0001:00005699       ??1?$shared_ptr@VRendererCreator@Renderer@@@boost@@QAE@XZ 00406699 f i OidFX:GameApplication.obj
 0001:00005699       ??1?$shared_ptr@VIndexBufferManager@Renderer@@@boost@@QAE@XZ 00406699 f i DirectX9Renderer:DirectX9Renderer.obj
 0001:00005699       ??1?$shared_ptr@U?$grammar_helper@U?$grammar@VConsoleGrammar@@Uparser_context@spirit@boost@@@spirit@boost@@VConsoleGrammar@@V?$scanner@PBDU?$scanner_policies@Uiteration_policy@spirit@boost@@Umatch_policy@23@Uaction_policy@23@@spirit@boost@@@23@@impl@spirit@boost@@@boost@@QAE@XZ 00406699 f i Core:ConsoleCommandLineParser.obj
 0001:00005699       ??1?$shared_ptr@VVertexBuffer@Renderer@@@boost@@QAE@XZ 00406699 f i TerrainDemoApplication.obj
 0001:00005699       ??1?$shared_ptr@VProxyType@?$Event@VResizeEventHandler@Core@@VIResizable@2@@Core@@@boost@@QAE@XZ 00406699 f i Renderer:RendererWindow.obj
 0001:00005699       ??1?$shared_ptr@VIRenderer@Renderer@@@boost@@QAE@XZ 00406699 f i TerrainDemoApplication.obj
 0001:00005699       ??1?$shared_ptr@VOConsoleBuf@Console@Core@@@boost@@QAE@XZ 00406699 f i Core:Console.obj
 0001:00005699       ??1?$shared_ptr@VConsoleCursor@Core@@@boost@@QAE@XZ 00406699 f i Core:Console.obj
 0001:00005699       ??1?$shared_ptr@VConsoleOutputEvent@Core@@@boost@@QAE@XZ 00406699 f i Core:Console.obj
 0001:00005699       ??1?$shared_ptr@VRendererFactory@Renderer@@@boost@@QAE@XZ 00406699 f i TerrainDemoApplication.obj
 0001:00005699       ??1?$shared_ptr@VRendererWindow@Renderer@@@boost@@QAE@XZ 00406699 f i DirectX9Renderer:DirectX9Renderer.obj
 0001:00005699       ??1?$shared_ptr@VConsoleCommandManager@Core@@@boost@@QAE@XZ 00406699 f i Core:Console.obj
 0001:00005699       ??1?$shared_ptr@VProxyType@?$Event@VConsoleOutputEventHandler@Core@@VIConsoleOutputListener@2@@Core@@@boost@@QAE@XZ 00406699 f i Core:Console.obj
 0001:00005699       ??1?$shared_ptr@VConsoleVariableManager@Core@@@boost@@QAE@XZ 00406699 f i Core:Console.obj
 0001:00005699       ??1?$shared_ptr@U?$object_with_id_base_supply@K@impl@spirit@boost@@@boost@@QAE@XZ 00406699 f i Core:ConsoleCommandLineParser.obj
 0001:00005699       ??1?$shared_ptr@VConsoleCommandLine@Core@@@boost@@QAE@XZ 00406699 f i Core:Console.obj
 0001:00005699       ??1?$shared_ptr@VIIndexBufferCreator@Renderer@@@boost@@QAE@XZ 00406699 f i DirectX9Renderer:DirectX9Renderer.obj
 0001:000056ad       ??0ConsoleOutputEvent@Core@@QAE@XZ 004066ad f i Core:Console.obj
 0001:000056df       ??0IConsoleOutputListener@Core@@QAE@XZ 004066df f i Core:Console.obj
 0001:000056f4       ?OnConsoleTextOutput@ConsoleOutputEvent@Core@@UAEXPBD@Z 004066f4 f i Core:Console.obj
 0001:00005759       ??_G?$basic_ostream@DV?$char_traits@D@_STL@@@_STL@@UAEPAXI@Z 00406759 f i Core:Console.obj
 0001:00005759       ??_E?$basic_ostream@DV?$char_traits@D@_STL@@@_STL@@UAEPAXI@Z 00406759 f i Core:Console.obj
 0001:0000578d       ??_GConsoleOutputEvent@Core@@UAEPAXI@Z 0040678d f i Core:Console.obj
 0001:0000578d       ??_EConsoleOutputEvent@Core@@UAEPAXI@Z 0040678d f i Core:Console.obj
 0001:000057b6       ??1ConsoleOutputEvent@Core@@UAE@XZ 004067b6 f i Core:Console.obj
 0001:000057c7       ??1Console@Core@@UAE@XZ    004067c7 f   Core:Console.obj
 0001:000058f6       ?RedirectStandardIOToConsole@Console@Core@@QAEXXZ 004068f6 f   Core:Console.obj
 0001:000059be       ?RestoreStandardIO@Console@Core@@QAEXXZ 004069be f   Core:Console.obj
 0001:00005a24       ?Write@Console@Core@@QAEXPBDW4StreamID@2@@Z 00406a24 f   Core:Console.obj
 0001:00005aa7       ?AddOutputListener@Console@Core@@QAE?AVEventConnection@2@AAVIConsoleOutputListener@2@@Z 00406aa7 f   Core:Console.obj
 0001:00005ad0       ?ExecuteString@Console@Core@@QAE_NABV?$basic_string@DV?$char_traits@D@_STL@@V?$allocator@D@2@@_STL@@@Z 00406ad0 f   Core:Console.obj
 0001:00005edb       ??0any@boost@@QAE@ABV01@@Z 00406edb f i Core:Console.obj
 0001:00005f12       ?Set@ConsoleVariable@Core@@QAE_NABVany@boost@@@Z 00406f12 f i Core:Console.obj
 0001:000062a7       ??4any@boost@@QAEAAV01@ABV01@@Z 004072a7 f i Core:Console.obj
 0001:000062f7       ??8_Rb_tree_base_iterator@_STL@@QBE_NABU01@@Z 004072f7 f i Core:Console.obj
 0001:00006311       ?Succeeded@ConsoleCommandLineParser@Core@@QAE_NXZ 00407311 f i Core:Console.obj
 0001:0000631f       ?GetValue@ConsoleVariable@Core@@QBEABVany@boost@@XZ 0040731f f i Core:ConsoleVariableManager.obj
 0001:0000631f       ?Arguments@ConsoleCommandLineParser@Core@@QBEABV?$vector@Vany@boost@@V?$allocator@Vany@boost@@@_STL@@@_STL@@XZ 0040731f f i Core:Console.obj
 0001:0000632e       ?Out@Console@Core@@QAEAAV?$basic_ostream@DV?$char_traits@D@_STL@@@_STL@@XZ 0040732e f i Core:Console.obj
 0001:00006342       ?Err@Console@Core@@QAEAAV?$basic_ostream@DV?$char_traits@D@_STL@@@_STL@@XZ 00407342 f i Core:Console.obj
 0001:00006356       ??1ConsoleCommandLineParser@Core@@QAE@XZ 00407356 f i Core:Console.obj
 0001:0000638f       ??1?$Event@VConsoleOutputEventHandler@Core@@VIConsoleOutputListener@2@@Core@@UAE@XZ 0040738f f i Core:Console.obj
 0001:00006406       ?begin@?$map@IPAVConsoleCommand@Core@@U?$less@I@_STL@@V?$allocator@U?$pair@$$CBIPAVConsoleCommand@Core@@@_STL@@@4@@_STL@@QAE?AU?$_Rb_tree_iterator@U?$pair@$$CBIPAVConsoleCommand@Core@@@_STL@@U?$_Nonconst_traits@U?$pair@$$CBIPAVConsoleCommand@Core@@@_STL@@@2@@2@XZ 00407406 f i Core:Console.obj
 0001:00006406       ?begin@?$map@IV?$shared_ptr@VConsoleVariable@Core@@@boost@@U?$less@I@_STL@@V?$allocator@U?$pair@$$CBIV?$shared_ptr@VConsoleVariable@Core@@@boost@@@_STL@@@4@@_STL@@QAE?AU?$_Rb_tree_iterator@U?$pair@$$CBIV?$shared_ptr@VConsoleVariable@Core@@@boost@@@_STL@@U?$_Nonconst_traits@U?$pair@$$CBIV?$shared_ptr@VConsoleVariable@Core@@@boost@@@_STL@@@2@@2@XZ 00407406 f i Core:Console.obj
 0001:0000641f       ??C?$_Rb_tree_iterator@U?$pair@$$CBIV?$shared_ptr@VConsoleVariable@Core@@@boost@@@_STL@@U?$_Nonconst_traits@U?$pair@$$CBIV?$shared_ptr@VConsoleVariable@Core@@@boost@@@_STL@@@2@@_STL@@QBEPAU?$pair@$$CBIV?$shared_ptr@VConsoleVariable@Core@@@boost@@@1@XZ 0040741f f i Core:Console.obj
 0001:0000641f       ??C?$_Rb_tree_iterator@U?$pair@$$CBIPAVConsoleCommand@Core@@@_STL@@U?$_Nonconst_traits@U?$pair@$$CBIPAVConsoleCommand@Core@@@_STL@@@2@@_STL@@QBEPAU?$pair@$$CBIPAVConsoleCommand@Core@@@1@XZ 0040741f f i Core:Console.obj
 0001:0000641f       ??C?$_Rb_tree_iterator@U?$pair@$$CBIPAVConsoleCommand@Core@@@_STL@@U?$_Const_traits@U?$pair@$$CBIPAVConsoleCommand@Core@@@_STL@@@2@@_STL@@QBEPBU?$pair@$$CBIPAVConsoleCommand@Core@@@1@XZ 0040741f f i Core:Console.obj
 0001:0000641f       ??C?$_Rb_tree_iterator@U?$pair@$$CBIV?$shared_ptr@VConsoleVariable@Core@@@boost@@@_STL@@U?$_Const_traits@U?$pair@$$CBIV?$shared_ptr@VConsoleVariable@Core@@@boost@@@_STL@@@2@@_STL@@QBEPBU?$pair@$$CBIV?$shared_ptr@VConsoleVariable@Core@@@boost@@@1@XZ 0040741f f i Core:Console.obj
 0001:00006430       ?empty@?$vector@IV?$allocator@I@_STL@@@_STL@@QBE_NXZ 00407430 f i Core:Console.obj
 0001:00006430       ?empty@?$vector@Vany@boost@@V?$allocator@Vany@boost@@@_STL@@@_STL@@QBE_NXZ 00407430 f i Core:Console.obj
 0001:00006449       ??1?$vector@Vany@boost@@V?$allocator@Vany@boost@@@_STL@@@_STL@@QAE@XZ 00407449 f i Core:Console.obj
 0001:00006485       ??0?$Singleton@VConsole@Core@@@Core@@QAE@PAVConsole@1@@Z 00407485 f i Core:Console.obj
 0001:000064a4       ??1?$Singleton@VConsole@Core@@@Core@@UAE@XZ 004074a4 f i Core:Console.obj
 0001:000064bd       ??D?$shared_ptr@VIndexBufferManager@Renderer@@@boost@@QBEAAVIndexBufferManager@Renderer@@XZ 004074bd f i DirectX9Renderer:DirectX9Renderer.obj
 0001:000064bd       ??D?$shared_ptr@VIVertexBufferCreator@Renderer@@@boost@@QBEAAVIVertexBufferCreator@Renderer@@XZ 004074bd f i DirectX9Renderer:DirectX9Renderer.obj
 0001:000064bd       ??D?$shared_ptr@VConsoleCommandManager@Core@@@boost@@QBEAAVConsoleCommandManager@Core@@XZ 004074bd f i Core:Console.obj
 0001:000064bd       ??D?$shared_ptr@VConsoleOutputEventHandler@Core@@@boost@@QBEAAVConsoleOutputEventHandler@Core@@XZ 004074bd f i Core:Console.obj
 0001:000064bd       ??D?$shared_ptr@VConsoleVariableManager@Core@@@boost@@QBEAAVConsoleVariableManager@Core@@XZ 004074bd f i Core:ConsoleVariableHelpers.obj
 0001:000064bd       ??D?$shared_ptr@VIRenderer@Renderer@@@boost@@QBEAAVIRenderer@Renderer@@XZ 004074bd f i TerrainDemoApplication.obj
 0001:000064bd       ??D?$shared_ptr@VVertexBufferManager@Renderer@@@boost@@QBEAAVVertexBufferManager@Renderer@@XZ 004074bd f i DirectX9Renderer:DirectX9Renderer.obj
 0001:000064bd       ??D?$shared_ptr@V?$basic_ostream@DV?$char_traits@D@_STL@@@_STL@@@boost@@QBEAAV?$basic_ostream@DV?$char_traits@D@_STL@@@_STL@@XZ 004074bd f i Core:Console.obj
 0001:000064bd       ??D?$shared_ptr@VRendererWindow@Renderer@@@boost@@QBEAAVRendererWindow@Renderer@@XZ 004074bd f i DirectX9Renderer:DirectX9Renderer.obj
 0001:000064bd       ??D?$shared_ptr@VConsoleVariable@Core@@@boost@@QBEAAVConsoleVariable@Core@@XZ 004074bd f i Core:Console.obj
 0001:000064eb       ??C?$shared_ptr@VResizeEventHandler@Core@@@boost@@QBEPAVResizeEventHandler@Core@@XZ 004074eb f i Renderer:RendererWindow.obj
 0001:000064eb       ??C?$shared_ptr@U?$object_with_id_base_supply@K@impl@spirit@boost@@@boost@@QBEPAU?$object_with_id_base_supply@K@impl@spirit@1@XZ 004074eb f i Core:ConsoleCommandLineParser.obj
 0001:000064eb       ??C?$shared_ptr@VIRenderer@Renderer@@@boost@@QBEPAVIRenderer@Renderer@@XZ 004074eb f i OidFX:GameApplication.obj
 0001:000064eb       ??C?$shared_ptr@VGameApplication@OidFX@@@boost@@QBEPAVGameApplication@OidFX@@XZ 004074eb f i Main.obj
 0001:000064eb       ??C?$shared_ptr@VProxyType@?$Event@VConsoleOutputEventHandler@Core@@VIConsoleOutputListener@2@@Core@@@boost@@QBEPAVProxyType@?$Event@VConsoleOutputEventHandler@Core@@VIConsoleOutputListener@2@@Core@@XZ 004074eb f i Core:Console.obj
 0001:000064eb       ??C?$shared_ptr@VKeyboardEventHandler@Core@@@boost@@QBEPAVKeyboardEventHandler@Core@@XZ 004074eb f i Renderer:RendererWindow.obj
 0001:000064eb       ??C?$shared_ptr@VEventProxy@Core@@@boost@@QBEPAVEventProxy@Core@@XZ 004074eb f i OidFX:GameApplication.obj
 0001:000064eb       ??C?$shared_ptr@U?$grammar_helper@U?$grammar@VConsoleGrammar@@Uparser_context@spirit@boost@@@spirit@boost@@VConsoleGrammar@@V?$scanner@PBDU?$scanner_policies@Uiteration_policy@spirit@boost@@Umatch_policy@23@Uaction_policy@23@@spirit@boost@@@23@@impl@spirit@boost@@@boost@@QBEPAU?$grammar_helper@U?$grammar@VConsoleGrammar@@Uparser_context@spirit@boost@@@spirit@boost@@VConsoleGrammar@@V?$scanner@PBDU?$scanner_policies@Uiteration_policy@spirit@boost@@Umatch_policy@23@Uaction_policy@23@@spirit@boost@@@23@@impl@spirit@1@XZ 004074eb f i Core:ConsoleCommandLineParser.obj
 0001:000064eb       ??C?$shared_ptr@VConsoleVariable@Core@@@boost@@QBEPAVConsoleVariable@Core@@XZ 004074eb f i OidFX:GameApplication.obj
 0001:000064eb       ??C?$shared_ptr@VConsoleOutputEvent@Core@@@boost@@QBEPAVConsoleOutputEvent@Core@@XZ 004074eb f i Core:Console.obj
 0001:000064eb       ??C?$shared_ptr@VRendererFactory@Renderer@@@boost@@QBEPAVRendererFactory@Renderer@@XZ 004074eb f i OidFX:GameApplication.obj
 0001:000064eb       ??C?$shared_ptr@VConsoleBuffer@Core@@@boost@@QBEPAVConsoleBuffer@Core@@XZ 004074eb f i Core:Console.obj
 0001:000064eb       ??C?$shared_ptr@VProxyType@?$Event@VResizeEventHandler@Core@@VIResizable@2@@Core@@@boost@@QBEPAVProxyType@?$Event@VResizeEventHandler@Core@@VIResizable@2@@Core@@XZ 004074eb f i Renderer:RendererWindow.obj
 0001:000064eb       ??C?$shared_ptr@VVertexBuffer@Renderer@@@boost@@QBEPAVVertexBuffer@Renderer@@XZ 004074eb f i TerrainDemoApplication.obj
 0001:000064eb       ??C?$shared_ptr@VRendererCreator@Renderer@@@boost@@QBEPAVRendererCreator@Renderer@@XZ 004074eb f i Renderer:RendererFactory.obj
 0001:000064eb       ??C?$shared_ptr@VConsoleOutputEventHandler@Core@@@boost@@QBEPAVConsoleOutputEventHandler@Core@@XZ 004074eb f i Core:Console.obj
 0001:000064eb       ??C?$shared_ptr@VConsole@Core@@@boost@@QBEPAVConsole@Core@@XZ 004074eb f i OidFX:GameApplication.obj
 0001:000064eb       ??C?$shared_ptr@VProxyType@?$Event@VKeyboardEventHandler@Core@@VIKeyboardSensitive@2@@Core@@@boost@@QBEPAVProxyType@?$Event@VKeyboardEventHandler@Core@@VIKeyboardSensitive@2@@Core@@XZ 004074eb f i Renderer:RendererWindow.obj
 0001:000064eb       ??C?$shared_ptr@VRendererWindow@Renderer@@@boost@@QBEPAVRendererWindow@Renderer@@XZ 004074eb f i DirectX9Renderer:DirectX9Renderer.obj
 0001:000064eb       ??C?$shared_ptr@V?$basic_ostream@DV?$char_traits@D@_STL@@@_STL@@@boost@@QBEPAV?$basic_ostream@DV?$char_traits@D@_STL@@@_STL@@XZ 004074eb f i Core:Console.obj
 0001:00006519       ??_E?$Event@VConsoleOutputEventHandler@Core@@VIConsoleOutputListener@2@@Core@@UAEPAXI@Z 00407519 f i Core:Console.obj
 0001:00006519       ??_G?$Event@VConsoleOutputEventHandler@Core@@VIConsoleOutputListener@2@@Core@@UAEPAXI@Z 00407519 f i Core:Console.obj
 0001:00006542       ??_G?$Singleton@VConsole@Core@@@Core@@UAEPAXI@Z 00407542 f i Core:Console.obj
 0001:00006542       ??_E?$Singleton@VConsole@Core@@@Core@@UAEPAXI@Z 00407542 f i Core:Console.obj
 0001:0000656b       ??1?$vector@IV?$allocator@I@_STL@@@_STL@@QAE@XZ 0040756b f i Core:Console.obj
 0001:000065a7       ??1?$vector@V?$shared_ptr@VConsoleOutputEventHandler@Core@@@boost@@V?$allocator@V?$shared_ptr@VConsoleOutputEventHandler@Core@@@boost@@@_STL@@@_STL@@QAE@XZ 004075a7 f i Core:Console.obj
 0001:000065e3       ??1?$vector@V?$shared_ptr@VProxyType@?$Event@VConsoleOutputEventHandler@Core@@VIConsoleOutputListener@2@@Core@@@boost@@V?$allocator@V?$shared_ptr@VProxyType@?$Event@VConsoleOutputEventHandler@Core@@VIConsoleOutputListener@2@@Core@@@boost@@@_STL@@@_STL@@QAE@XZ 004075e3 f i Core:Console.obj
 0001:0000661f       ??1?$_Vector_base@IV?$allocator@I@_STL@@@_STL@@QAE@XZ 0040761f f i Core:Console.obj
 0001:0000661f       ??1?$_Vector_base@Vany@boost@@V?$allocator@Vany@boost@@@_STL@@@_STL@@QAE@XZ 0040761f f i Core:Console.obj
 0001:00006673       ??1?$_Vector_base@V?$shared_ptr@VProxyType@?$Event@VConsoleOutputEventHandler@Core@@VIConsoleOutputListener@2@@Core@@@boost@@V?$allocator@V?$shared_ptr@VProxyType@?$Event@VConsoleOutputEventHandler@Core@@VIConsoleOutputListener@2@@Core@@@boost@@@_STL@@@_STL@@QAE@XZ 00407673 f i Core:Console.obj
 0001:00006673       ??1?$_Vector_base@V?$shared_ptr@VConsoleOutputEventHandler@Core@@@boost@@V?$allocator@V?$shared_ptr@VConsoleOutputEventHandler@Core@@@boost@@@_STL@@@_STL@@QAE@XZ 00407673 f i Core:Console.obj
 0001:000066c7       ??1?$allocator@PAU?$definition@V?$scanner@PBDU?$scanner_policies@Uiteration_policy@spirit@boost@@Umatch_policy@23@Uaction_policy@23@@spirit@boost@@@spirit@boost@@@ConsoleGrammar@@@_STL@@QAE@XZ 004076c7 f i Core:ConsoleCommandLineParser.obj
 0001:000066c7       ??1?$allocator@U?$pair@$$CBJV?$basic_string@DV?$char_traits@D@_STL@@V?$allocator@D@2@@_STL@@@_STL@@@_STL@@QAE@XZ 004076c7 f i DirectX9Renderer:ErrorCodes.obj
 0001:000066c7       ?InitialiseScriptingSystem@GameApplication@OidFX@@MAEXXZ 004076c7 f i OidFX:GameApplication.obj
 0001:000066c7       ?Unload@DirectXVertexBuffer@DirectX9Renderer@@UAEXXZ 004076c7 f i DirectX9Renderer:DirectXVertexBuffer.obj
 0001:000066c7       ??1?$allocator@V?$shared_ptr@VKeyboardEventHandler@Core@@@boost@@@_STL@@QAE@XZ 004076c7 f i Renderer:RendererWindow.obj
 0001:000066c7       ??1?$allocator@U?$_Rb_tree_node@U?$pair@$$CBIPAVConsoleCommand@Core@@@_STL@@@_STL@@@_STL@@QAE@XZ 004076c7 f i Core:Console.obj
 0001:000066c7       ??1?$allocator@V?$basic_string@DV?$char_traits@D@_STL@@V?$allocator@D@2@@_STL@@@_STL@@QAE@XZ 004076c7 f i Main.obj
 0001:000066c7       ??1?$allocator@VDisplayMode@Renderer@@@_STL@@QAE@XZ 004076c7 f i DirectX9Renderer:DirectX9Renderer.obj
 0001:000066c7       ??1?$allocator@Vany@boost@@@_STL@@QAE@XZ 004076c7 f i Core:Console.obj
 0001:000066c7       ??1?$allocator@U?$_Rb_tree_node@U?$pair@$$CBIV?$shared_ptr@VConsoleVariable@Core@@@boost@@@_STL@@@_STL@@@_STL@@QAE@XZ 004076c7 f i Core:Console.obj
 0001:000066c7       ??1?$allocator@U?$_Rb_tree_node@U?$pair@$$CBIV?$shared_ptr@VRendererCreator@Renderer@@@boost@@@_STL@@@_STL@@@_STL@@QAE@XZ 004076c7 f i OidFX:GameApplication.obj
 0001:000066c7       ?ShutDown@GameApplication@OidFX@@IAEXXZ 004076c7 f i OidFX:GameApplication.obj
 0001:000066c7       ??1?$allocator@PAU?$grammar_helper_base@U?$grammar@VConsoleGrammar@@Uparser_context@spirit@boost@@@spirit@boost@@@impl@spirit@boost@@@_STL@@QAE@XZ 004076c7 f i Core:ConsoleCommandLineParser.obj
 0001:000066c7       ??1?$allocator@V?$shared_ptr@VConsoleOutputEventHandler@Core@@@boost@@@_STL@@QAE@XZ 004076c7 f i Core:Console.obj
 0001:000066c7       ??1?$allocator@U?$_Rb_tree_node@U?$pair@$$CBW4_D3DFORMAT@@V?$basic_string@DV?$char_traits@D@_STL@@V?$allocator@D@2@@_STL@@@_STL@@@_STL@@@_STL@@QAE@XZ 004076c7 f i DirectX9Renderer:Formats.obj
 0001:000066c7       ??1noncopyable@noncopyable_@boost@@IAE@XZ 004076c7 f i Core:Console.obj
 0001:000066c7       ?nonnull@dummy@impl@spirit@boost@@QAEXXZ 004076c7 f i Core:ConsoleCommandLineParser.obj
 0001:000066c7       ?Restore@VertexBufferManager@Renderer@@UAEXXZ 004076c7 f i Renderer:VertexBufferManager.obj
 0001:000066c7       ??1?$allocator@U?$_Rb_tree_node@U?$pair@$$CBJV?$basic_string@DV?$char_traits@D@_STL@@V?$allocator@D@2@@_STL@@@_STL@@@_STL@@@_STL@@QAE@XZ 004076c7 f i DirectX9Renderer:ErrorCodes.obj
 0001:000066c7       ??1?$allocator@K@_STL@@QAE@XZ 004076c7 f i Core:ConsoleCommandLineParser.obj
 0001:000066c7       ??1?$allocator@U?$pair@$$CBIV?$shared_ptr@VRendererCreator@Renderer@@@boost@@@_STL@@@_STL@@QAE@XZ 004076c7 f i Renderer:RendererFactory.obj
 0001:000066c7       ??1?$allocator@I@_STL@@QAE@XZ 004076c7 f i Core:Console.obj
 0001:000066c7       ?PreShutDown@GameApplication@OidFX@@MAEXXZ 004076c7 f i OidFX:GameApplication.obj
 0001:000066c7       ??1?$allocator@V?$shared_ptr@VProxyType@?$Event@VConsoleOutputEventHandler@Core@@VIConsoleOutputListener@2@@Core@@@boost@@@_STL@@QAE@XZ 004076c7 f i Core:Console.obj
 0001:000066c7       ??1?$allocator@PAI@_STL@@QAE@XZ 004076c7 f i DirectX9Renderer:DirectX9Renderer.obj
 0001:000066c7       ?PostInitialise@GameApplication@OidFX@@MAEXXZ 004076c7 f i OidFX:GameApplication.obj
 0001:000066c7       ??1?$allocator@V?$shared_ptr@VProxyType@?$Event@VResizeEventHandler@Core@@VIResizable@2@@Core@@@boost@@@_STL@@QAE@XZ 004076c7 f i Renderer:RendererWindow.obj
 0001:000066c7       ??1?$allocator@U?$pair@$$CBW4_D3DFORMAT@@V?$basic_string@DV?$char_traits@D@_STL@@V?$allocator@D@2@@_STL@@@_STL@@@_STL@@QAE@XZ 004076c7 f i DirectX9Renderer:Formats.obj
 0001:000066c7       ?PostInitialise@TerrainDemoApplication@TerrainDemo@@UAEXXZ 004076c7 f i TerrainDemoApplication.obj
 0001:000066c7       ??1?$allocator@U?$pair@$$CBIPAVConsoleCommand@Core@@@_STL@@@_STL@@QAE@XZ 004076c7 f i Core:ConsoleCommandManager.obj
 0001:000066c7       ??1?$allocator@U?$pair@$$CBIV?$shared_ptr@VConsoleVariable@Core@@@boost@@@_STL@@@_STL@@QAE@XZ 004076c7 f i Core:ConsoleVariableManager.obj
 0001:000066c7       ??1?$allocator@V?$shared_ptr@VProxyType@?$Event@VKeyboardEventHandler@Core@@VIKeyboardSensitive@2@@Core@@@boost@@@_STL@@QAE@XZ 004076c7 f i Renderer:RendererWindow.obj
 0001:000066c7       ??1?$allocator@V?$shared_ptr@VResizeEventHandler@Core@@@boost@@@_STL@@QAE@XZ 004076c7 f i Renderer:RendererWindow.obj
 0001:000066c7       ??1?$allocator@V?$shared_ptr@VVertexBuffer@Renderer@@@boost@@@_STL@@QAE@XZ 004076c7 f i DirectX9Renderer:DirectX9Renderer.obj
 0001:000066d0       ??0?$Event@VConsoleOutputEventHandler@Core@@VIConsoleOutputListener@2@@Core@@QAE@XZ 004076d0 f i Core:Console.obj
 0001:00006798       ?Connect@?$Event@VConsoleOutputEventHandler@Core@@VIConsoleOutputListener@2@@Core@@QAE?AVEventConnection@2@AAVIConsoleOutputListener@2@@Z 00407798 f i Core:Console.obj
 0001:00006ba3       ??0EventConnection@Core@@QAE@V?$shared_ptr@VEventProxy@Core@@@boost@@I@Z 00407ba3 f i Core:Console.obj
 0001:00006be9       ??0?$shared_ptr@VConsoleVariable@Core@@@boost@@QAE@ABV01@@Z 00407be9 f i Core:ConsoleVariableManager.obj
 0001:00006be9       ??0?$shared_ptr@VRendererCreator@Renderer@@@boost@@QAE@ABV01@@Z 00407be9 f i OidFX:GameApplication.obj
 0001:00006be9       ??0?$shared_ptr@VConsoleOutputEventHandler@Core@@@boost@@QAE@ABV01@@Z 00407be9 f i Core:Console.obj
 0001:00006be9       ??0?$shared_ptr@VEventProxy@Core@@@boost@@QAE@ABV?$shared_ptr@VProxyType@?$Event@VConsoleOutputEventHandler@Core@@VIConsoleOutputListener@2@@Core@@@1@@Z 00407be9 f i Core:Console.obj
 0001:00006be9       ??0?$shared_ptr@VVertexBuffer@Renderer@@@boost@@QAE@ABV01@@Z 00407be9 f i DirectX9Renderer:DirectX9Renderer.obj
 0001:00006be9       ??0?$shared_ptr@VProxyType@?$Event@VConsoleOutputEventHandler@Core@@VIConsoleOutputListener@2@@Core@@@boost@@QAE@ABV01@@Z 00407be9 f i Core:Console.obj
 0001:00006be9       ??0?$shared_ptr@VEventProxy@Core@@@boost@@QAE@ABV01@@Z 00407be9 f i Core:Console.obj
 0001:00006c13       ??0ConsoleOutputEventHandler@Core@@QAE@AAVIConsoleOutputListener@1@@Z 00407c13 f i Core:Console.obj
 0001:00006c4a       ?OnConsoleTextOutput@ConsoleOutputEventHandler@Core@@UAEXPBD@Z 00407c4a f i Core:Console.obj
 0001:00006c71       ??_EConsoleOutputEventHandler@Core@@UAEPAXI@Z 00407c71 f i Core:Console.obj
 0001:00006c71       ??_GConsoleOutputEventHandler@Core@@UAEPAXI@Z 00407c71 f i Core:Console.obj
 0001:00006c9a       ??1ConsoleOutputEventHandler@Core@@UAE@XZ 00407c9a f i Core:Console.obj
 0001:00006cab       ??0?$EventHandler@VIConsoleOutputListener@Core@@@Core@@QAE@AAVIConsoleOutputListener@1@@Z 00407cab f i Core:Console.obj
 0001:00006cd5       ??1?$EventHandler@VIConsoleOutputListener@Core@@@Core@@UAE@XZ 00407cd5 f i Core:Console.obj
 0001:00006ce7       ??_G?$EventHandler@VIConsoleOutputListener@Core@@@Core@@UAEPAXI@Z 00407ce7 f i Core:Console.obj
 0001:00006ce7       ??_E?$EventHandler@VIConsoleOutputListener@Core@@@Core@@UAEPAXI@Z 00407ce7 f i Core:Console.obj
 0001:00006d10       ?DisconnectAll@?$Event@VConsoleOutputEventHandler@Core@@VIConsoleOutputListener@2@@Core@@QAEXXZ 00407d10 f i Core:Console.obj
 0001:00006dfd       ?any_cast@?$@H@boost@@YAHABVany@1@@Z 00407dfd f i Core:Console.obj
 0001:00006e57       ?any_cast@?$@M@boost@@YAMABVany@1@@Z 00407e57 f i Core:Console.obj
 0001:00006eb1       ??4any@boost@@QAEAAV01@ABH@Z 00407eb1 f i Core:Console.obj
 0001:00006f01       ??4any@boost@@QAEAAV01@ABM@Z 00407f01 f i Core:Console.obj
 0001:00006f51       ?getline@_STL@@YAAAV?$basic_istream@DV?$char_traits@D@_STL@@@1@AAV21@AAV?$basic_string@DV?$char_traits@D@_STL@@V?$allocator@D@2@@1@@Z 00407f51 f i Core:Console.obj
 0001:00006f78       ??0?$shared_ptr@VConsoleVariableManager@Core@@@boost@@QAE@PAVConsoleVariableManager@Core@@@Z 00407f78 f i Core:Console.obj
 0001:00006fce       ??0?$shared_ptr@VConsoleCommandManager@Core@@@boost@@QAE@PAVConsoleCommandManager@Core@@@Z 00407fce f i Core:Console.obj
 0001:00007024       ??0?$shared_ptr@VConsoleBuffer@Core@@@boost@@QAE@PAVConsoleBuffer@Core@@@Z 00408024 f i Core:Console.obj
 0001:0000707a       ??0?$shared_ptr@VConsoleCommandLine@Core@@@boost@@QAE@PAVConsoleCommandLine@Core@@@Z 0040807a f i Core:Console.obj
 0001:000070d0       ??0?$shared_ptr@VConsoleOutputEvent@Core@@@boost@@QAE@PAVConsoleOutputEvent@Core@@@Z 004080d0 f i Core:Console.obj
 0001:00007126       ??0?$shared_ptr@VOConsoleBuf@Console@Core@@@boost@@QAE@PAVOConsoleBuf@Console@Core@@@Z 00408126 f i Core:Console.obj
 0001:0000717c       ??0?$shared_ptr@V?$basic_ostream@DV?$char_traits@D@_STL@@@_STL@@@boost@@QAE@PAV?$basic_ostream@DV?$char_traits@D@_STL@@@_STL@@@Z 0040817c f i Core:Console.obj
 0001:000071d2       ??0?$shared_ptr@VConsoleCommand@Core@@@boost@@QAE@PAVCmdList@ConsoleCommands@@@Z 004081d2 f i Core:Console.obj
 0001:00007228       ??0?$shared_ptr@VConsoleCommand@Core@@@boost@@QAE@PAVCvarList@ConsoleCommands@@@Z 00408228 f i Core:Console.obj
 0001:0000727e       ??0?$shared_ptr@VConsoleCommand@Core@@@boost@@QAE@PAVExec@ConsoleCommands@@@Z 0040827e f i Core:Console.obj
 0001:000072d4       ?_Destroy@_STL@@YAXPAVany@boost@@0@Z 004082d4 f i Core:Console.obj
 0001:000072f1       ?_Destroy@_STL@@YAXPAV?$shared_ptr@VKeyboardEventHandler@Core@@@boost@@0@Z 004082f1 f i Renderer:RendererWindow.obj
 0001:000072f1       ?_Destroy@_STL@@YAXPAV?$shared_ptr@VConsoleOutputEventHandler@Core@@@boost@@0@Z 004082f1 f i Core:Console.obj
 0001:000072f1       ?_Destroy@_STL@@YAXPAV?$shared_ptr@VVertexBuffer@Renderer@@@boost@@0@Z 004082f1 f i DirectX9Renderer:DirectX9Renderer.obj
 0001:000072f1       ?_Destroy@_STL@@YAXPAV?$shared_ptr@VProxyType@?$Event@VKeyboardEventHandler@Core@@VIKeyboardSensitive@2@@Core@@@boost@@0@Z 004082f1 f i Renderer:RendererWindow.obj
 0001:000072f1       ?_Destroy@_STL@@YAXPAV?$shared_ptr@VProxyType@?$Event@VResizeEventHandler@Core@@VIResizable@2@@Core@@@boost@@0@Z 004082f1 f i Renderer:RendererWindow.obj
 0001:000072f1       ?_Destroy@_STL@@YAXPAV?$shared_ptr@VProxyType@?$Event@VConsoleOutputEventHandler@Core@@VIConsoleOutputListener@2@@Core@@@boost@@0@Z 004082f1 f i Core:Console.obj
 0001:000072f1       ?_Destroy@_STL@@YAXPAV?$shared_ptr@VResizeEventHandler@Core@@@boost@@0@Z 004082f1 f i Renderer:RendererWindow.obj
 0001:0000730e       ?back@?$vector@IV?$allocator@I@_STL@@@_STL@@QAEAAIXZ 0040830e f i Core:Console.obj
 0001:00007322       ??8?$EventHandler@VIConsoleOutputListener@Core@@@Core@@QAE_NAAVIConsoleOutputListener@1@@Z 00408322 f i Core:Console.obj
 0001:0000733b       ?SetReferenceCount@?$EventHandler@VIConsoleOutputListener@Core@@@Core@@QAEII@Z 0040833b f i Core:Console.obj
 0001:00007352       ??0ProxyType@?$Event@VConsoleOutputEventHandler@Core@@VIConsoleOutputListener@2@@Core@@QAE@AAV12@@Z 00408352 f i Core:Console.obj
 0001:0000739e       ??0EventProxy@Core@@QAE@XZ 0040839e f i Core:Console.obj
 0001:000073b3       ??1EventProxy@Core@@UAE@XZ 004083b3 f i Core:Console.obj
 0001:000073c5       ??_EEventProxy@Core@@UAEPAXI@Z 004083c5 f i Core:Console.obj
 0001:000073c5       ??_GEventProxy@Core@@UAEPAXI@Z 004083c5 f i Core:Console.obj
 0001:000073ee       ??0EventConnection@Core@@QAE@XZ 004083ee f i Core:Console.obj
 0001:0000740b       ?IsConnected@ProxyType@?$Event@VConsoleOutputEventHandler@Core@@VIConsoleOutputListener@2@@Core@@UBE_NXZ 0040840b f i Core:Console.obj
 0001:00007422       ?Disconnect@ProxyType@?$Event@VConsoleOutputEventHandler@Core@@VIConsoleOutputListener@2@@Core@@UAEXXZ 00408422 f i Core:Console.obj
 0001:00007456       ?ReferenceCount@ProxyType@?$Event@VConsoleOutputEventHandler@Core@@VIConsoleOutputListener@2@@Core@@UBEIXZ 00408456 f i Core:Console.obj
 0001:000074a6       ?IncrementReferenceCount@ProxyType@?$Event@VConsoleOutputEventHandler@Core@@VIConsoleOutputListener@2@@Core@@UAEIXZ 004084a6 f i Core:Console.obj
 0001:00007514       ?DecrementReferenceCount@ProxyType@?$Event@VConsoleOutputEventHandler@Core@@VIConsoleOutputListener@2@@Core@@UAEIXZ 00408514 f i Core:Console.obj
 0001:00007585       ??_GProxyType@?$Event@VConsoleOutputEventHandler@Core@@VIConsoleOutputListener@2@@Core@@UAEPAXI@Z 00408585 f i Core:Console.obj
 0001:00007585       ??_EProxyType@?$Event@VConsoleOutputEventHandler@Core@@VIConsoleOutputListener@2@@Core@@UAEPAXI@Z 00408585 f i Core:Console.obj
 0001:000075ae       ??1ProxyType@?$Event@VConsoleOutputEventHandler@Core@@VIConsoleOutputListener@2@@Core@@UAE@XZ 004085ae f i Core:Console.obj
 0001:000075fb       ?Disconnect@?$Event@VConsoleOutputEventHandler@Core@@VIConsoleOutputListener@2@@Core@@QAEXABVEventConnection@2@@Z 004085fb f i Core:Console.obj
 0001:00007727       ?IsConnected@EventConnection@Core@@QBE_NXZ 00408727 f i Core:Console.obj
 0001:00007767       ?ReferenceCount@?$Event@VConsoleOutputEventHandler@Core@@VIConsoleOutputListener@2@@Core@@QBEIABVEventConnection@2@@Z 00408767 f i Core:Console.obj
 0001:000077ff       ?IncrementReferenceCount@?$Event@VConsoleOutputEventHandler@Core@@VIConsoleOutputListener@2@@Core@@QAEIABVEventConnection@2@@Z 004087ff f i Core:Console.obj
 0001:00007897       ?DecrementReferenceCount@?$Event@VConsoleOutputEventHandler@Core@@VIConsoleOutputListener@2@@Core@@QAEIABVEventConnection@2@@Z 00408897 f i Core:Console.obj
 0001:0000792f       ?push_back@?$vector@PAU?$grammar_helper_base@U?$grammar@VConsoleGrammar@@Uparser_context@spirit@boost@@@spirit@boost@@@impl@spirit@boost@@V?$allocator@PAU?$grammar_helper_base@U?$grammar@VConsoleGrammar@@Uparser_context@spirit@boost@@@spirit@boost@@@impl@spirit@boost@@@_STL@@@_STL@@QAEXABQAU?$grammar_helper_base@U?$grammar@VConsoleGrammar@@Uparser_context@spirit@boost@@@spirit@boost@@@impl@spirit@boost@@@Z 0040892f f i Core:ConsoleCommandLineParser.obj
 0001:0000792f       ?push_back@?$vector@IV?$allocator@I@_STL@@@_STL@@QAEXABI@Z 0040892f f i Core:Console.obj
 0001:0000792f       ?push_back@?$vector@KV?$allocator@K@_STL@@@_STL@@QAEXABK@Z 0040892f f i Core:ConsoleCommandLineParser.obj
 0001:00007983       ?get_object_id@?$object_with_id@Ugrammar_tag@impl@spirit@boost@@K@impl@spirit@boost@@QBEKXZ 00408983 f i Core:ConsoleCommandLineParser.obj
 0001:00007983       ?ReferenceCount@?$EventHandler@VIConsoleOutputListener@Core@@@Core@@QBEIXZ 00408983 f i Core:Console.obj
 0001:00007983       ?Height@DisplayMode@Renderer@@QBEIXZ 00408983 f i DirectX9Renderer:DirectX9Renderer.obj
 0001:00007992       ?IncrementReferenceCount@?$EventHandler@VIConsoleOutputListener@Core@@@Core@@QAEIXZ 00408992 f i Core:Console.obj
 0001:000079ae       ?DecrementReferenceCount@?$EventHandler@VIConsoleOutputListener@Core@@@Core@@QAEIXZ 004089ae f i Core:Console.obj
 0001:000079ca       ?SetConnection@ProxyType@?$Event@VConsoleOutputEventHandler@Core@@VIConsoleOutputListener@2@@Core@@QAEXAAVEventConnection@3@@Z 004089ca f i Core:Console.obj
 0001:000079e3       ??4EventConnection@Core@@QAEXAAV01@@Z 004089e3 f i Core:Console.obj
 0001:00007a34       ?Connection@ProxyType@?$Event@VConsoleOutputEventHandler@Core@@VIConsoleOutputListener@2@@Core@@QBE?AVEventConnection@3@XZ 00408a34 f i Core:Console.obj
 0001:00007a5f       ??0EventConnection@Core@@QAE@ABV01@@Z 00408a5f f i Core:Console.obj
 0001:00007acc       ?push_back@?$vector@V?$shared_ptr@VConsoleOutputEventHandler@Core@@@boost@@V?$allocator@V?$shared_ptr@VConsoleOutputEventHandler@Core@@@boost@@@_STL@@@_STL@@QAEXABV?$shared_ptr@VConsoleOutputEventHandler@Core@@@boost@@@Z 00408acc f i Core:Console.obj
 0001:00007b20       ?get@?$non_empty_subject@ABV?$rule@V?$scanner@PBDU?$scanner_policies@Uiteration_policy@spirit@boost@@Umatch_policy@23@Uaction_policy@23@@spirit@boost@@@spirit@boost@@Uparser_context@23@Uparser_address_tag@23@@spirit@boost@@U?$right_subject@ABV?$rule@V?$scanner@PBDU?$scanner_policies@Uiteration_policy@spirit@boost@@Umatch_policy@23@Uaction_policy@23@@spirit@boost@@@spirit@boost@@Uparser_context@23@Uparser_address_tag@23@@spirit@boost@@U?$parser@U?$alternative@V?$rule@V?$scanner@PBDU?$scanner_policies@Uiteration_policy@spirit@boost@@Umatch_policy@23@Uaction_policy@23@@spirit@boost@@@spirit@boost@@Uparser_context@23@Uparser_address_tag@23@@spirit@boost@@V123@@spirit@boost@@@23@@impl@23@@impl@spirit@boost@@QBEABV?$rule@V?$scanner@PBDU?$scanner_policies@Uiteration_policy@spirit@boost@@Umatch_policy@23@Uaction_policy@23@@spirit@boost@@@spirit@boost@@Uparser_context@23@Uparser_address_tag@23@@34@XZ 00408b20 f i Core:ConsoleCommandLineParser.obj
 0001:00007b20       ?TypeID@RendererCreator@Renderer@@QBEIXZ 00408b20 f i OidFX:GameApplication.obj
 0001:00007b20       ?ReferenceCount@Resource@Core@@QBEIXZ 00408b20 f i TerrainDemoApplication.obj
 0001:00007b20       ?GetReciever@?$EventHandler@VIConsoleOutputListener@Core@@@Core@@IBEAAVIConsoleOutputListener@2@XZ 00408b20 f i Core:Console.obj
 0001:00007b20       ?end@?$vector@V?$shared_ptr@VProxyType@?$Event@VResizeEventHandler@Core@@VIResizable@2@@Core@@@boost@@V?$allocator@V?$shared_ptr@VProxyType@?$Event@VResizeEventHandler@Core@@VIResizable@2@@Core@@@boost@@@_STL@@@_STL@@QAEPAV?$shared_ptr@VProxyType@?$Event@VResizeEventHandler@Core@@VIResizable@2@@Core@@@boost@@XZ 00408b20 f i Renderer:RendererWindow.obj
 0001:00007b20       ?end@?$vector@IV?$allocator@I@_STL@@@_STL@@QAEPAIXZ 00408b20 f i Core:Console.obj
 0001:00007b20       ?end@?$vector@PAU?$grammar_helper_base@U?$grammar@VConsoleGrammar@@Uparser_context@spirit@boost@@@spirit@boost@@@impl@spirit@boost@@V?$allocator@PAU?$grammar_helper_base@U?$grammar@VConsoleGrammar@@Uparser_context@spirit@boost@@@spirit@boost@@@impl@spirit@boost@@@_STL@@@_STL@@QAEPAPAU?$grammar_helper_base@U?$grammar@VConsoleGrammar@@Uparser_context@spirit@boost@@@spirit@boost@@@impl@spirit@boost@@XZ 00408b20 f i Core:ConsoleCommandLineParser.obj
 0001:00007b20       ?end@?$vector@V?$shared_ptr@VResizeEventHandler@Core@@@boost@@V?$allocator@V?$shared_ptr@VResizeEventHandler@Core@@@boost@@@_STL@@@_STL@@QAEPAV?$shared_ptr@VResizeEventHandler@Core@@@boost@@XZ 00408b20 f i Renderer:RendererWindow.obj
 0001:00007b20       ?size@?$_Rb_tree@IU?$pair@$$CBIV?$shared_ptr@VConsoleVariable@Core@@@boost@@@_STL@@U?$_Select1st@U?$pair@$$CBIV?$shared_ptr@VConsoleVariable@Core@@@boost@@@_STL@@@2@U?$less@I@2@V?$allocator@U?$pair@$$CBIV?$shared_ptr@VConsoleVariable@Core@@@boost@@@_STL@@@2@@_STL@@QBEIXZ 00408b20 f i Core:ConsoleVariableManager.obj
 0001:00007b20       ?Width@DisplayMode@Renderer@@QBEIXZ 00408b20 f i DirectX9Renderer:DirectX9Renderer.obj
 0001:00007b20       ?WindowHandle@RendererWindow@Renderer@@QBEPAUHWND__@@XZ 00408b20 f i DirectX9Renderer:DirectX9Renderer.obj
 0001:00007b20       ?size@?$_Rb_tree@W4_D3DFORMAT@@U?$pair@$$CBW4_D3DFORMAT@@V?$basic_string@DV?$char_traits@D@_STL@@V?$allocator@D@2@@_STL@@@_STL@@U?$_Select1st@U?$pair@$$CBW4_D3DFORMAT@@V?$basic_string@DV?$char_traits@D@_STL@@V?$allocator@D@2@@_STL@@@_STL@@@3@U?$less@W4_D3DFORMAT@@@3@V?$allocator@U?$pair@$$CBW4_D3DFORMAT@@V?$basic_string@DV?$char_traits@D@_STL@@V?$allocator@D@2@@_STL@@@_STL@@@3@@_STL@@QBEIXZ 00408b20 f i DirectX9Renderer:Formats.obj
 0001:00007b20       ?GetLockPointer@?$ScopedBufferLock@VVertexBuffer@Renderer@@@Renderer@@QAEPAXXZ 00408b20 f i TerrainDemoApplication.obj
 0001:00007b20       ?size@?$_Rb_tree@IU?$pair@$$CBIPAVConsoleCommand@Core@@@_STL@@U?$_Select1st@U?$pair@$$CBIPAVConsoleCommand@Core@@@_STL@@@2@U?$less@I@2@V?$allocator@U?$pair@$$CBIPAVConsoleCommand@Core@@@_STL@@@2@@_STL@@QBEIXZ 00408b20 f i Core:ConsoleCommandManager.obj
 0001:00007b20       ?end@?$vector@V?$shared_ptr@VProxyType@?$Event@VKeyboardEventHandler@Core@@VIKeyboardSensitive@2@@Core@@@boost@@V?$allocator@V?$shared_ptr@VProxyType@?$Event@VKeyboardEventHandler@Core@@VIKeyboardSensitive@2@@Core@@@boost@@@_STL@@@_STL@@QAEPAV?$shared_ptr@VProxyType@?$Event@VKeyboardEventHandler@Core@@VIKeyboardSensitive@2@@Core@@@boost@@XZ 00408b20 f i Renderer:RendererWindow.obj
 0001:00007b20       ?size@?$_Rb_tree@JU?$pair@$$CBJV?$basic_string@DV?$char_traits@D@_STL@@V?$allocator@D@2@@_STL@@@_STL@@U?$_Select1st@U?$pair@$$CBJV?$basic_string@DV?$char_traits@D@_STL@@V?$allocator@D@2@@_STL@@@_STL@@@2@U?$less@J@2@V?$allocator@U?$pair@$$CBJV?$basic_string@DV?$char_traits@D@_STL@@V?$allocator@D@2@@_STL@@@_STL@@@2@@_STL@@QBEIXZ 00408b20 f i DirectX9Renderer:ErrorCodes.obj
 0001:00007b20       ?end@?$vector@V?$shared_ptr@VKeyboardEventHandler@Core@@@boost@@V?$allocator@V?$shared_ptr@VKeyboardEventHandler@Core@@@boost@@@_STL@@@_STL@@QAEPAV?$shared_ptr@VKeyboardEventHandler@Core@@@boost@@XZ 00408b20 f i Renderer:RendererWindow.obj
 0001:00007b20       ?end@?$vector@V?$shared_ptr@VProxyType@?$Event@VConsoleOutputEventHandler@Core@@VIConsoleOutputListener@2@@Core@@@boost@@V?$allocator@V?$shared_ptr@VProxyType@?$Event@VConsoleOutputEventHandler@Core@@VIConsoleOutputListener@2@@Core@@@boost@@@_STL@@@_STL@@QAEPAV?$shared_ptr@VProxyType@?$Event@VConsoleOutputEventHandler@Core@@VIConsoleOutputListener@2@@Core@@@boost@@XZ 00408b20 f i Core:Console.obj
 0001:00007b20       ?end@?$vector@PAU?$definition@V?$scanner@PBDU?$scanner_policies@Uiteration_policy@spirit@boost@@Umatch_policy@23@Uaction_policy@23@@spirit@boost@@@spirit@boost@@@ConsoleGrammar@@V?$allocator@PAU?$definition@V?$scanner@PBDU?$scanner_policies@Uiteration_policy@spirit@boost@@Umatch_policy@23@Uaction_policy@23@@spirit@boost@@@spirit@boost@@@ConsoleGrammar@@@_STL@@@_STL@@QAEPAPAU?$definition@V?$scanner@PBDU?$scanner_policies@Uiteration_policy@spirit@boost@@Umatch_policy@23@Uaction_policy@23@@spirit@boost@@@spirit@boost@@@ConsoleGrammar@@XZ 00408b20 f i Core:ConsoleCommandLineParser.obj
 0001:00007b20       ?end@?$vector@V?$shared_ptr@VConsoleOutputEventHandler@Core@@@boost@@V?$allocator@V?$shared_ptr@VConsoleOutputEventHandler@Core@@@boost@@@_STL@@@_STL@@QAEPAV?$shared_ptr@VConsoleOutputEventHandler@Core@@@boost@@XZ 00408b20 f i Core:Console.obj
 0001:00007b20       ?end@?$vector@KV?$allocator@K@_STL@@@_STL@@QAEPAKXZ 00408b20 f i Core:ConsoleCommandLineParser.obj
 0001:00007b2f       ?push_back@?$vector@V?$shared_ptr@VProxyType@?$Event@VConsoleOutputEventHandler@Core@@VIConsoleOutputListener@2@@Core@@@boost@@V?$allocator@V?$shared_ptr@VProxyType@?$Event@VConsoleOutputEventHandler@Core@@VIConsoleOutputListener@2@@Core@@@boost@@@_STL@@@_STL@@QAEXABV?$shared_ptr@VProxyType@?$Event@VConsoleOutputEventHandler@Core@@VIConsoleOutputListener@2@@Core@@@boost@@@Z 00408b2f f i Core:Console.obj
 0001:00007b83       ?reset@?$shared_ptr@VProxyType@?$Event@VConsoleOutputEventHandler@Core@@VIConsoleOutputListener@2@@Core@@@boost@@QAEXXZ 00408b83 f i Core:Console.obj
 0001:00007b83       ?reset@?$shared_ptr@VConsoleOutputEventHandler@Core@@@boost@@QAEXXZ 00408b83 f i Core:Console.obj
 0001:00007bcb       ?_M_insert_overflow@?$vector@V?$shared_ptr@VConsoleOutputEventHandler@Core@@@boost@@V?$allocator@V?$shared_ptr@VConsoleOutputEventHandler@Core@@@boost@@@_STL@@@_STL@@IAEXPAV?$shared_ptr@VConsoleOutputEventHandler@Core@@@boost@@ABV34@ABU__false_type@2@I_N@Z 00408bcb f i Core:Console.obj
 0001:00007d04       ??0?$_Vector_base@PAU?$grammar_helper_base@U?$grammar@VConsoleGrammar@@Uparser_context@spirit@boost@@@spirit@boost@@@impl@spirit@boost@@V?$allocator@PAU?$grammar_helper_base@U?$grammar@VConsoleGrammar@@Uparser_context@spirit@boost@@@spirit@boost@@@impl@spirit@boost@@@_STL@@@_STL@@QAE@ABV?$allocator@PAU?$grammar_helper_base@U?$grammar@VConsoleGrammar@@Uparser_context@spirit@boost@@@spirit@boost@@@impl@spirit@boost@@@1@@Z 00408d04 f i Core:ConsoleCommandLineParser.obj
 0001:00007d04       ??0?$_Vector_base@V?$basic_string@DV?$char_traits@D@_STL@@V?$allocator@D@2@@_STL@@V?$allocator@V?$basic_string@DV?$char_traits@D@_STL@@V?$allocator@D@2@@_STL@@@2@@_STL@@QAE@ABV?$allocator@V?$basic_string@DV?$char_traits@D@_STL@@V?$allocator@D@2@@_STL@@@1@@Z 00408d04 f i Main.obj
 0001:00007d04       ??0?$_Vector_base@KV?$allocator@K@_STL@@@_STL@@QAE@ABV?$allocator@K@1@@Z 00408d04 f i Core:ConsoleCommandLineParser.obj
 0001:00007d04       ??0?$_Vector_base@V?$shared_ptr@VVertexBuffer@Renderer@@@boost@@V?$allocator@V?$shared_ptr@VVertexBuffer@Renderer@@@boost@@@_STL@@@_STL@@QAE@ABV?$allocator@V?$shared_ptr@VVertexBuffer@Renderer@@@boost@@@1@@Z 00408d04 f i DirectX9Renderer:DirectX9Renderer.obj
 0001:00007d04       ??0?$_Vector_base@PAU?$definition@V?$scanner@PBDU?$scanner_policies@Uiteration_policy@spirit@boost@@Umatch_policy@23@Uaction_policy@23@@spirit@boost@@@spirit@boost@@@ConsoleGrammar@@V?$allocator@PAU?$definition@V?$scanner@PBDU?$scanner_policies@Uiteration_policy@spirit@boost@@Umatch_policy@23@Uaction_policy@23@@spirit@boost@@@spirit@boost@@@ConsoleGrammar@@@_STL@@@_STL@@QAE@ABV?$allocator@PAU?$definition@V?$scanner@PBDU?$scanner_policies@Uiteration_policy@spirit@boost@@Umatch_policy@23@Uaction_policy@23@@spirit@boost@@@spirit@boost@@@ConsoleGrammar@@@1@@Z 00408d04 f i Core:ConsoleCommandLineParser.obj
 0001:00007d04       ??0?$_Vector_base@V?$shared_ptr@VConsoleOutputEventHandler@Core@@@boost@@V?$allocator@V?$shared_ptr@VConsoleOutputEventHandler@Core@@@boost@@@_STL@@@_STL@@QAE@ABV?$allocator@V?$shared_ptr@VConsoleOutputEventHandler@Core@@@boost@@@1@@Z 00408d04 f i Core:Console.obj
 0001:00007d04       ??0?$_Vector_base@V?$shared_ptr@VProxyType@?$Event@VConsoleOutputEventHandler@Core@@VIConsoleOutputListener@2@@Core@@@boost@@V?$allocator@V?$shared_ptr@VProxyType@?$Event@VConsoleOutputEventHandler@Core@@VIConsoleOutputListener@2@@Core@@@boost@@@_STL@@@_STL@@QAE@ABV?$allocator@V?$shared_ptr@VProxyType@?$Event@VConsoleOutputEventHandler@Core@@VIConsoleOutputListener@2@@Core@@@boost@@@1@@Z 00408d04 f i Core:Console.obj
 0001:00007d04       ??0?$_Vector_base@IV?$allocator@I@_STL@@@_STL@@QAE@ABV?$allocator@I@1@@Z 00408d04 f i Core:Console.obj
 0001:00007d04       ??0?$_Vector_base@V?$shared_ptr@VKeyboardEventHandler@Core@@@boost@@V?$allocator@V?$shared_ptr@VKeyboardEventHandler@Core@@@boost@@@_STL@@@_STL@@QAE@ABV?$allocator@V?$shared_ptr@VKeyboardEventHandler@Core@@@boost@@@1@@Z 00408d04 f i Renderer:RendererWindow.obj
 0001:00007d04       ??0?$_Vector_base@V?$shared_ptr@VProxyType@?$Event@VResizeEventHandler@Core@@VIResizable@2@@Core@@@boost@@V?$allocator@V?$shared_ptr@VProxyType@?$Event@VResizeEventHandler@Core@@VIResizable@2@@Core@@@boost@@@_STL@@@_STL@@QAE@ABV?$allocator@V?$shared_ptr@VProxyType@?$Event@VResizeEventHandler@Core@@VIResizable@2@@Core@@@boost@@@1@@Z 00408d04 f i Renderer:RendererWindow.obj
 0001:00007d04       ??0?$_Vector_base@VDisplayMode@Renderer@@V?$allocator@VDisplayMode@Renderer@@@_STL@@@_STL@@QAE@ABV?$allocator@VDisplayMode@Renderer@@@1@@Z 00408d04 f i DirectX9Renderer:DirectX9Renderer.obj
 0001:00007d04       ??0?$_Vector_base@Vany@boost@@V?$allocator@Vany@boost@@@_STL@@@_STL@@QAE@ABV?$allocator@Vany@boost@@@1@@Z 00408d04 f i Core:ConsoleCommandLineParser.obj
 0001:00007d04       ??0?$_Vector_base@V?$shared_ptr@VResizeEventHandler@Core@@@boost@@V?$allocator@V?$shared_ptr@VResizeEventHandler@Core@@@boost@@@_STL@@@_STL@@QAE@ABV?$allocator@V?$shared_ptr@VResizeEventHandler@Core@@@boost@@@1@@Z 00408d04 f i Renderer:RendererWindow.obj
 0001:00007d04       ??0?$_Vector_base@V?$shared_ptr@VProxyType@?$Event@VKeyboardEventHandler@Core@@VIKeyboardSensitive@2@@Core@@@boost@@V?$allocator@V?$shared_ptr@VProxyType@?$Event@VKeyboardEventHandler@Core@@VIKeyboardSensitive@2@@Core@@@boost@@@_STL@@@_STL@@QAE@ABV?$allocator@V?$shared_ptr@VProxyType@?$Event@VKeyboardEventHandler@Core@@VIKeyboardSensitive@2@@Core@@@boost@@@1@@Z 00408d04 f i Renderer:RendererWindow.obj
 0001:00007d2f       ?_M_insert_overflow@?$vector@V?$shared_ptr@VProxyType@?$Event@VConsoleOutputEventHandler@Core@@VIConsoleOutputListener@2@@Core@@@boost@@V?$allocator@V?$shared_ptr@VProxyType@?$Event@VConsoleOutputEventHandler@Core@@VIConsoleOutputListener@2@@Core@@@boost@@@_STL@@@_STL@@IAEXPAV?$shared_ptr@VProxyType@?$Event@VConsoleOutputEventHandler@Core@@VIConsoleOutputListener@2@@Core@@@boost@@ABV34@ABU__false_type@2@I_N@Z 00408d2f f i Core:Console.obj
 0001:00007e68       ?swap@?$shared_ptr@VConsoleOutputEventHandler@Core@@@boost@@QAEXAAV12@@Z 00408e68 f i Core:Console.obj
 0001:00007e68       ?swap@?$shared_ptr@VProxyType@?$Event@VConsoleOutputEventHandler@Core@@VIConsoleOutputListener@2@@Core@@@boost@@QAEXAAV12@@Z 00408e68 f i Core:Console.obj
 0001:00007e68       ?swap@?$shared_ptr@U?$object_with_id_base_supply@K@impl@spirit@boost@@@boost@@QAEXAAV12@@Z 00408e68 f i Core:ConsoleCommandLineParser.obj
 0001:00007e68       ?swap@?$shared_ptr@U?$grammar_helper@U?$grammar@VConsoleGrammar@@Uparser_context@spirit@boost@@@spirit@boost@@VConsoleGrammar@@V?$scanner@PBDU?$scanner_policies@Uiteration_policy@spirit@boost@@Umatch_policy@23@Uaction_policy@23@@spirit@boost@@@23@@impl@spirit@boost@@@boost@@QAEXAAV12@@Z 00408e68 f i Core:ConsoleCommandLineParser.obj
 0001:00007e68       ?swap@?$shared_ptr@VEventProxy@Core@@@boost@@QAEXAAV12@@Z 00408e68 f i OidFX:GameApplication.obj
 0001:00007e92       ?_M_clear@?$vector@PAU?$grammar_helper_base@U?$grammar@VConsoleGrammar@@Uparser_context@spirit@boost@@@spirit@boost@@@impl@spirit@boost@@V?$allocator@PAU?$grammar_helper_base@U?$grammar@VConsoleGrammar@@Uparser_context@spirit@boost@@@spirit@boost@@@impl@spirit@boost@@@_STL@@@_STL@@IAEXXZ 00408e92 f i Core:ConsoleCommandLineParser.obj
 0001:00007e92       ?_M_clear@?$vector@PAU?$definition@V?$scanner@PBDU?$scanner_policies@Uiteration_policy@spirit@boost@@Umatch_policy@23@Uaction_policy@23@@spirit@boost@@@spirit@boost@@@ConsoleGrammar@@V?$allocator@PAU?$definition@V?$scanner@PBDU?$scanner_policies@Uiteration_policy@spirit@boost@@Umatch_policy@23@Uaction_policy@23@@spirit@boost@@@spirit@boost@@@ConsoleGrammar@@@_STL@@@_STL@@IAEXXZ 00408e92 f i Core:ConsoleCommandLineParser.obj
 0001:00007e92       ?_M_clear@?$vector@KV?$allocator@K@_STL@@@_STL@@IAEXXZ 00408e92 f i Core:ConsoleCommandLineParser.obj
 0001:00007e92       ?_M_clear@?$vector@IV?$allocator@I@_STL@@@_STL@@IAEXXZ 00408e92 f i Core:Console.obj
 0001:00007ecc       ?_M_clear@?$vector@V?$shared_ptr@VConsoleOutputEventHandler@Core@@@boost@@V?$allocator@V?$shared_ptr@VConsoleOutputEventHandler@Core@@@boost@@@_STL@@@_STL@@IAEXXZ 00408ecc f i Core:Console.obj
 0001:00007f06       ?_M_clear@?$vector@V?$shared_ptr@VProxyType@?$Event@VConsoleOutputEventHandler@Core@@VIConsoleOutputListener@2@@Core@@@boost@@V?$allocator@V?$shared_ptr@VProxyType@?$Event@VConsoleOutputEventHandler@Core@@VIConsoleOutputListener@2@@Core@@@boost@@@_STL@@@_STL@@IAEXXZ 00408f06 f i Core:Console.obj
 0001:00007f40       ?_M_set@?$vector@Vany@boost@@V?$allocator@Vany@boost@@@_STL@@@_STL@@IAEXPAVany@boost@@00@Z 00408f40 f i Core:ConsoleCommandLineParser.obj
 0001:00007f40       ?_M_set@?$vector@PAU?$grammar_helper_base@U?$grammar@VConsoleGrammar@@Uparser_context@spirit@boost@@@spirit@boost@@@impl@spirit@boost@@V?$allocator@PAU?$grammar_helper_base@U?$grammar@VConsoleGrammar@@Uparser_context@spirit@boost@@@spirit@boost@@@impl@spirit@boost@@@_STL@@@_STL@@IAEXPAPAU?$grammar_helper_base@U?$grammar@VConsoleGrammar@@Uparser_context@spirit@boost@@@spirit@boost@@@impl@spirit@boost@@00@Z 00408f40 f i Core:ConsoleCommandLineParser.obj
 0001:00007f40       ?_M_set@?$vector@IV?$allocator@I@_STL@@@_STL@@IAEXPAI00@Z 00408f40 f i Core:Console.obj
 0001:00007f40       ?_M_set@?$vector@VDisplayMode@Renderer@@V?$allocator@VDisplayMode@Renderer@@@_STL@@@_STL@@IAEXPAVDisplayMode@Renderer@@00@Z 00408f40 f i DirectX9Renderer:DirectX9Renderer.obj
 0001:00007f40       ?_M_set@?$vector@V?$shared_ptr@VConsoleOutputEventHandler@Core@@@boost@@V?$allocator@V?$shared_ptr@VConsoleOutputEventHandler@Core@@@boost@@@_STL@@@_STL@@IAEXPAV?$shared_ptr@VConsoleOutputEventHandler@Core@@@boost@@00@Z 00408f40 f i Core:Console.obj
 0001:00007f40       ?_M_set@?$vector@V?$shared_ptr@VVertexBuffer@Renderer@@@boost@@V?$allocator@V?$shared_ptr@VVertexBuffer@Renderer@@@boost@@@_STL@@@_STL@@IAEXPAV?$shared_ptr@VVertexBuffer@Renderer@@@boost@@00@Z 00408f40 f i DirectX9Renderer:DirectX9Renderer.obj
 0001:00007f40       ?_M_set@?$vector@V?$basic_string@DV?$char_traits@D@_STL@@V?$allocator@D@2@@_STL@@V?$allocator@V?$basic_string@DV?$char_traits@D@_STL@@V?$allocator@D@2@@_STL@@@2@@_STL@@IAEXPAV?$basic_string@DV?$char_traits@D@_STL@@V?$allocator@D@2@@2@00@Z 00408f40 f i Main.obj
 0001:00007f40       ?_M_set@?$vector@PAU?$definition@V?$scanner@PBDU?$scanner_policies@Uiteration_policy@spirit@boost@@Umatch_policy@23@Uaction_policy@23@@spirit@boost@@@spirit@boost@@@ConsoleGrammar@@V?$allocator@PAU?$definition@V?$scanner@PBDU?$scanner_policies@Uiteration_policy@spirit@boost@@Umatch_policy@23@Uaction_policy@23@@spirit@boost@@@spirit@boost@@@ConsoleGrammar@@@_STL@@@_STL@@IAEXPAPAU?$definition@V?$scanner@PBDU?$scanner_policies@Uiteration_policy@spirit@boost@@Umatch_policy@23@Uaction_policy@23@@spirit@boost@@@spirit@boost@@@ConsoleGrammar@@00@Z 00408f40 f i Core:ConsoleCommandLineParser.obj
 0001:00007f40       ?_M_set@?$vector@V?$shared_ptr@VProxyType@?$Event@VConsoleOutputEventHandler@Core@@VIConsoleOutputListener@2@@Core@@@boost@@V?$allocator@V?$shared_ptr@VProxyType@?$Event@VConsoleOutputEventHandler@Core@@VIConsoleOutputListener@2@@Core@@@boost@@@_STL@@@_STL@@IAEXPAV?$shared_ptr@VProxyType@?$Event@VConsoleOutputEventHandler@Core@@VIConsoleOutputListener@2@@Core@@@boost@@00@Z 00408f40 f i Core:Console.obj
 0001:00007f40       ?_M_set@?$vector@KV?$allocator@K@_STL@@@_STL@@IAEXPAK00@Z 00408f40 f i Core:ConsoleCommandLineParser.obj
 0001:00007f65       ??0?$shared_ptr@VConsoleOutputEventHandler@Core@@@boost@@QAE@PAVConsoleOutputEventHandler@Core@@@Z 00408f65 f i Core:Console.obj
 0001:00007fbb       ??0?$shared_ptr@VProxyType@?$Event@VConsoleOutputEventHandler@Core@@VIConsoleOutputListener@2@@Core@@@boost@@QAE@PAVProxyType@?$Event@VConsoleOutputEventHandler@Core@@VIConsoleOutputListener@2@@Core@@@Z 00408fbb f i Core:Console.obj
 0001:00008011       ?any_cast@?$@H@boost@@YAPBHPBVany@1@@Z 00409011 f i Core:Console.obj
 0001:0000801f       ?any_cast@?$@M@boost@@YAPBMPBVany@1@@Z 0040901f f i Core:Console.obj
 0001:0000802d       ?getline@_STL@@YAAAV?$basic_istream@DV?$char_traits@D@_STL@@@1@AAV21@AAV?$basic_string@DV?$char_traits@D@_STL@@V?$allocator@D@2@@1@D@Z 0040902d f i Core:Console.obj
 0001:0000815e       ??0shared_count@detail@boost@@QAE@PAVConsoleVariableManager@Core@@U?$checked_deleter@VConsoleVariableManager@Core@@@2@@Z 0040915e f i Core:Console.obj
 0001:000081f7       ??0shared_count@detail@boost@@QAE@PAVConsoleCommandManager@Core@@U?$checked_deleter@VConsoleCommandManager@Core@@@2@@Z 004091f7 f i Core:Console.obj
 0001:00008290       ??0shared_count@detail@boost@@QAE@PAVConsoleBuffer@Core@@U?$checked_deleter@VConsoleBuffer@Core@@@2@@Z 00409290 f i Core:Console.obj
 0001:00008329       ??0shared_count@detail@boost@@QAE@PAVConsoleCommandLine@Core@@U?$checked_deleter@VConsoleCommandLine@Core@@@2@@Z 00409329 f i Core:Console.obj
 0001:000083c2       ??0shared_count@detail@boost@@QAE@PAVConsoleOutputEvent@Core@@U?$checked_deleter@VConsoleOutputEvent@Core@@@2@@Z 004093c2 f i Core:Console.obj
 0001:0000845b       ??0shared_count@detail@boost@@QAE@PAVOConsoleBuf@Console@Core@@U?$checked_deleter@VOConsoleBuf@Console@Core@@@2@@Z 0040945b f i Core:Console.obj
 0001:000084f4       ??0shared_count@detail@boost@@QAE@PAV?$basic_ostream@DV?$char_traits@D@_STL@@@_STL@@U?$checked_deleter@V?$basic_ostream@DV?$char_traits@D@_STL@@@_STL@@@2@@Z 004094f4 f i Core:Console.obj
 0001:0000858d       ??0shared_count@detail@boost@@QAE@PAVCmdList@ConsoleCommands@@U?$checked_deleter@VCmdList@ConsoleCommands@@@2@@Z 0040958d f i Core:Console.obj
 0001:00008626       ??0shared_count@detail@boost@@QAE@PAVCvarList@ConsoleCommands@@U?$checked_deleter@VCvarList@ConsoleCommands@@@2@@Z 00409626 f i Core:Console.obj
 0001:000086bf       ??0shared_count@detail@boost@@QAE@PAVExec@ConsoleCommands@@U?$checked_deleter@VExec@ConsoleCommands@@@2@@Z 004096bf f i Core:Console.obj
 0001:00008758       ?__destroy@_STL@@YAXPAVany@boost@@00@Z 00409758 f i Core:Console.obj
 0001:00008770       ?value_type@_STL@@YAPAV?$shared_ptr@VProxyType@?$Event@VConsoleOutputEventHandler@Core@@VIConsoleOutputListener@2@@Core@@@boost@@PBV23@@Z 00409770 f i Core:Console.obj
 0001:00008770       ?value_type@_STL@@YAPAV?$shared_ptr@VConsoleOutputEventHandler@Core@@@boost@@PBV23@@Z 00409770 f i Core:Console.obj
 0001:00008770       ?value_type@_STL@@YAPAIABU?$_Deque_iterator@IU?$_Nonconst_traits@I@_STL@@@1@@Z 00409770 f i DirectX9Renderer:DirectX9Renderer.obj
 0001:00008770       ?value_type@_STL@@YAPAV?$shared_ptr@VVertexBuffer@Renderer@@@boost@@PBV23@@Z 00409770 f i DirectX9Renderer:DirectX9Renderer.obj
 0001:00008770       ?value_type@_STL@@YAPAV?$shared_ptr@VResizeEventHandler@Core@@@boost@@PBV23@@Z 00409770 f i Renderer:RendererWindow.obj
 0001:00008770       ?value_type@_STL@@YAPAPAU?$definition@V?$scanner@PBDU?$scanner_policies@Uiteration_policy@spirit@boost@@Umatch_policy@23@Uaction_policy@23@@spirit@boost@@@spirit@boost@@@ConsoleGrammar@@PBQAU23@@Z 00409770 f i Core:ConsoleCommandLineParser.obj
 0001:00008770       ?get@?$apply@H@match_attr_helper1@impl@spirit@boost@@SAHABV?$match@Unil_t@spirit@boost@@@45@@Z 00409770 f i Core:ConsoleCommandLineParser.obj
 0001:00008770       ?value_type@_STL@@YAPAV?$basic_string@DV?$char_traits@D@_STL@@V?$allocator@D@2@@1@PBV21@@Z 00409770 f i Main.obj
 0001:00008770       ?value_type@_STL@@YAPAPAU?$grammar_helper_base@U?$grammar@VConsoleGrammar@@Uparser_context@spirit@boost@@@spirit@boost@@@impl@spirit@boost@@PBQAU2345@@Z 00409770 f i Core:ConsoleCommandLineParser.obj
 0001:00008770       ?value_type@_STL@@YAPAKPBK@Z 00409770 f i Core:ConsoleCommandLineParser.obj
 0001:00008770       ?get@?$apply@I@match_attr_helper1@impl@spirit@boost@@SAIABV?$match@Unil_t@spirit@boost@@@45@@Z 00409770 f i Core:ConsoleCommandLineParser.obj
 0001:00008770       ?__default_constructed_aux@_STL@@YAPAVConsoleCommand@Core@@PAPAV23@ABU__false_type@1@@Z 00409770 f i Core:ConsoleCommandManager.obj
 0001:00008770       ?value_type@_STL@@YAPADPBD@Z 00409770 f i Core:CommandLine.obj
 0001:00008770       ?value_type@_STL@@YAPAV?$shared_ptr@VProxyType@?$Event@VResizeEventHandler@Core@@VIResizable@2@@Core@@@boost@@PBV23@@Z 00409770 f i Renderer:RendererWindow.obj
 0001:00008770       ?value_type@_STL@@YAPAIPBI@Z 00409770 f i Core:Console.obj
 0001:00008770       ?value_type@_STL@@YAPAVany@boost@@PBV23@@Z 00409770 f i Core:Console.obj
 0001:00008770       ?value_type@_STL@@YAPAV?$shared_ptr@VKeyboardEventHandler@Core@@@boost@@PBV23@@Z 00409770 f i Renderer:RendererWindow.obj
 0001:00008770       ?value_type@_STL@@YAPAPAIPBQAI@Z 00409770 f i TerrainDemoApplication.obj
 0001:00008770       ?value_type@_STL@@YAPAV?$shared_ptr@VProxyType@?$Event@VKeyboardEventHandler@Core@@VIKeyboardSensitive@2@@Core@@@boost@@PBV23@@Z 00409770 f i Renderer:RendererWindow.obj
 0001:00008770       ?value_type@_STL@@YAPAVDisplayMode@Renderer@@PBV23@@Z 00409770 f i DirectX9Renderer:DirectX9Renderer.obj
 0001:00008777       ?_Construct@_STL@@YAXPAV?$shared_ptr@VProxyType@?$Event@VConsoleOutputEventHandler@Core@@VIConsoleOutputListener@2@@Core@@@boost@@ABV23@@Z 00409777 f i Core:Console.obj
 0001:00008777       ?_Construct@_STL@@YAXPAV?$shared_ptr@VConsoleOutputEventHandler@Core@@@boost@@ABV23@@Z 00409777 f i Core:Console.obj
 0001:000087c7       ?fill_n@_STL@@YAPAIPAIIABI@Z 004097c7 f i Core:Console.obj
 0001:000087c7       ?fill_n@_STL@@YAPAPAU?$grammar_helper_base@U?$grammar@VConsoleGrammar@@Uparser_context@spirit@boost@@@spirit@boost@@@impl@spirit@boost@@PAPAU2345@IABQAU2345@@Z 004097c7 f i Core:ConsoleCommandLineParser.obj
 0001:000087c7       ?fill_n@_STL@@YAPAPAU?$definition@V?$scanner@PBDU?$scanner_policies@Uiteration_policy@spirit@boost@@Umatch_policy@23@Uaction_policy@23@@spirit@boost@@@spirit@boost@@@ConsoleGrammar@@PAPAU23@IABQAU23@@Z 004097c7 f i Core:ConsoleCommandLineParser.obj
 0001:000087c7       ?fill_n@_STL@@YAPAKPAKIABK@Z 004097c7 f i Core:ConsoleCommandLineParser.obj
 0001:000087f3       ?__uninitialized_copy@_STL@@YAPAV?$shared_ptr@VConsoleOutputEventHandler@Core@@@boost@@PAV23@00ABU__false_type@1@@Z 004097f3 f i Core:Console.obj
 0001:00008868       ?__uninitialized_fill_n@_STL@@YAPAV?$shared_ptr@VConsoleOutputEventHandler@Core@@@boost@@PAV23@IABV23@ABU__false_type@1@@Z 00409868 f i Core:Console.obj
 0001:000088d9       ?__uninitialized_copy@_STL@@YAPAV?$shared_ptr@VProxyType@?$Event@VConsoleOutputEventHandler@Core@@VIConsoleOutputListener@2@@Core@@@boost@@PAV23@00ABU__false_type@1@@Z 004098d9 f i Core:Console.obj
 0001:0000894e       ?__uninitialized_fill_n@_STL@@YAPAV?$shared_ptr@VProxyType@?$Event@VConsoleOutputEventHandler@Core@@VIConsoleOutputListener@2@@Core@@@boost@@PAV23@IABV23@ABU__false_type@1@@Z 0040994e f i Core:Console.obj
 0001:000089bf       ?swap@_STL@@YAXAAPAVConsoleOutputEventHandler@Core@@0@Z 004099bf f i Core:Console.obj
 0001:000089bf       ?swap@_STL@@YAXAAPAVEventProxy@Core@@0@Z 004099bf f i OidFX:GameApplication.obj
 0001:000089bf       ?swap@_STL@@YAXAAPAVProxyType@?$Event@VConsoleOutputEventHandler@Core@@VIConsoleOutputListener@2@@Core@@0@Z 004099bf f i Core:Console.obj
 0001:000089bf       ?swap@_STL@@YAXAAPAU?$object_with_id_base_supply@K@impl@spirit@boost@@0@Z 004099bf f i Core:ConsoleCommandLineParser.obj
 0001:000089bf       ?swap@_STL@@YAXAAPAU?$grammar_helper@U?$grammar@VConsoleGrammar@@Uparser_context@spirit@boost@@@spirit@boost@@VConsoleGrammar@@V?$scanner@PBDU?$scanner_policies@Uiteration_policy@spirit@boost@@Umatch_policy@23@Uaction_policy@23@@spirit@boost@@@23@@impl@spirit@boost@@0@Z 004099bf f i Core:ConsoleCommandLineParser.obj
 0001:000089bf       ?swap@_STL@@YAXAAPAVplaceholder@any@boost@@0@Z 004099bf f i OidFX:GameApplication.obj
 0001:000089bf       ?swap@_STL@@YAXAAPBD0@Z    004099bf f i Core:ConsoleCommandLineParser.obj
 0001:000089df       ??R?$checked_deleter@VConsoleVariableManager@Core@@@boost@@QBEXPAVConsoleVariableManager@Core@@@Z 004099df f i Core:Console.obj
 0001:000089f3       ??R?$checked_deleter@VConsoleCommandManager@Core@@@boost@@QBEXPAVConsoleCommandManager@Core@@@Z 004099f3 f i Core:Console.obj
 0001:00008a07       ??R?$checked_deleter@VConsoleBuffer@Core@@@boost@@QBEXPAVConsoleBuffer@Core@@@Z 00409a07 f i Core:Console.obj
 0001:00008a1b       ??R?$checked_deleter@VConsoleCommandLine@Core@@@boost@@QBEXPAVConsoleCommandLine@Core@@@Z 00409a1b f i Core:Console.obj
 0001:00008a2f       ??R?$checked_deleter@V?$basic_ostream@DV?$char_traits@D@_STL@@@_STL@@@boost@@QBEXPAV?$basic_ostream@DV?$char_traits@D@_STL@@@_STL@@@Z 00409a2f f i Core:Console.obj
 0001:00008a43       ??0?$sp_counted_base_impl@PAVConsoleVariableManager@Core@@U?$checked_deleter@VConsoleVariableManager@Core@@@boost@@@detail@boost@@QAE@PAVConsoleVariableManager@Core@@U?$checked_deleter@VConsoleVariableManager@Core@@@2@@Z 00409a43 f i Core:Console.obj
 0001:00008a74       ?dispose@?$sp_counted_base_impl@PAVConsoleVariableManager@Core@@U?$checked_deleter@VConsoleVariableManager@Core@@@boost@@@detail@boost@@UAEXXZ 00409a74 f i Core:Console.obj
 0001:00008a8e       ?get_deleter@?$sp_counted_base_impl@PAVConsoleVariableManager@Core@@U?$checked_deleter@VConsoleVariableManager@Core@@@boost@@@detail@boost@@UAEPAXABVtype_info@@@Z 00409a8e f i Core:Console.obj
 0001:00008ab3       ??0?$sp_counted_base_impl@PAVConsoleCommandManager@Core@@U?$checked_deleter@VConsoleCommandManager@Core@@@boost@@@detail@boost@@QAE@PAVConsoleCommandManager@Core@@U?$checked_deleter@VConsoleCommandManager@Core@@@2@@Z 00409ab3 f i Core:Console.obj
 0001:00008ae4       ?dispose@?$sp_counted_base_impl@PAVConsoleCommandManager@Core@@U?$checked_deleter@VConsoleCommandManager@Core@@@boost@@@detail@boost@@UAEXXZ 00409ae4 f i Core:Console.obj
 0001:00008afe       ?get_deleter@?$sp_counted_base_impl@PAVConsoleCommandManager@Core@@U?$checked_deleter@VConsoleCommandManager@Core@@@boost@@@detail@boost@@UAEPAXABVtype_info@@@Z 00409afe f i Core:Console.obj
 0001:00008b23       ??0?$sp_counted_base_impl@PAVConsoleBuffer@Core@@U?$checked_deleter@VConsoleBuffer@Core@@@boost@@@detail@boost@@QAE@PAVConsoleBuffer@Core@@U?$checked_deleter@VConsoleBuffer@Core@@@2@@Z 00409b23 f i Core:Console.obj
 0001:00008b54       ?dispose@?$sp_counted_base_impl@PAVConsoleBuffer@Core@@U?$checked_deleter@VConsoleBuffer@Core@@@boost@@@detail@boost@@UAEXXZ 00409b54 f i Core:Console.obj
 0001:00008b6e       ?get_deleter@?$sp_counted_base_impl@PAVConsoleBuffer@Core@@U?$checked_deleter@VConsoleBuffer@Core@@@boost@@@detail@boost@@UAEPAXABVtype_info@@@Z 00409b6e f i Core:Console.obj
 0001:00008b93       ??0?$sp_counted_base_impl@PAVConsoleCommandLine@Core@@U?$checked_deleter@VConsoleCommandLine@Core@@@boost@@@detail@boost@@QAE@PAVConsoleCommandLine@Core@@U?$checked_deleter@VConsoleCommandLine@Core@@@2@@Z 00409b93 f i Core:Console.obj
 0001:00008bc4       ?dispose@?$sp_counted_base_impl@PAVConsoleCommandLine@Core@@U?$checked_deleter@VConsoleCommandLine@Core@@@boost@@@detail@boost@@UAEXXZ 00409bc4 f i Core:Console.obj
 0001:00008bde       ?get_deleter@?$sp_counted_base_impl@PAVConsoleCommandLine@Core@@U?$checked_deleter@VConsoleCommandLine@Core@@@boost@@@detail@boost@@UAEPAXABVtype_info@@@Z 00409bde f i Core:Console.obj
 0001:00008c03       ??0?$sp_counted_base_impl@PAVConsoleOutputEvent@Core@@U?$checked_deleter@VConsoleOutputEvent@Core@@@boost@@@detail@boost@@QAE@PAVConsoleOutputEvent@Core@@U?$checked_deleter@VConsoleOutputEvent@Core@@@2@@Z 00409c03 f i Core:Console.obj
 0001:00008c34       ?get_deleter@?$sp_counted_base_impl@PAVConsoleOutputEvent@Core@@U?$checked_deleter@VConsoleOutputEvent@Core@@@boost@@@detail@boost@@UAEPAXABVtype_info@@@Z 00409c34 f i Core:Console.obj
 0001:00008c59       ??0?$sp_counted_base_impl@PAVOConsoleBuf@Console@Core@@U?$checked_deleter@VOConsoleBuf@Console@Core@@@boost@@@detail@boost@@QAE@PAVOConsoleBuf@Console@Core@@U?$checked_deleter@VOConsoleBuf@Console@Core@@@2@@Z 00409c59 f i Core:Console.obj
 0001:00008c8a       ?get_deleter@?$sp_counted_base_impl@PAVOConsoleBuf@Console@Core@@U?$checked_deleter@VOConsoleBuf@Console@Core@@@boost@@@detail@boost@@UAEPAXABVtype_info@@@Z 00409c8a f i Core:Console.obj
 0001:00008caf       ??0?$sp_counted_base_impl@PAV?$basic_ostream@DV?$char_traits@D@_STL@@@_STL@@U?$checked_deleter@V?$basic_ostream@DV?$char_traits@D@_STL@@@_STL@@@boost@@@detail@boost@@QAE@PAV?$basic_ostream@DV?$char_traits@D@_STL@@@_STL@@U?$checked_deleter@V?$basic_ostream@DV?$char_traits@D@_STL@@@_STL@@@2@@Z 00409caf f i Core:Console.obj
 0001:00008ce0       ?dispose@?$sp_counted_base_impl@PAV?$basic_ostream@DV?$char_traits@D@_STL@@@_STL@@U?$checked_deleter@V?$basic_ostream@DV?$char_traits@D@_STL@@@_STL@@@boost@@@detail@boost@@UAEXXZ 00409ce0 f i Core:Console.obj
 0001:00008cfa       ?get_deleter@?$sp_counted_base_impl@PAV?$basic_ostream@DV?$char_traits@D@_STL@@@_STL@@U?$checked_deleter@V?$basic_ostream@DV?$char_traits@D@_STL@@@_STL@@@boost@@@detail@boost@@UAEPAXABVtype_info@@@Z 00409cfa f i Core:Console.obj
 0001:00008d1f       ??0?$sp_counted_base_impl@PAVCmdList@ConsoleCommands@@U?$checked_deleter@VCmdList@ConsoleCommands@@@boost@@@detail@boost@@QAE@PAVCmdList@ConsoleCommands@@U?$checked_deleter@VCmdList@ConsoleCommands@@@2@@Z 00409d1f f i Core:Console.obj
 0001:00008d50       ?get_deleter@?$sp_counted_base_impl@PAVCmdList@ConsoleCommands@@U?$checked_deleter@VCmdList@ConsoleCommands@@@boost@@@detail@boost@@UAEPAXABVtype_info@@@Z 00409d50 f i Core:Console.obj
 0001:00008d75       ??0?$sp_counted_base_impl@PAVCvarList@ConsoleCommands@@U?$checked_deleter@VCvarList@ConsoleCommands@@@boost@@@detail@boost@@QAE@PAVCvarList@ConsoleCommands@@U?$checked_deleter@VCvarList@ConsoleCommands@@@2@@Z 00409d75 f i Core:Console.obj
 0001:00008da6       ?get_deleter@?$sp_counted_base_impl@PAVCvarList@ConsoleCommands@@U?$checked_deleter@VCvarList@ConsoleCommands@@@boost@@@detail@boost@@UAEPAXABVtype_info@@@Z 00409da6 f i Core:Console.obj
 0001:00008dcb       ??0?$sp_counted_base_impl@PAVExec@ConsoleCommands@@U?$checked_deleter@VExec@ConsoleCommands@@@boost@@@detail@boost@@QAE@PAVExec@ConsoleCommands@@U?$checked_deleter@VExec@ConsoleCommands@@@2@@Z 00409dcb f i Core:Console.obj
 0001:00008dfc       ?get_deleter@?$sp_counted_base_impl@PAVExec@ConsoleCommands@@U?$checked_deleter@VExec@ConsoleCommands@@@boost@@@detail@boost@@UAEPAXABVtype_info@@@Z 00409dfc f i Core:Console.obj
 0001:00008e21       ??1?$sp_counted_base_impl@PAVRendererFactory@Renderer@@U?$checked_deleter@VRendererFactory@Renderer@@@boost@@@detail@boost@@UAE@XZ 00409e21 f i OidFX:GameApplication.obj
 0001:00008e21       ??1?$sp_counted_base_impl@PAVConsoleVariableManager@Core@@U?$checked_deleter@VConsoleVariableManager@Core@@@boost@@@detail@boost@@UAE@XZ 00409e21 f i Core:Console.obj
 0001:00008e21       ??1?$sp_counted_base_impl@PAVDirectXVertexBufferCreator@DirectX9Renderer@@U?$checked_deleter@VDirectXVertexBufferCreator@DirectX9Renderer@@@boost@@@detail@boost@@UAE@XZ 00409e21 f i DirectX9Renderer:DirectX9Renderer.obj
 0001:00008e21       ??1?$sp_counted_base_impl@PAVProxyType@?$Event@VConsoleOutputEventHandler@Core@@VIConsoleOutputListener@2@@Core@@U?$checked_deleter@VProxyType@?$Event@VConsoleOutputEventHandler@Core@@VIConsoleOutputListener@2@@Core@@@boost@@@detail@boost@@UAE@XZ 00409e21 f i Core:Console.obj
 0001:00008e21       ??1?$sp_counted_base_impl@PAVConsoleCommandLine@Core@@U?$checked_deleter@VConsoleCommandLine@Core@@@boost@@@detail@boost@@UAE@XZ 00409e21 f i Core:Console.obj
 0001:00008e21       ??1?$sp_counted_base_impl@PAV?$basic_ostream@DV?$char_traits@D@_STL@@@_STL@@U?$checked_deleter@V?$basic_ostream@DV?$char_traits@D@_STL@@@_STL@@@boost@@@detail@boost@@UAE@XZ 00409e21 f i Core:Console.obj
 0001:00008e21       ??1?$sp_counted_base_impl@PAVOConsoleBuf@Console@Core@@U?$checked_deleter@VOConsoleBuf@Console@Core@@@boost@@@detail@boost@@UAE@XZ 00409e21 f i Core:Console.obj
 0001:00008e21       ??1?$sp_counted_base_impl@PAVExec@ConsoleCommands@@U?$checked_deleter@VExec@ConsoleCommands@@@boost@@@detail@boost@@UAE@XZ 00409e21 f i Core:Console.obj
 0001:00008e21       ??1?$sp_counted_base_impl@PAVTerrainDemoApplication@TerrainDemo@@U?$checked_deleter@VTerrainDemoApplication@TerrainDemo@@@boost@@@detail@boost@@UAE@XZ 00409e21 f i Main.obj
 0001:00008e21       ??1?$sp_counted_base_impl@PAVConsoleCursor@Core@@U?$checked_deleter@VConsoleCursor@Core@@@boost@@@detail@boost@@UAE@XZ 00409e21 f i Core:ConsoleCommandLine.obj
 0001:00008e21       ??1?$sp_counted_base_impl@PAVRendererWindow@Renderer@@U?$checked_deleter@VRendererWindow@Renderer@@@boost@@@detail@boost@@UAE@XZ 00409e21 f i DirectX9Renderer:DirectX9Renderer.obj
 0001:00008e21       ??1?$sp_counted_base_impl@PAVConsoleOutputEvent@Core@@U?$checked_deleter@VConsoleOutputEvent@Core@@@boost@@@detail@boost@@UAE@XZ 00409e21 f i Core:Console.obj
 0001:00008e21       ??1?$sp_counted_base_impl@PAVDirectXRenderer@DirectX9Renderer@@U?$checked_deleter@VDirectXRenderer@DirectX9Renderer@@@boost@@@detail@boost@@UAE@XZ 00409e21 f i DirectX9Renderer:DirectXRendererCreator.obj
 0001:00008e21       ??1?$sp_counted_base_impl@PAU?$grammar_helper@U?$grammar@VConsoleGrammar@@Uparser_context@spirit@boost@@@spirit@boost@@VConsoleGrammar@@V?$scanner@PBDU?$scanner_policies@Uiteration_policy@spirit@boost@@Umatch_policy@23@Uaction_policy@23@@spirit@boost@@@23@@impl@spirit@boost@@U?$checked_deleter@U?$grammar_helper@U?$grammar@VConsoleGrammar@@Uparser_context@spirit@boost@@@spirit@boost@@VConsoleGrammar@@V?$scanner@PBDU?$scanner_policies@Uiteration_policy@spirit@boost@@Umatch_policy@23@Uaction_policy@23@@spirit@boost@@@23@@impl@spirit@boost@@@4@@detail@boost@@UAE@XZ 00409e21 f i Core:ConsoleCommandLineParser.obj
 0001:00008e21       ??1?$sp_counted_base_impl@PAVCvarList@ConsoleCommands@@U?$checked_deleter@VCvarList@ConsoleCommands@@@boost@@@detail@boost@@UAE@XZ 00409e21 f i Core:Console.obj
 0001:00008e21       ??1?$sp_counted_base_impl@PAVConsoleCommandManager@Core@@U?$checked_deleter@VConsoleCommandManager@Core@@@boost@@@detail@boost@@UAE@XZ 00409e21 f i Core:Console.obj
 0001:00008e21       ??1?$sp_counted_base_impl@PAVVertexBufferManager@Renderer@@U?$checked_deleter@VVertexBufferManager@Renderer@@@boost@@@detail@boost@@UAE@XZ 00409e21 f i DirectX9Renderer:DirectX9Renderer.obj
 0001:00008e21       ??1?$sp_counted_base_impl@PAVDirectXRendererCreator@DirectX9Renderer@@U?$checked_deleter@VDirectXRendererCreator@DirectX9Renderer@@@boost@@@detail@boost@@UAE@XZ 00409e21 f i OidFX:GameApplication.obj
 0001:00008e21       ??1?$sp_counted_base_impl@PAVConsoleVariable@Core@@U?$checked_deleter@VConsoleVariable@Core@@@boost@@@detail@boost@@UAE@XZ 00409e21 f i Core:ConsoleVariableManager.obj
 0001:00008e21       ??1?$sp_counted_base_impl@PAVConsole@Core@@U?$checked_deleter@VConsole@Core@@@boost@@@detail@boost@@UAE@XZ 00409e21 f i OidFX:GameApplication.obj
 0001:00008e21       ??1?$sp_counted_base_impl@PAVConsoleOutputEventHandler@Core@@U?$checked_deleter@VConsoleOutputEventHandler@Core@@@boost@@@detail@boost@@UAE@XZ 00409e21 f i Core:Console.obj
 0001:00008e21       ??1?$sp_counted_base_impl@PAVCmdList@ConsoleCommands@@U?$checked_deleter@VCmdList@ConsoleCommands@@@boost@@@detail@boost@@UAE@XZ 00409e21 f i Core:Console.obj
 0001:00008e21       ??1?$sp_counted_base_impl@PAVDirectXVertexBuffer@DirectX9Renderer@@U?$checked_deleter@VDirectXVertexBuffer@DirectX9Renderer@@@boost@@@detail@boost@@UAE@XZ 00409e21 f i DirectX9Renderer:DirectX9Renderer.obj
 0001:00008e21       ??1?$sp_counted_base_impl@PAU?$object_with_id_base_supply@K@impl@spirit@boost@@U?$checked_deleter@U?$object_with_id_base_supply@K@impl@spirit@boost@@@4@@detail@boost@@UAE@XZ 00409e21 f i Core:ConsoleCommandLineParser.obj
 0001:00008e21       ??1?$sp_counted_base_impl@PAVConsoleBuffer@Core@@U?$checked_deleter@VConsoleBuffer@Core@@@boost@@@detail@boost@@UAE@XZ 00409e21 f i Core:Console.obj
 0001:00008e32       ??0shared_count@detail@boost@@QAE@PAVConsoleOutputEventHandler@Core@@U?$checked_deleter@VConsoleOutputEventHandler@Core@@@2@@Z 00409e32 f i Core:Console.obj
 0001:00008ecb       ??0shared_count@detail@boost@@QAE@PAVProxyType@?$Event@VConsoleOutputEventHandler@Core@@VIConsoleOutputListener@2@@Core@@U?$checked_deleter@VProxyType@?$Event@VConsoleOutputEventHandler@Core@@VIConsoleOutputListener@2@@Core@@@2@@Z 00409ecb f i Core:Console.obj
 0001:00008f64       ?any_cast@?$@H@boost@@YAPAHPAVany@1@@Z 00409f64 f i Core:Console.obj
 0001:00008f9d       ?any_cast@?$@M@boost@@YAPAMPAVany@1@@Z 00409f9d f i Core:Console.obj
 0001:00008fd6       ?__destroy_aux@_STL@@YAXPAVany@boost@@0ABU__false_type@1@@Z 00409fd6 f i Core:Console.obj
 0001:00008ff9       ?checked_delete@boost@@YAXPAVConsoleVariableManager@Core@@@Z 00409ff9 f i Core:Console.obj
 0001:00009026       ?checked_delete@boost@@YAXPAVConsoleCommandManager@Core@@@Z 0040a026 f i Core:Console.obj
 0001:00009053       ?checked_delete@boost@@YAXPAVConsoleBuffer@Core@@@Z 0040a053 f i Core:Console.obj
 0001:00009080       ?checked_delete@boost@@YAXPAVConsoleCommandLine@Core@@@Z 0040a080 f i Core:Console.obj
 0001:000090ad       ?checked_delete@boost@@YAXPAV?$basic_ostream@DV?$char_traits@D@_STL@@@_STL@@@Z 0040a0ad f i Core:Console.obj
 0001:000090ef       ??_GConsoleVariableManager@Core@@QAEPAXI@Z 0040a0ef f i Core:Console.obj
 0001:00009118       ??_GConsoleCommandManager@Core@@QAEPAXI@Z 0040a118 f i Core:Console.obj
 0001:00009141       ??_GConsoleBuffer@Core@@QAEPAXI@Z 0040a141 f i Core:Console.obj
 0001:0000916a       ??_GConsoleCommandLine@Core@@QAEPAXI@Z 0040a16a f i Core:Console.obj
 0001:00009193       ??1ConsoleVariableManager@Core@@QAE@XZ 0040a193 f i Core:Console.obj
 0001:000091a4       ??1ConsoleCommandManager@Core@@QAE@XZ 0040a1a4 f i Core:Console.obj
 0001:000091b5       ??1ConsoleCommandLine@Core@@QAE@XZ 0040a1b5 f i Core:Console.obj
 0001:00009200       ??1?$map@IV?$shared_ptr@VConsoleVariable@Core@@@boost@@U?$less@I@_STL@@V?$allocator@U?$pair@$$CBIV?$shared_ptr@VConsoleVariable@Core@@@boost@@@_STL@@@4@@_STL@@QAE@XZ 0040a200 f i Core:Console.obj
 0001:00009211       ??1?$map@IPAVConsoleCommand@Core@@U?$less@I@_STL@@V?$allocator@U?$pair@$$CBIPAVConsoleCommand@Core@@@_STL@@@4@@_STL@@QAE@XZ 0040a211 f i Core:Console.obj
 0001:00009222       ??1?$_Rb_tree@IU?$pair@$$CBIV?$shared_ptr@VConsoleVariable@Core@@@boost@@@_STL@@U?$_Select1st@U?$pair@$$CBIV?$shared_ptr@VConsoleVariable@Core@@@boost@@@_STL@@@2@U?$less@I@2@V?$allocator@U?$pair@$$CBIV?$shared_ptr@VConsoleVariable@Core@@@boost@@@_STL@@@2@@_STL@@QAE@XZ 0040a222 f i Core:Console.obj
 0001:00009254       ??1?$_Rb_tree@IU?$pair@$$CBIPAVConsoleCommand@Core@@@_STL@@U?$_Select1st@U?$pair@$$CBIPAVConsoleCommand@Core@@@_STL@@@2@U?$less@I@2@V?$allocator@U?$pair@$$CBIPAVConsoleCommand@Core@@@_STL@@@2@@_STL@@QAE@XZ 0040a254 f i Core:Console.obj
 0001:00009286       ??0?$sp_counted_base_impl@PAVConsoleOutputEventHandler@Core@@U?$checked_deleter@VConsoleOutputEventHandler@Core@@@boost@@@detail@boost@@QAE@PAVConsoleOutputEventHandler@Core@@U?$checked_deleter@VConsoleOutputEventHandler@Core@@@2@@Z 0040a286 f i Core:Console.obj
 0001:000092b7       ?get_deleter@?$sp_counted_base_impl@PAVConsoleOutputEventHandler@Core@@U?$checked_deleter@VConsoleOutputEventHandler@Core@@@boost@@@detail@boost@@UAEPAXABVtype_info@@@Z 0040a2b7 f i Core:Console.obj
 0001:000092dc       ??0?$sp_counted_base_impl@PAVProxyType@?$Event@VConsoleOutputEventHandler@Core@@VIConsoleOutputListener@2@@Core@@U?$checked_deleter@VProxyType@?$Event@VConsoleOutputEventHandler@Core@@VIConsoleOutputListener@2@@Core@@@boost@@@detail@boost@@QAE@PAVProxyType@?$Event@VConsoleOutputEventHandler@Core@@VIConsoleOutputListener@2@@Core@@U?$checked_deleter@VProxyType@?$Event@VConsoleOutputEventHandler@Core@@VIConsoleOutputListener@2@@Core@@@2@@Z 0040a2dc f i Core:Console.obj
 0001:0000930d       ?dispose@?$sp_counted_base_impl@PAVConsoleOutputEventHandler@Core@@U?$checked_deleter@VConsoleOutputEventHandler@Core@@@boost@@@detail@boost@@UAEXXZ 0040a30d f i Core:Console.obj
 0001:0000930d       ?dispose@?$sp_counted_base_impl@PAVDirectXRenderer@DirectX9Renderer@@U?$checked_deleter@VDirectXRenderer@DirectX9Renderer@@@boost@@@detail@boost@@UAEXXZ 0040a30d f i DirectX9Renderer:DirectXRendererCreator.obj
 0001:0000930d       ?dispose@?$sp_counted_base_impl@PAVVertexBufferManager@Renderer@@U?$checked_deleter@VVertexBufferManager@Renderer@@@boost@@@detail@boost@@UAEXXZ 0040a30d f i DirectX9Renderer:DirectX9Renderer.obj
 0001:0000930d       ?dispose@?$sp_counted_base_impl@PAVExec@ConsoleCommands@@U?$checked_deleter@VExec@ConsoleCommands@@@boost@@@detail@boost@@UAEXXZ 0040a30d f i Core:Console.obj
 0001:0000930d       ?dispose@?$sp_counted_base_impl@PAVConsole@Core@@U?$checked_deleter@VConsole@Core@@@boost@@@detail@boost@@UAEXXZ 0040a30d f i OidFX:GameApplication.obj
 0001:0000930d       ?dispose@?$sp_counted_base_impl@PAVProxyType@?$Event@VConsoleOutputEventHandler@Core@@VIConsoleOutputListener@2@@Core@@U?$checked_deleter@VProxyType@?$Event@VConsoleOutputEventHandler@Core@@VIConsoleOutputListener@2@@Core@@@boost@@@detail@boost@@UAEXXZ 0040a30d f i Core:Console.obj
 0001:0000930d       ?dispose@?$sp_counted_base_impl@PAVOConsoleBuf@Console@Core@@U?$checked_deleter@VOConsoleBuf@Console@Core@@@boost@@@detail@boost@@UAEXXZ 0040a30d f i Core:Console.obj
 0001:0000930d       ?dispose@?$sp_counted_base_impl@PAVCmdList@ConsoleCommands@@U?$checked_deleter@VCmdList@ConsoleCommands@@@boost@@@detail@boost@@UAEXXZ 0040a30d f i Core:Console.obj
 0001:0000930d       ?dispose@?$sp_counted_base_impl@PAVRendererWindow@Renderer@@U?$checked_deleter@VRendererWindow@Renderer@@@boost@@@detail@boost@@UAEXXZ 0040a30d f i DirectX9Renderer:DirectX9Renderer.obj
 0001:0000930d       ?dispose@?$sp_counted_base_impl@PAVDirectXRendererCreator@DirectX9Renderer@@U?$checked_deleter@VDirectXRendererCreator@DirectX9Renderer@@@boost@@@detail@boost@@UAEXXZ 0040a30d f i OidFX:GameApplication.obj
 0001:0000930d       ?dispose@?$sp_counted_base_impl@PAVDirectXVertexBuffer@DirectX9Renderer@@U?$checked_deleter@VDirectXVertexBuffer@DirectX9Renderer@@@boost@@@detail@boost@@UAEXXZ 0040a30d f i DirectX9Renderer:DirectX9Renderer.obj
 0001:0000930d       ?dispose@?$sp_counted_base_impl@PAVCvarList@ConsoleCommands@@U?$checked_deleter@VCvarList@ConsoleCommands@@@boost@@@detail@boost@@UAEXXZ 0040a30d f i Core:Console.obj
 0001:0000930d       ?dispose@?$sp_counted_base_impl@PAVTerrainDemoApplication@TerrainDemo@@U?$checked_deleter@VTerrainDemoApplication@TerrainDemo@@@boost@@@detail@boost@@UAEXXZ 0040a30d f i Main.obj
 0001:0000930d       ?dispose@?$sp_counted_base_impl@PAVConsoleOutputEvent@Core@@U?$checked_deleter@VConsoleOutputEvent@Core@@@boost@@@detail@boost@@UAEXXZ 0040a30d f i Core:Console.obj
 0001:0000930d       ?dispose@?$sp_counted_base_impl@PAVDirectXVertexBufferCreator@DirectX9Renderer@@U?$checked_deleter@VDirectXVertexBufferCreator@DirectX9Renderer@@@boost@@@detail@boost@@UAEXXZ 0040a30d f i DirectX9Renderer:DirectX9Renderer.obj
 0001:00009327       ?get_deleter@?$sp_counted_base_impl@PAVProxyType@?$Event@VConsoleOutputEventHandler@Core@@VIConsoleOutputListener@2@@Core@@U?$checked_deleter@VProxyType@?$Event@VConsoleOutputEventHandler@Core@@VIConsoleOutputListener@2@@Core@@@boost@@@detail@boost@@UAEPAXABVtype_info@@@Z 0040a327 f i Core:Console.obj
 0001:0000934c       ?clear@?$_Rb_tree@IU?$pair@$$CBIV?$shared_ptr@VConsoleVariable@Core@@@boost@@@_STL@@U?$_Select1st@U?$pair@$$CBIV?$shared_ptr@VConsoleVariable@Core@@@boost@@@_STL@@@2@U?$less@I@2@V?$allocator@U?$pair@$$CBIV?$shared_ptr@VConsoleVariable@Core@@@boost@@@_STL@@@2@@_STL@@QAEXXZ 0040a34c f i Core:Console.obj
 0001:000093a0       ??1?$_Rb_tree_base@U?$pair@$$CBIV?$shared_ptr@VConsoleVariable@Core@@@boost@@@_STL@@V?$allocator@U?$pair@$$CBIV?$shared_ptr@VConsoleVariable@Core@@@boost@@@_STL@@@2@@_STL@@QAE@XZ 0040a3a0 f i Core:Console.obj
 0001:000093d9       ?clear@?$_Rb_tree@IU?$pair@$$CBIPAVConsoleCommand@Core@@@_STL@@U?$_Select1st@U?$pair@$$CBIPAVConsoleCommand@Core@@@_STL@@@2@U?$less@I@2@V?$allocator@U?$pair@$$CBIPAVConsoleCommand@Core@@@_STL@@@2@@_STL@@QAEXXZ 0040a3d9 f i Core:Console.obj
 0001:0000942d       ??1?$_Rb_tree_base@U?$pair@$$CBIPAVConsoleCommand@Core@@@_STL@@V?$allocator@U?$pair@$$CBIPAVConsoleCommand@Core@@@_STL@@@2@@_STL@@QAE@XZ 0040a42d f i Core:Console.obj
 0001:00009466       ?_M_root@?$_Rb_tree@IU?$pair@$$CBIV?$shared_ptr@VRendererCreator@Renderer@@@boost@@@_STL@@U?$_Select1st@U?$pair@$$CBIV?$shared_ptr@VRendererCreator@Renderer@@@boost@@@_STL@@@2@U?$less@I@2@V?$allocator@U?$pair@$$CBIV?$shared_ptr@VRendererCreator@Renderer@@@boost@@@_STL@@@2@@_STL@@IBEAAPAU?$_Rb_tree_node@U?$pair@$$CBIV?$shared_ptr@VRendererCreator@Renderer@@@boost@@@_STL@@@2@XZ 0040a466 f i OidFX:GameApplication.obj
 0001:00009466       ?_M_root@?$_Rb_tree@IU?$pair@$$CBIPAVConsoleCommand@Core@@@_STL@@U?$_Select1st@U?$pair@$$CBIPAVConsoleCommand@Core@@@_STL@@@2@U?$less@I@2@V?$allocator@U?$pair@$$CBIPAVConsoleCommand@Core@@@_STL@@@2@@_STL@@IBEAAPAU?$_Rb_tree_node@U?$pair@$$CBIPAVConsoleCommand@Core@@@_STL@@@2@XZ 0040a466 f i Core:Console.obj
 0001:00009466       ?_M_root@?$_Rb_tree@JU?$pair@$$CBJV?$basic_string@DV?$char_traits@D@_STL@@V?$allocator@D@2@@_STL@@@_STL@@U?$_Select1st@U?$pair@$$CBJV?$basic_string@DV?$char_traits@D@_STL@@V?$allocator@D@2@@_STL@@@_STL@@@2@U?$less@J@2@V?$allocator@U?$pair@$$CBJV?$basic_string@DV?$char_traits@D@_STL@@V?$allocator@D@2@@_STL@@@_STL@@@2@@_STL@@IBEAAPAU?$_Rb_tree_node@U?$pair@$$CBJV?$basic_string@DV?$char_traits@D@_STL@@V?$allocator@D@2@@_STL@@@_STL@@@2@XZ 0040a466 f i DirectX9Renderer:ErrorCodes.obj
 0001:00009466       ?_M_root@?$_Rb_tree@W4_D3DFORMAT@@U?$pair@$$CBW4_D3DFORMAT@@V?$basic_string@DV?$char_traits@D@_STL@@V?$allocator@D@2@@_STL@@@_STL@@U?$_Select1st@U?$pair@$$CBW4_D3DFORMAT@@V?$basic_string@DV?$char_traits@D@_STL@@V?$allocator@D@2@@_STL@@@_STL@@@3@U?$less@W4_D3DFORMAT@@@3@V?$allocator@U?$pair@$$CBW4_D3DFORMAT@@V?$basic_string@DV?$char_traits@D@_STL@@V?$allocator@D@2@@_STL@@@_STL@@@3@@_STL@@IBEAAPAU?$_Rb_tree_node@U?$pair@$$CBW4_D3DFORMAT@@V?$basic_string@DV?$char_traits@D@_STL@@V?$allocator@D@2@@_STL@@@_STL@@@2@XZ 0040a466 f i DirectX9Renderer:Formats.obj
 0001:00009466       ?_M_root@?$_Rb_tree@IU?$pair@$$CBIV?$shared_ptr@VConsoleVariable@Core@@@boost@@@_STL@@U?$_Select1st@U?$pair@$$CBIV?$shared_ptr@VConsoleVariable@Core@@@boost@@@_STL@@@2@U?$less@I@2@V?$allocator@U?$pair@$$CBIV?$shared_ptr@VConsoleVariable@Core@@@boost@@@_STL@@@2@@_STL@@IBEAAPAU?$_Rb_tree_node@U?$pair@$$CBIV?$shared_ptr@VConsoleVariable@Core@@@boost@@@_STL@@@2@XZ 0040a466 f i Core:Console.obj
 0001:00009477       ?deallocate@?$allocator@U?$_Rb_tree_node@U?$pair@$$CBIV?$shared_ptr@VRendererCreator@Renderer@@@boost@@@_STL@@@_STL@@@_STL@@QAEXPAU?$_Rb_tree_node@U?$pair@$$CBIV?$shared_ptr@VRendererCreator@Renderer@@@boost@@@_STL@@@2@I@Z 0040a477 f i OidFX:GameApplication.obj
 0001:00009477       ?deallocate@?$allocator@U?$_Rb_tree_node@U?$pair@$$CBIV?$shared_ptr@VConsoleVariable@Core@@@boost@@@_STL@@@_STL@@@_STL@@QAEXPAU?$_Rb_tree_node@U?$pair@$$CBIV?$shared_ptr@VConsoleVariable@Core@@@boost@@@_STL@@@2@I@Z 0040a477 f i Core:Console.obj
 0001:0000949a       ?deallocate@?$allocator@U?$_Rb_tree_node@U?$pair@$$CBIPAVConsoleCommand@Core@@@_STL@@@_STL@@@_STL@@QAEXPAU?$_Rb_tree_node@U?$pair@$$CBIPAVConsoleCommand@Core@@@_STL@@@2@I@Z 0040a49a f i Core:Console.obj
 0001:000094bd       ?_Destroy@_STL@@YAXPAVany@boost@@@Z 0040a4bd f i Core:Console.obj
 0001:000094cc       ?_M_erase@?$_Rb_tree@IU?$pair@$$CBIV?$shared_ptr@VConsoleVariable@Core@@@boost@@@_STL@@U?$_Select1st@U?$pair@$$CBIV?$shared_ptr@VConsoleVariable@Core@@@boost@@@_STL@@@2@U?$less@I@2@V?$allocator@U?$pair@$$CBIV?$shared_ptr@VConsoleVariable@Core@@@boost@@@_STL@@@2@@_STL@@AAEXPAU?$_Rb_tree_node@U?$pair@$$CBIV?$shared_ptr@VConsoleVariable@Core@@@boost@@@_STL@@@2@@Z 0040a4cc f i Core:Console.obj
 0001:00009521       ?_M_erase@?$_Rb_tree@IU?$pair@$$CBIPAVConsoleCommand@Core@@@_STL@@U?$_Select1st@U?$pair@$$CBIPAVConsoleCommand@Core@@@_STL@@@2@U?$less@I@2@V?$allocator@U?$pair@$$CBIPAVConsoleCommand@Core@@@_STL@@@2@@_STL@@AAEXPAU?$_Rb_tree_node@U?$pair@$$CBIPAVConsoleCommand@Core@@@_STL@@@2@@Z 0040a521 f i Core:Console.obj
 0001:00009576       ??_Gany@boost@@QAEPAXI@Z   0040a576 f i Core:Console.obj
 0001:0000959f       ?_Destroy@_STL@@YAXPAU?$pair@$$CBIV?$shared_ptr@VRendererCreator@Renderer@@@boost@@@1@@Z 0040a59f f i OidFX:GameApplication.obj
 0001:0000959f       ?_Destroy@_STL@@YAXPAU?$pair@$$CBIV?$shared_ptr@VConsoleVariable@Core@@@boost@@@1@@Z 0040a59f f i Core:Console.obj
 0001:000095ae       ??_G?$pair@$$CBIV?$shared_ptr@VConsoleVariable@Core@@@boost@@@_STL@@QAEPAXI@Z 0040a5ae f i Core:Console.obj
 0001:000095ae       ??_G?$pair@$$CBIV?$shared_ptr@VRendererCreator@Renderer@@@boost@@@_STL@@QAEPAXI@Z 0040a5ae f i OidFX:GameApplication.obj
 0001:000095d7       ??1?$pair@$$CBIV?$shared_ptr@VRendererCreator@Renderer@@@boost@@@_STL@@QAE@XZ 0040a5d7 f i OidFX:GameApplication.obj
 0001:000095d7       ??1?$pair@$$CBIV?$shared_ptr@VConsoleVariable@Core@@@boost@@@_STL@@QAE@XZ 0040a5d7 f i Core:Console.obj
 0001:000095d7       ??1?$pair@IV?$shared_ptr@VRendererCreator@Renderer@@@boost@@@_STL@@QAE@XZ 0040a5d7 f i Renderer:RendererFactory.obj
 0001:000095eb       ??0ConsoleVariableManager@Core@@QAE@XZ 0040a5eb f   Core:ConsoleVariableManager.obj
 0001:000095ff       ?GetVariable@ConsoleVariableManager@Core@@QAE?AV?$shared_ptr@VConsoleVariable@Core@@@boost@@AAVConsoleVariable@2@V?$bitset@$03@_STL@@@Z 0040a5ff f   Core:ConsoleVariableManager.obj
 0001:000097b0       ??0ConsoleVariable@Core@@QAE@ABV01@@Z 0040a7b0 f i Core:ConsoleVariableManager.obj
 0001:00009806       ??4ConsoleVariable@Core@@QAEAAV01@ABV01@@Z 0040a806 f i Core:ConsoleVariableManager.obj
 0001:00009843       ?GenerateHashFromString@Core@@YAIPBD@Z 0040a843 f i Core:ConsoleVariableManager.obj
 0001:00009870       ??0?$map@IV?$shared_ptr@VConsoleVariable@Core@@@boost@@U?$less@I@_STL@@V?$allocator@U?$pair@$$CBIV?$shared_ptr@VConsoleVariable@Core@@@boost@@@_STL@@@4@@_STL@@QAE@XZ 0040a870 f i Core:ConsoleVariableManager.obj
 0001:000098c3       ??A?$map@IV?$shared_ptr@VConsoleVariable@Core@@@boost@@U?$less@I@_STL@@V?$allocator@U?$pair@$$CBIV?$shared_ptr@VConsoleVariable@Core@@@boost@@@_STL@@@4@@_STL@@QAEAAV?$shared_ptr@VConsoleVariable@Core@@@boost@@ABI@Z 0040a8c3 f i Core:ConsoleVariableManager.obj
 0001:000099ad       ?insert@?$map@IV?$shared_ptr@VConsoleVariable@Core@@@boost@@U?$less@I@_STL@@V?$allocator@U?$pair@$$CBIV?$shared_ptr@VConsoleVariable@Core@@@boost@@@_STL@@@4@@_STL@@QAE?AU?$_Rb_tree_iterator@U?$pair@$$CBIV?$shared_ptr@VConsoleVariable@Core@@@boost@@@_STL@@U?$_Nonconst_traits@U?$pair@$$CBIV?$shared_ptr@VConsoleVariable@Core@@@boost@@@_STL@@@2@@2@U32@ABU?$pair@$$CBIV?$shared_ptr@VConsoleVariable@Core@@@boost@@@2@@Z 0040a9ad f i Core:ConsoleVariableManager.obj
 0001:000099d6       ?lower_bound@?$map@IV?$shared_ptr@VConsoleVariable@Core@@@boost@@U?$less@I@_STL@@V?$allocator@U?$pair@$$CBIV?$shared_ptr@VConsoleVariable@Core@@@boost@@@_STL@@@4@@_STL@@QAE?AU?$_Rb_tree_iterator@U?$pair@$$CBIV?$shared_ptr@VConsoleVariable@Core@@@boost@@@_STL@@U?$_Nonconst_traits@U?$pair@$$CBIV?$shared_ptr@VConsoleVariable@Core@@@boost@@@_STL@@@2@@2@ABI@Z 0040a9d6 f i Core:ConsoleVariableManager.obj
 0001:000099d6       ?lower_bound@?$map@IPAVConsoleCommand@Core@@U?$less@I@_STL@@V?$allocator@U?$pair@$$CBIPAVConsoleCommand@Core@@@_STL@@@4@@_STL@@QAE?AU?$_Rb_tree_iterator@U?$pair@$$CBIPAVConsoleCommand@Core@@@_STL@@U?$_Nonconst_traits@U?$pair@$$CBIPAVConsoleCommand@Core@@@_STL@@@2@@2@ABI@Z 0040a9d6 f i Core:ConsoleCommandManager.obj
 0001:000099f2       ??R?$less@I@_STL@@QBE_NABI0@Z 0040a9f2 f i Core:ConsoleVariableManager.obj
 0001:00009a0b       ??0?$_Rb_tree@IU?$pair@$$CBIV?$shared_ptr@VConsoleVariable@Core@@@boost@@@_STL@@U?$_Select1st@U?$pair@$$CBIV?$shared_ptr@VConsoleVariable@Core@@@boost@@@_STL@@@2@U?$less@I@2@V?$allocator@U?$pair@$$CBIV?$shared_ptr@VConsoleVariable@Core@@@boost@@@_STL@@@2@@_STL@@QAE@ABU?$less@I@1@ABV?$allocator@U?$pair@$$CBIV?$shared_ptr@VConsoleVariable@Core@@@boost@@@_STL@@@1@@Z 0040aa0b f i Core:ConsoleVariableManager.obj
 0001:00009a57       ?_M_empty_initialize@?$_Rb_tree@IU?$pair@$$CBIPAVConsoleCommand@Core@@@_STL@@U?$_Select1st@U?$pair@$$CBIPAVConsoleCommand@Core@@@_STL@@@2@U?$less@I@2@V?$allocator@U?$pair@$$CBIPAVConsoleCommand@Core@@@_STL@@@2@@_STL@@AAEXXZ 0040aa57 f i Core:ConsoleCommandManager.obj
 0001:00009a57       ?_M_empty_initialize@?$_Rb_tree@IU?$pair@$$CBIV?$shared_ptr@VRendererCreator@Renderer@@@boost@@@_STL@@U?$_Select1st@U?$pair@$$CBIV?$shared_ptr@VRendererCreator@Renderer@@@boost@@@_STL@@@2@U?$less@I@2@V?$allocator@U?$pair@$$CBIV?$shared_ptr@VRendererCreator@Renderer@@@boost@@@_STL@@@2@@_STL@@AAEXXZ 0040aa57 f i Renderer:RendererFactory.obj
 0001:00009a57       ?_M_empty_initialize@?$_Rb_tree@W4_D3DFORMAT@@U?$pair@$$CBW4_D3DFORMAT@@V?$basic_string@DV?$char_traits@D@_STL@@V?$allocator@D@2@@_STL@@@_STL@@U?$_Select1st@U?$pair@$$CBW4_D3DFORMAT@@V?$basic_string@DV?$char_traits@D@_STL@@V?$allocator@D@2@@_STL@@@_STL@@@3@U?$less@W4_D3DFORMAT@@@3@V?$allocator@U?$pair@$$CBW4_D3DFORMAT@@V?$basic_string@DV?$char_traits@D@_STL@@V?$allocator@D@2@@_STL@@@_STL@@@3@@_STL@@AAEXXZ 0040aa57 f i DirectX9Renderer:Formats.obj
 0001:00009a57       ?_M_empty_initialize@?$_Rb_tree@IU?$pair@$$CBIV?$shared_ptr@VConsoleVariable@Core@@@boost@@@_STL@@U?$_Select1st@U?$pair@$$CBIV?$shared_ptr@VConsoleVariable@Core@@@boost@@@_STL@@@2@U?$less@I@2@V?$allocator@U?$pair@$$CBIV?$shared_ptr@VConsoleVariable@Core@@@boost@@@_STL@@@2@@_STL@@AAEXXZ 0040aa57 f i Core:ConsoleVariableManager.obj
 0001:00009a57       ?_M_empty_initialize@?$_Rb_tree@JU?$pair@$$CBJV?$basic_string@DV?$char_traits@D@_STL@@V?$allocator@D@2@@_STL@@@_STL@@U?$_Select1st@U?$pair@$$CBJV?$basic_string@DV?$char_traits@D@_STL@@V?$allocator@D@2@@_STL@@@_STL@@@2@U?$less@J@2@V?$allocator@U?$pair@$$CBJV?$basic_string@DV?$char_traits@D@_STL@@V?$allocator@D@2@@_STL@@@_STL@@@2@@_STL@@AAEXXZ 0040aa57 f i DirectX9Renderer:ErrorCodes.obj
 0001:00009a97       ??0?$_Rb_tree_base@U?$pair@$$CBIV?$shared_ptr@VConsoleVariable@Core@@@boost@@@_STL@@V?$allocator@U?$pair@$$CBIV?$shared_ptr@VConsoleVariable@Core@@@boost@@@_STL@@@2@@_STL@@QAE@ABV?$allocator@U?$pair@$$CBIV?$shared_ptr@VConsoleVariable@Core@@@boost@@@_STL@@@1@@Z 0040aa97 f i Core:ConsoleVariableManager.obj
 0001:00009af5       ?_M_lower_bound@?$_Rb_tree@IU?$pair@$$CBIPAVConsoleCommand@Core@@@_STL@@U?$_Select1st@U?$pair@$$CBIPAVConsoleCommand@Core@@@_STL@@@2@U?$less@I@2@V?$allocator@U?$pair@$$CBIPAVConsoleCommand@Core@@@_STL@@@2@@_STL@@ABEPAU?$_Rb_tree_node@U?$pair@$$CBIPAVConsoleCommand@Core@@@_STL@@@2@ABI@Z 0040aaf5 f i Core:ConsoleCommandManager.obj
 0001:00009af5       ?_M_lower_bound@?$_Rb_tree@IU?$pair@$$CBIV?$shared_ptr@VConsoleVariable@Core@@@boost@@@_STL@@U?$_Select1st@U?$pair@$$CBIV?$shared_ptr@VConsoleVariable@Core@@@boost@@@_STL@@@2@U?$less@I@2@V?$allocator@U?$pair@$$CBIV?$shared_ptr@VConsoleVariable@Core@@@boost@@@_STL@@@2@@_STL@@ABEPAU?$_Rb_tree_node@U?$pair@$$CBIV?$shared_ptr@VConsoleVariable@Core@@@boost@@@_STL@@@2@ABI@Z 0040aaf5 f i Core:ConsoleVariableManager.obj
 0001:00009b65       ?insert_unique@?$_Rb_tree@IU?$pair@$$CBIV?$shared_ptr@VConsoleVariable@Core@@@boost@@@_STL@@U?$_Select1st@U?$pair@$$CBIV?$shared_ptr@VConsoleVariable@Core@@@boost@@@_STL@@@2@U?$less@I@2@V?$allocator@U?$pair@$$CBIV?$shared_ptr@VConsoleVariable@Core@@@boost@@@_STL@@@2@@_STL@@QAE?AU?$_Rb_tree_iterator@U?$pair@$$CBIV?$shared_ptr@VConsoleVariable@Core@@@boost@@@_STL@@U?$_Nonconst_traits@U?$pair@$$CBIV?$shared_ptr@VConsoleVariable@Core@@@boost@@@_STL@@@2@@2@U32@ABU?$pair@$$CBIV?$shared_ptr@VConsoleVariable@Core@@@boost@@@2@@Z 0040ab65 f i Core:ConsoleVariableManager.obj
 0001:00009f3d       ??0?$crc_optimal@$0CA@$0EMBBNLH@$0?0$0?0$00$00@boost@@QAE@I@Z 0040af3d f i Core:ConsoleVariableManager.obj
 0001:00009f5e       ?process_bytes@?$crc_optimal@$0CA@$0EMBBNLH@$0?0$0?0$00$00@boost@@QAEXPBXI@Z 0040af5e f i Core:ConsoleVariableManager.obj
 0001:00009f82       ?checksum@?$crc_optimal@$0CA@$0EMBBNLH@$0?0$0?0$00$00@boost@@QBEIXZ 0040af82 f i Core:ConsoleVariableManager.obj
 0001:00009fa4       ??0?$shared_ptr@VConsoleVariable@Core@@@boost@@QAE@PAVConsoleVariable@Core@@@Z 0040afa4 f i Core:ConsoleVariableManager.obj
 0001:00009ffa       ?__default_constructed@_STL@@YA?AV?$shared_ptr@VConsoleVariable@Core@@@boost@@PAV23@@Z 0040affa f i Core:ConsoleVariableManager.obj
 0001:0000a023       ?_S_key@?$_Rb_tree@IU?$pair@$$CBIV?$shared_ptr@VRendererCreator@Renderer@@@boost@@@_STL@@U?$_Select1st@U?$pair@$$CBIV?$shared_ptr@VRendererCreator@Renderer@@@boost@@@_STL@@@2@U?$less@I@2@V?$allocator@U?$pair@$$CBIV?$shared_ptr@VRendererCreator@Renderer@@@boost@@@_STL@@@2@@_STL@@KAABIPAU?$_Rb_tree_node@U?$pair@$$CBIV?$shared_ptr@VRendererCreator@Renderer@@@boost@@@_STL@@@2@@Z 0040b023 f i Renderer:RendererFactory.obj
 0001:0000a023       ?_S_key@?$_Rb_tree@IU?$pair@$$CBIV?$shared_ptr@VRendererCreator@Renderer@@@boost@@@_STL@@U?$_Select1st@U?$pair@$$CBIV?$shared_ptr@VRendererCreator@Renderer@@@boost@@@_STL@@@2@U?$less@I@2@V?$allocator@U?$pair@$$CBIV?$shared_ptr@VRendererCreator@Renderer@@@boost@@@_STL@@@2@@_STL@@KAABIPAU_Rb_tree_node_base@2@@Z 0040b023 f i Renderer:RendererFactory.obj
 0001:0000a023       ?_S_key@?$_Rb_tree@IU?$pair@$$CBIPAVConsoleCommand@Core@@@_STL@@U?$_Select1st@U?$pair@$$CBIPAVConsoleCommand@Core@@@_STL@@@2@U?$less@I@2@V?$allocator@U?$pair@$$CBIPAVConsoleCommand@Core@@@_STL@@@2@@_STL@@KAABIPAU_Rb_tree_node_base@2@@Z 0040b023 f i Core:ConsoleCommandManager.obj
 0001:0000a023       ?_S_key@?$_Rb_tree@IU?$pair@$$CBIPAVConsoleCommand@Core@@@_STL@@U?$_Select1st@U?$pair@$$CBIPAVConsoleCommand@Core@@@_STL@@@2@U?$less@I@2@V?$allocator@U?$pair@$$CBIPAVConsoleCommand@Core@@@_STL@@@2@@_STL@@KAABIPAU?$_Rb_tree_node@U?$pair@$$CBIPAVConsoleCommand@Core@@@_STL@@@2@@Z 0040b023 f i Core:ConsoleCommandManager.obj
 0001:0000a023       ?_S_key@?$_Rb_tree@IU?$pair@$$CBIV?$shared_ptr@VConsoleVariable@Core@@@boost@@@_STL@@U?$_Select1st@U?$pair@$$CBIV?$shared_ptr@VConsoleVariable@Core@@@boost@@@_STL@@@2@U?$less@I@2@V?$allocator@U?$pair@$$CBIV?$shared_ptr@VConsoleVariable@Core@@@boost@@@_STL@@@2@@_STL@@KAABIPAU_Rb_tree_node_base@2@@Z 0040b023 f i Core:ConsoleVariableManager.obj
 0001:0000a023       ?_S_key@?$_Rb_tree@IU?$pair@$$CBIV?$shared_ptr@VConsoleVariable@Core@@@boost@@@_STL@@U?$_Select1st@U?$pair@$$CBIV?$shared_ptr@VConsoleVariable@Core@@@boost@@@_STL@@@2@U?$less@I@2@V?$allocator@U?$pair@$$CBIV?$shared_ptr@VConsoleVariable@Core@@@boost@@@_STL@@@2@@_STL@@KAABIPAU?$_Rb_tree_node@U?$pair@$$CBIV?$shared_ptr@VConsoleVariable@Core@@@boost@@@_STL@@@2@@Z 0040b023 f i Core:ConsoleVariableManager.obj
 0001:0000a023       ?_S_key@?$_Rb_tree@JU?$pair@$$CBJV?$basic_string@DV?$char_traits@D@_STL@@V?$allocator@D@2@@_STL@@@_STL@@U?$_Select1st@U?$pair@$$CBJV?$basic_string@DV?$char_traits@D@_STL@@V?$allocator@D@2@@_STL@@@_STL@@@2@U?$less@J@2@V?$allocator@U?$pair@$$CBJV?$basic_string@DV?$char_traits@D@_STL@@V?$allocator@D@2@@_STL@@@_STL@@@2@@_STL@@KAABJPAU?$_Rb_tree_node@U?$pair@$$CBJV?$basic_string@DV?$char_traits@D@_STL@@V?$allocator@D@2@@_STL@@@_STL@@@2@@Z 0040b023 f i DirectX9Renderer:ErrorCodes.obj
 0001:0000a023       ?_S_key@?$_Rb_tree@JU?$pair@$$CBJV?$basic_string@DV?$char_traits@D@_STL@@V?$allocator@D@2@@_STL@@@_STL@@U?$_Select1st@U?$pair@$$CBJV?$basic_string@DV?$char_traits@D@_STL@@V?$allocator@D@2@@_STL@@@_STL@@@2@U?$less@J@2@V?$allocator@U?$pair@$$CBJV?$basic_string@DV?$char_traits@D@_STL@@V?$allocator@D@2@@_STL@@@_STL@@@2@@_STL@@KAABJPAU_Rb_tree_node_base@2@@Z 0040b023 f i DirectX9Renderer:ErrorCodes.obj
 0001:0000a023       ?_S_key@?$_Rb_tree@W4_D3DFORMAT@@U?$pair@$$CBW4_D3DFORMAT@@V?$basic_string@DV?$char_traits@D@_STL@@V?$allocator@D@2@@_STL@@@_STL@@U?$_Select1st@U?$pair@$$CBW4_D3DFORMAT@@V?$basic_string@DV?$char_traits@D@_STL@@V?$allocator@D@2@@_STL@@@_STL@@@3@U?$less@W4_D3DFORMAT@@@3@V?$allocator@U?$pair@$$CBW4_D3DFORMAT@@V?$basic_string@DV?$char_traits@D@_STL@@V?$allocator@D@2@@_STL@@@_STL@@@3@@_STL@@KAABW4_D3DFORMAT@@PAU?$_Rb_tree_node@U?$pair@$$CBW4_D3DFORMAT@@V?$basic_string@DV?$char_traits@D@_STL@@V?$allocator@D@2@@_STL@@@_STL@@@2@@Z 0040b023 f i DirectX9Renderer:Formats.obj
 0001:0000a023       ?_S_key@?$_Rb_tree@W4_D3DFORMAT@@U?$pair@$$CBW4_D3DFORMAT@@V?$basic_string@DV?$char_traits@D@_STL@@V?$allocator@D@2@@_STL@@@_STL@@U?$_Select1st@U?$pair@$$CBW4_D3DFORMAT@@V?$basic_string@DV?$char_traits@D@_STL@@V?$allocator@D@2@@_STL@@@_STL@@@3@U?$less@W4_D3DFORMAT@@@3@V?$allocator@U?$pair@$$CBW4_D3DFORMAT@@V?$basic_string@DV?$char_traits@D@_STL@@V?$allocator@D@2@@_STL@@@_STL@@@3@@_STL@@KAABW4_D3DFORMAT@@PAU_Rb_tree_node_base@2@@Z 0040b023 f i DirectX9Renderer:Formats.obj
 0001:0000a03b       ??F?$_Rb_tree_iterator@U?$pair@$$CBIPAVConsoleCommand@Core@@@_STL@@U?$_Nonconst_traits@U?$pair@$$CBIPAVConsoleCommand@Core@@@_STL@@@2@@_STL@@QAEAAU01@XZ 0040b03b f i Core:ConsoleCommandManager.obj
 0001:0000a03b       ??F?$_Rb_tree_iterator@U?$pair@$$CBJV?$basic_string@DV?$char_traits@D@_STL@@V?$allocator@D@2@@_STL@@@_STL@@U?$_Nonconst_traits@U?$pair@$$CBJV?$basic_string@DV?$char_traits@D@_STL@@V?$allocator@D@2@@_STL@@@_STL@@@2@@_STL@@QAEAAU01@XZ 0040b03b f i DirectX9Renderer:ErrorCodes.obj
 0001:0000a03b       ??F?$_Rb_tree_iterator@U?$pair@$$CBIV?$shared_ptr@VConsoleVariable@Core@@@boost@@@_STL@@U?$_Nonconst_traits@U?$pair@$$CBIV?$shared_ptr@VConsoleVariable@Core@@@boost@@@_STL@@@2@@_STL@@QAEAAU01@XZ 0040b03b f i Core:ConsoleVariableManager.obj
 0001:0000a03b       ??F?$_Rb_tree_iterator@U?$pair@$$CBIV?$shared_ptr@VRendererCreator@Renderer@@@boost@@@_STL@@U?$_Nonconst_traits@U?$pair@$$CBIV?$shared_ptr@VRendererCreator@Renderer@@@boost@@@_STL@@@2@@_STL@@QAEAAU01@XZ 0040b03b f i Renderer:RendererFactory.obj
 0001:0000a03b       ??F?$_Rb_tree_iterator@U?$pair@$$CBW4_D3DFORMAT@@V?$basic_string@DV?$char_traits@D@_STL@@V?$allocator@D@2@@_STL@@@_STL@@U?$_Nonconst_traits@U?$pair@$$CBW4_D3DFORMAT@@V?$basic_string@DV?$char_traits@D@_STL@@V?$allocator@D@2@@_STL@@@_STL@@@2@@_STL@@QAEAAU01@XZ 0040b03b f i DirectX9Renderer:Formats.obj
 0001:0000a058       ?reflect@?$crc_helper@$0CA@$00@detail@boost@@SAII@Z 0040b058 f i Core:ConsoleVariableManager.obj
 0001:0000a07c       ?reflect@?$crc_helper@$0CA@$0A@@detail@boost@@SAII@Z 0040b07c f i Core:ConsoleVariableManager.obj
 0001:0000a09f       ?_M_insert@?$_Rb_tree@IU?$pair@$$CBIV?$shared_ptr@VConsoleVariable@Core@@@boost@@@_STL@@U?$_Select1st@U?$pair@$$CBIV?$shared_ptr@VConsoleVariable@Core@@@boost@@@_STL@@@2@U?$less@I@2@V?$allocator@U?$pair@$$CBIV?$shared_ptr@VConsoleVariable@Core@@@boost@@@_STL@@@2@@_STL@@AAE?AU?$_Rb_tree_iterator@U?$pair@$$CBIV?$shared_ptr@VConsoleVariable@Core@@@boost@@@_STL@@U?$_Nonconst_traits@U?$pair@$$CBIV?$shared_ptr@VConsoleVariable@Core@@@boost@@@_STL@@@2@@2@PAU_Rb_tree_node_base@2@0ABU?$pair@$$CBIV?$shared_ptr@VConsoleVariable@Core@@@boost@@@2@0@Z 0040b09f f i Core:ConsoleVariableManager.obj
 0001:0000a1ed       ?insert_unique@?$_Rb_tree@IU?$pair@$$CBIV?$shared_ptr@VConsoleVariable@Core@@@boost@@@_STL@@U?$_Select1st@U?$pair@$$CBIV?$shared_ptr@VConsoleVariable@Core@@@boost@@@_STL@@@2@U?$less@I@2@V?$allocator@U?$pair@$$CBIV?$shared_ptr@VConsoleVariable@Core@@@boost@@@_STL@@@2@@_STL@@QAE?AU?$pair@U?$_Rb_tree_iterator@U?$pair@$$CBIV?$shared_ptr@VConsoleVariable@Core@@@boost@@@_STL@@U?$_Nonconst_traits@U?$pair@$$CBIV?$shared_ptr@VConsoleVariable@Core@@@boost@@@_STL@@@2@@_STL@@_N@2@ABU?$pair@$$CBIV?$shared_ptr@VConsoleVariable@Core@@@boost@@@2@@Z 0040b1ed f i Core:ConsoleVariableManager.obj
 0001:0000a341       ?get_final_xor_value@?$crc_optimal@$0CA@$0EMBBNLH@$0?0$0?0$00$00@boost@@QBEIXZ 0040b341 f i Core:ConsoleVariableManager.obj
 0001:0000a34d       ?process_block@?$crc_optimal@$0CA@$0EMBBNLH@$0?0$0?0$00$00@boost@@QAEXPBX0@Z 0040b34d f i Core:ConsoleVariableManager.obj
 0001:0000a3ad       ?init_table@?$crc_table_t@$0CA@$0EMBBNLH@$00@detail@boost@@SAXXZ 0040b3ad f i Core:ConsoleVariableManager.obj
 0001:0000a46d       ??0shared_count@detail@boost@@QAE@PAVConsoleVariable@Core@@U?$checked_deleter@VConsoleVariable@Core@@@2@@Z 0040b46d f i Core:ConsoleVariableManager.obj
 0001:0000a506       ?__default_constructed_aux@_STL@@YA?AV?$shared_ptr@VConsoleVariable@Core@@@boost@@PAV23@ABU__false_type@1@@Z 0040b506 f i Core:ConsoleVariableManager.obj
 0001:0000a524       ?reflect@?$reflector@$0CA@@detail@boost@@SAII@Z 0040b524 f i Core:ConsoleVariableManager.obj
 0001:0000a574       ?_M_create_node@?$_Rb_tree@IU?$pair@$$CBIV?$shared_ptr@VConsoleVariable@Core@@@boost@@@_STL@@U?$_Select1st@U?$pair@$$CBIV?$shared_ptr@VConsoleVariable@Core@@@boost@@@_STL@@@2@U?$less@I@2@V?$allocator@U?$pair@$$CBIV?$shared_ptr@VConsoleVariable@Core@@@boost@@@_STL@@@2@@_STL@@IAEPAU?$_Rb_tree_node@U?$pair@$$CBIV?$shared_ptr@VConsoleVariable@Core@@@boost@@@_STL@@@2@ABU?$pair@$$CBIV?$shared_ptr@VConsoleVariable@Core@@@boost@@@2@@Z 0040b574 f i Core:ConsoleVariableManager.obj
 0001:0000a5de       ?_S_parent@?$_Rb_tree@JU?$pair@$$CBJV?$basic_string@DV?$char_traits@D@_STL@@V?$allocator@D@2@@_STL@@@_STL@@U?$_Select1st@U?$pair@$$CBJV?$basic_string@DV?$char_traits@D@_STL@@V?$allocator@D@2@@_STL@@@_STL@@@2@U?$less@J@2@V?$allocator@U?$pair@$$CBJV?$basic_string@DV?$char_traits@D@_STL@@V?$allocator@D@2@@_STL@@@_STL@@@2@@_STL@@KAAAPAU?$_Rb_tree_node@U?$pair@$$CBJV?$basic_string@DV?$char_traits@D@_STL@@V?$allocator@D@2@@_STL@@@_STL@@@2@PAU32@@Z 0040b5de f i DirectX9Renderer:ErrorCodes.obj
 0001:0000a5de       ?_S_parent@?$_Rb_tree@W4_D3DFORMAT@@U?$pair@$$CBW4_D3DFORMAT@@V?$basic_string@DV?$char_traits@D@_STL@@V?$allocator@D@2@@_STL@@@_STL@@U?$_Select1st@U?$pair@$$CBW4_D3DFORMAT@@V?$basic_string@DV?$char_traits@D@_STL@@V?$allocator@D@2@@_STL@@@_STL@@@3@U?$less@W4_D3DFORMAT@@@3@V?$allocator@U?$pair@$$CBW4_D3DFORMAT@@V?$basic_string@DV?$char_traits@D@_STL@@V?$allocator@D@2@@_STL@@@_STL@@@3@@_STL@@KAAAPAU?$_Rb_tree_node@U?$pair@$$CBW4_D3DFORMAT@@V?$basic_string@DV?$char_traits@D@_STL@@V?$allocator@D@2@@_STL@@@_STL@@@2@PAU32@@Z 0040b5de f i DirectX9Renderer:Formats.obj
 0001:0000a5de       ?_S_parent@?$_Rb_tree@IU?$pair@$$CBIV?$shared_ptr@VRendererCreator@Renderer@@@boost@@@_STL@@U?$_Select1st@U?$pair@$$CBIV?$shared_ptr@VRendererCreator@Renderer@@@boost@@@_STL@@@2@U?$less@I@2@V?$allocator@U?$pair@$$CBIV?$shared_ptr@VRendererCreator@Renderer@@@boost@@@_STL@@@2@@_STL@@KAAAPAU?$_Rb_tree_node@U?$pair@$$CBIV?$shared_ptr@VRendererCreator@Renderer@@@boost@@@_STL@@@2@PAU32@@Z 0040b5de f i Renderer:RendererFactory.obj
 0001:0000a5de       ?_S_parent@?$_Rb_tree@IU?$pair@$$CBIPAVConsoleCommand@Core@@@_STL@@U?$_Select1st@U?$pair@$$CBIPAVConsoleCommand@Core@@@_STL@@@2@U?$less@I@2@V?$allocator@U?$pair@$$CBIPAVConsoleCommand@Core@@@_STL@@@2@@_STL@@KAAAPAU?$_Rb_tree_node@U?$pair@$$CBIPAVConsoleCommand@Core@@@_STL@@@2@PAU32@@Z 0040b5de f i Core:ConsoleCommandManager.obj
 0001:0000a5de       ?_S_parent@?$_Rb_tree@IU?$pair@$$CBIV?$shared_ptr@VConsoleVariable@Core@@@boost@@@_STL@@U?$_Select1st@U?$pair@$$CBIV?$shared_ptr@VConsoleVariable@Core@@@boost@@@_STL@@@2@U?$less@I@2@V?$allocator@U?$pair@$$CBIV?$shared_ptr@VConsoleVariable@Core@@@boost@@@_STL@@@2@@_STL@@KAAAPAU?$_Rb_tree_node@U?$pair@$$CBIV?$shared_ptr@VConsoleVariable@Core@@@boost@@@_STL@@@2@PAU32@@Z 0040b5de f i Core:ConsoleVariableManager.obj
 0001:0000a5e9       ?index@?$crc_helper@$0CA@$00@detail@boost@@SAEIE@Z 0040b5e9 f i Core:ConsoleVariableManager.obj
 0001:0000a627       ?shift@?$crc_helper@$0CA@$00@detail@boost@@SAII@Z 0040b627 f i Core:ConsoleVariableManager.obj
 0001:0000a64b       ??R?$checked_deleter@VConsoleVariable@Core@@@boost@@QBEXPAVConsoleVariable@Core@@@Z 0040b64b f i Core:ConsoleVariableManager.obj
 0001:0000a65f       ?reflect@?$crc_helper@$07$00@detail@boost@@SAEE@Z 0040b65f f i Core:ConsoleVariableManager.obj
 0001:0000a683       ??0?$sp_counted_base_impl@PAVConsoleVariable@Core@@U?$checked_deleter@VConsoleVariable@Core@@@boost@@@detail@boost@@QAE@PAVConsoleVariable@Core@@U?$checked_deleter@VConsoleVariable@Core@@@2@@Z 0040b683 f i Core:ConsoleVariableManager.obj
 0001:0000a6b4       ?dispose@?$sp_counted_base_impl@PAVConsoleVariable@Core@@U?$checked_deleter@VConsoleVariable@Core@@@boost@@@detail@boost@@UAEXXZ 0040b6b4 f i Core:ConsoleVariableManager.obj
 0001:0000a6ce       ?get_deleter@?$sp_counted_base_impl@PAVConsoleVariable@Core@@U?$checked_deleter@VConsoleVariable@Core@@@boost@@@detail@boost@@UAEPAXABVtype_info@@@Z 0040b6ce f i Core:ConsoleVariableManager.obj
 0001:0000a6f3       ?_Construct@_STL@@YAXPAU?$pair@$$CBIV?$shared_ptr@VConsoleVariable@Core@@@boost@@@1@ABU21@@Z 0040b6f3 f i Core:ConsoleVariableManager.obj
 0001:0000a743       ?checked_delete@boost@@YAXPAVConsoleVariable@Core@@@Z 0040b743 f i Core:ConsoleVariableManager.obj
 0001:0000a770       ?reflect@?$reflector@$07@detail@boost@@SAEE@Z 0040b770 f i Core:ConsoleVariableManager.obj
 0001:0000a7be       ??_GConsoleVariable@Core@@QAEPAXI@Z 0040b7be f i Core:ConsoleVariableManager.obj
 0001:0000a7e7       ??0ConsoleVariable@Core@@QAE@PBDVany@boost@@@Z 0040b7e7 f   Core:ConsoleVariable.obj
 0001:0000a8a8       ?for_each@_STL@@YA?AVToLowerFunc@Core@@PAD0V23@@Z 0040b8a8 f i Core:ConsoleVariable.obj
 0001:0000a8ce       ??RToLowerFunc@Core@@QAEXAAD@Z 0040b8ce f i Core:ConsoleVariable.obj
 0001:0000a8ec       ??0ConsoleCommandLine@Core@@QAE@AAVConsole@1@@Z 0040b8ec f   Core:ConsoleCommandLine.obj
 0001:0000aa20       ?LineWidth@Console@Core@@QBEIXZ 0040ba20 f i Core:ConsoleCommandLine.obj
 0001:0000aa2f       ??0ConsoleCursor@Core@@QAE@ABVConsoleCommandLine@1@@Z 0040ba2f f i Core:ConsoleCommandLine.obj
 0001:0000aa4c       ??0?$shared_ptr@VConsoleCursor@Core@@@boost@@QAE@PAVConsoleCursor@Core@@@Z 0040ba4c f i Core:ConsoleCommandLine.obj
 0001:0000aaa2       ??0shared_count@detail@boost@@QAE@PAVConsoleCursor@Core@@U?$checked_deleter@VConsoleCursor@Core@@@2@@Z 0040baa2 f i Core:ConsoleCommandLine.obj
 0001:0000ab3b       ??R?$checked_deleter@VConsoleCursor@Core@@@boost@@QBEXPAVConsoleCursor@Core@@@Z 0040bb3b f i Core:ConsoleCommandLine.obj
 0001:0000ab4f       ??0?$sp_counted_base_impl@PAVConsoleCursor@Core@@U?$checked_deleter@VConsoleCursor@Core@@@boost@@@detail@boost@@QAE@PAVConsoleCursor@Core@@U?$checked_deleter@VConsoleCursor@Core@@@2@@Z 0040bb4f f i Core:ConsoleCommandLine.obj
 0001:0000ab80       ?dispose@?$sp_counted_base_impl@PAVConsoleCursor@Core@@U?$checked_deleter@VConsoleCursor@Core@@@boost@@@detail@boost@@UAEXXZ 0040bb80 f i Core:ConsoleCommandLine.obj
 0001:0000ab9a       ?get_deleter@?$sp_counted_base_impl@PAVConsoleCursor@Core@@U?$checked_deleter@VConsoleCursor@Core@@@boost@@@detail@boost@@UAEPAXABVtype_info@@@Z 0040bb9a f i Core:ConsoleCommandLine.obj
 0001:0000abbf       ??_E?$sp_counted_base_impl@PAU?$grammar_helper@U?$grammar@VConsoleGrammar@@Uparser_context@spirit@boost@@@spirit@boost@@VConsoleGrammar@@V?$scanner@PBDU?$scanner_policies@Uiteration_policy@spirit@boost@@Umatch_policy@23@Uaction_policy@23@@spirit@boost@@@23@@impl@spirit@boost@@U?$checked_deleter@U?$grammar_helper@U?$grammar@VConsoleGrammar@@Uparser_context@spirit@boost@@@spirit@boost@@VConsoleGrammar@@V?$scanner@PBDU?$scanner_policies@Uiteration_policy@spirit@boost@@Umatch_policy@23@Uaction_policy@23@@spirit@boost@@@23@@impl@spirit@boost@@@4@@detail@boost@@UAEPAXI@Z 0040bbbf f i Core:ConsoleCommandLineParser.obj
 0001:0000abbf       ??_E?$sp_counted_base_impl@PAVDirectXRenderer@DirectX9Renderer@@U?$checked_deleter@VDirectXRenderer@DirectX9Renderer@@@boost@@@detail@boost@@UAEPAXI@Z 0040bbbf f i DirectX9Renderer:DirectXRendererCreator.obj
 0001:0000abbf       ??_G?$sp_counted_base_impl@PAVDirectXVertexBuffer@DirectX9Renderer@@U?$checked_deleter@VDirectXVertexBuffer@DirectX9Renderer@@@boost@@@detail@boost@@UAEPAXI@Z 0040bbbf f i DirectX9Renderer:DirectX9Renderer.obj
 0001:0000abbf       ??_G?$sp_counted_base_impl@PAVConsoleBuffer@Core@@U?$checked_deleter@VConsoleBuffer@Core@@@boost@@@detail@boost@@UAEPAXI@Z 0040bbbf f i Core:Console.obj
 0001:0000abbf       ??_G?$sp_counted_base_impl@PAVDirectXVertexBufferCreator@DirectX9Renderer@@U?$checked_deleter@VDirectXVertexBufferCreator@DirectX9Renderer@@@boost@@@detail@boost@@UAEPAXI@Z 0040bbbf f i DirectX9Renderer:DirectX9Renderer.obj
 0001:0000abbf       ??_E?$sp_counted_base_impl@PAVRendererWindow@Renderer@@U?$checked_deleter@VRendererWindow@Renderer@@@boost@@@detail@boost@@UAEPAXI@Z 0040bbbf f i DirectX9Renderer:DirectX9Renderer.obj
 0001:0000abbf       ??_E?$sp_counted_base_impl@PAVExec@ConsoleCommands@@U?$checked_deleter@VExec@ConsoleCommands@@@boost@@@detail@boost@@UAEPAXI@Z 0040bbbf f i Core:Console.obj
 0001:0000abbf       ??_E?$sp_counted_base_impl@PAVTerrainDemoApplication@TerrainDemo@@U?$checked_deleter@VTerrainDemoApplication@TerrainDemo@@@boost@@@detail@boost@@UAEPAXI@Z 0040bbbf f i Main.obj
 0001:0000abbf       ??_E?$sp_counted_base_impl@PAU?$object_with_id_base_supply@K@impl@spirit@boost@@U?$checked_deleter@U?$object_with_id_base_supply@K@impl@spirit@boost@@@4@@detail@boost@@UAEPAXI@Z 0040bbbf f i Core:ConsoleCommandLineParser.obj
 0001:0000abbf       ??_G?$sp_counted_base_impl@PAVCmdList@ConsoleCommands@@U?$checked_deleter@VCmdList@ConsoleCommands@@@boost@@@detail@boost@@UAEPAXI@Z 0040bbbf f i Core:Console.obj
 0001:0000abbf       ??_E?$sp_counted_base_impl@PAVConsoleCommandManager@Core@@U?$checked_deleter@VConsoleCommandManager@Core@@@boost@@@detail@boost@@UAEPAXI@Z 0040bbbf f i Core:Console.obj
 0001:0000abbf       ??_G?$sp_counted_base_impl@PAVVertexBufferManager@Renderer@@U?$checked_deleter@VVertexBufferManager@Renderer@@@boost@@@detail@boost@@UAEPAXI@Z 0040bbbf f i DirectX9Renderer:DirectX9Renderer.obj
 0001:0000abbf       ??_G?$sp_counted_base_impl@PAVExec@ConsoleCommands@@U?$checked_deleter@VExec@ConsoleCommands@@@boost@@@detail@boost@@UAEPAXI@Z 0040bbbf f i Core:Console.obj
 0001:0000abbf       ??_G?$sp_counted_base_impl@PAVConsoleCommandLine@Core@@U?$checked_deleter@VConsoleCommandLine@Core@@@boost@@@detail@boost@@UAEPAXI@Z 0040bbbf f i Core:Console.obj
 0001:0000abbf       ??_E?$sp_counted_base_impl@PAVConsole@Core@@U?$checked_deleter@VConsole@Core@@@boost@@@detail@boost@@UAEPAXI@Z 0040bbbf f i OidFX:GameApplication.obj
 0001:0000abbf       ??_E?$sp_counted_base_impl@PAVConsoleVariableManager@Core@@U?$checked_deleter@VConsoleVariableManager@Core@@@boost@@@detail@boost@@UAEPAXI@Z 0040bbbf f i Core:Console.obj
 0001:0000abbf       ??_G?$sp_counted_base_impl@PAVDirectXRenderer@DirectX9Renderer@@U?$checked_deleter@VDirectXRenderer@DirectX9Renderer@@@boost@@@detail@boost@@UAEPAXI@Z 0040bbbf f i DirectX9Renderer:DirectXRendererCreator.obj
 0001:0000abbf       ??_G?$sp_counted_base_impl@PAVDirectXRendererCreator@DirectX9Renderer@@U?$checked_deleter@VDirectXRendererCreator@DirectX9Renderer@@@boost@@@detail@boost@@UAEPAXI@Z 0040bbbf f i OidFX:GameApplication.obj
 0001:0000abbf       ??_E?$sp_counted_base_impl@PAVOConsoleBuf@Console@Core@@U?$checked_deleter@VOConsoleBuf@Console@Core@@@boost@@@detail@boost@@UAEPAXI@Z 0040bbbf f i Core:Console.obj
 0001:0000abbf       ??_E?$sp_counted_base_impl@PAVCvarList@ConsoleCommands@@U?$checked_deleter@VCvarList@ConsoleCommands@@@boost@@@detail@boost@@UAEPAXI@Z 0040bbbf f i Core:Console.obj
 0001:0000abbf       ??_G?$sp_counted_base_impl@PAVConsoleVariable@Core@@U?$checked_deleter@VConsoleVariable@Core@@@boost@@@detail@boost@@UAEPAXI@Z 0040bbbf f i Core:ConsoleVariableManager.obj
 0001:0000abbf       ??_G?$sp_counted_base_impl@PAVConsole@Core@@U?$checked_deleter@VConsole@Core@@@boost@@@detail@boost@@UAEPAXI@Z 0040bbbf f i OidFX:GameApplication.obj
 0001:0000abbf       ??_E?$sp_counted_base_impl@PAVDirectXVertexBuffer@DirectX9Renderer@@U?$checked_deleter@VDirectXVertexBuffer@DirectX9Renderer@@@boost@@@detail@boost@@UAEPAXI@Z 0040bbbf f i DirectX9Renderer:DirectX9Renderer.obj
 0001:0000abbf       ??_E?$sp_counted_base_impl@PAVConsoleOutputEventHandler@Core@@U?$checked_deleter@VConsoleOutputEventHandler@Core@@@boost@@@detail@boost@@UAEPAXI@Z 0040bbbf f i Core:Console.obj
 0001:0000abbf       ??_G?$sp_counted_base_impl@PAVProxyType@?$Event@VConsoleOutputEventHandler@Core@@VIConsoleOutputListener@2@@Core@@U?$checked_deleter@VProxyType@?$Event@VConsoleOutputEventHandler@Core@@VIConsoleOutputListener@2@@Core@@@boost@@@detail@boost@@UAEPAXI@Z 0040bbbf f i Core:Console.obj
 0001:0000abbf       ??_G?$sp_counted_base_impl@PAVCvarList@ConsoleCommands@@U?$checked_deleter@VCvarList@ConsoleCommands@@@boost@@@detail@boost@@UAEPAXI@Z 0040bbbf f i Core:Console.obj
 0001:0000abbf       ??_G?$sp_counted_base_impl@PAVRendererFactory@Renderer@@U?$checked_deleter@VRendererFactory@Renderer@@@boost@@@detail@boost@@UAEPAXI@Z 0040bbbf f i OidFX:GameApplication.obj
 0001:0000abbf       ??_E?$sp_counted_base_impl@PAV?$basic_ostream@DV?$char_traits@D@_STL@@@_STL@@U?$checked_deleter@V?$basic_ostream@DV?$char_traits@D@_STL@@@_STL@@@boost@@@detail@boost@@UAEPAXI@Z 0040bbbf f i Core:Console.obj
 0001:0000abbf       ??_G?$sp_counted_base_impl@PAVConsoleOutputEventHandler@Core@@U?$checked_deleter@VConsoleOutputEventHandler@Core@@@boost@@@detail@boost@@UAEPAXI@Z 0040bbbf f i Core:Console.obj
 0001:0000abbf       ??_E?$sp_counted_base_impl@PAVDirectXRendererCreator@DirectX9Renderer@@U?$checked_deleter@VDirectXRendererCreator@DirectX9Renderer@@@boost@@@detail@boost@@UAEPAXI@Z 0040bbbf f i OidFX:GameApplication.obj
 0001:0000abbf       ??_G?$sp_counted_base_impl@PAVConsoleCursor@Core@@U?$checked_deleter@VConsoleCursor@Core@@@boost@@@detail@boost@@UAEPAXI@Z 0040bbbf f i Core:ConsoleCommandLine.obj
 0001:0000abbf       ??_G?$sp_counted_base_impl@PAVTerrainDemoApplication@TerrainDemo@@U?$checked_deleter@VTerrainDemoApplication@TerrainDemo@@@boost@@@detail@boost@@UAEPAXI@Z 0040bbbf f i Main.obj
 0001:0000abbf       ??_G?$sp_counted_base_impl@PAVRendererWindow@Renderer@@U?$checked_deleter@VRendererWindow@Renderer@@@boost@@@detail@boost@@UAEPAXI@Z 0040bbbf f i DirectX9Renderer:DirectX9Renderer.obj
 0001:0000abbf       ??_E?$sp_counted_base_impl@PAVCmdList@ConsoleCommands@@U?$checked_deleter@VCmdList@ConsoleCommands@@@boost@@@detail@boost@@UAEPAXI@Z 0040bbbf f i Core:Console.obj
 0001:0000abbf       ??_E?$sp_counted_base_impl@PAVConsoleCursor@Core@@U?$checked_deleter@VConsoleCursor@Core@@@boost@@@detail@boost@@UAEPAXI@Z 0040bbbf f i Core:ConsoleCommandLine.obj
 0001:0000abbf       ??_G?$sp_counted_base_impl@PAVConsoleCommandManager@Core@@U?$checked_deleter@VConsoleCommandManager@Core@@@boost@@@detail@boost@@UAEPAXI@Z 0040bbbf f i Core:Console.obj
 0001:0000abbf       ??_E?$sp_counted_base_impl@PAVProxyType@?$Event@VConsoleOutputEventHandler@Core@@VIConsoleOutputListener@2@@Core@@U?$checked_deleter@VProxyType@?$Event@VConsoleOutputEventHandler@Core@@VIConsoleOutputListener@2@@Core@@@boost@@@detail@boost@@UAEPAXI@Z 0040bbbf f i Core:Console.obj
 0001:0000abbf       ??_E?$sp_counted_base_impl@PAVConsoleCommandLine@Core@@U?$checked_deleter@VConsoleCommandLine@Core@@@boost@@@detail@boost@@UAEPAXI@Z 0040bbbf f i Core:Console.obj
 0001:0000abbf       ??_G?$sp_counted_base_impl@PAU?$object_with_id_base_supply@K@impl@spirit@boost@@U?$checked_deleter@U?$object_with_id_base_supply@K@impl@spirit@boost@@@4@@detail@boost@@UAEPAXI@Z 0040bbbf f i Core:ConsoleCommandLineParser.obj
 0001:0000abbf       ??_E?$sp_counted_base_impl@PAVConsoleVariable@Core@@U?$checked_deleter@VConsoleVariable@Core@@@boost@@@detail@boost@@UAEPAXI@Z 0040bbbf f i Core:ConsoleVariableManager.obj
 0001:0000abbf       ??_G?$sp_counted_base_impl@PAVOConsoleBuf@Console@Core@@U?$checked_deleter@VOConsoleBuf@Console@Core@@@boost@@@detail@boost@@UAEPAXI@Z 0040bbbf f i Core:Console.obj
 0001:0000abbf       ??_E?$sp_counted_base_impl@PAVConsoleOutputEvent@Core@@U?$checked_deleter@VConsoleOutputEvent@Core@@@boost@@@detail@boost@@UAEPAXI@Z 0040bbbf f i Core:Console.obj
 0001:0000abbf       ??_G?$sp_counted_base_impl@PAVConsoleOutputEvent@Core@@U?$checked_deleter@VConsoleOutputEvent@Core@@@boost@@@detail@boost@@UAEPAXI@Z 0040bbbf f i Core:Console.obj
 0001:0000abbf       ??_G?$sp_counted_base_impl@PAU?$grammar_helper@U?$grammar@VConsoleGrammar@@Uparser_context@spirit@boost@@@spirit@boost@@VConsoleGrammar@@V?$scanner@PBDU?$scanner_policies@Uiteration_policy@spirit@boost@@Umatch_policy@23@Uaction_policy@23@@spirit@boost@@@23@@impl@spirit@boost@@U?$checked_deleter@U?$grammar_helper@U?$grammar@VConsoleGrammar@@Uparser_context@spirit@boost@@@spirit@boost@@VConsoleGrammar@@V?$scanner@PBDU?$scanner_policies@Uiteration_policy@spirit@boost@@Umatch_policy@23@Uaction_policy@23@@spirit@boost@@@23@@impl@spirit@boost@@@4@@detail@boost@@UAEPAXI@Z 0040bbbf f i Core:ConsoleCommandLineParser.obj
 0001:0000abbf       ??_E?$sp_counted_base_impl@PAVRendererFactory@Renderer@@U?$checked_deleter@VRendererFactory@Renderer@@@boost@@@detail@boost@@UAEPAXI@Z 0040bbbf f i OidFX:GameApplication.obj
 0001:0000abbf       ??_E?$sp_counted_base_impl@PAVConsoleBuffer@Core@@U?$checked_deleter@VConsoleBuffer@Core@@@boost@@@detail@boost@@UAEPAXI@Z 0040bbbf f i Core:Console.obj
 0001:0000abbf       ??_E?$sp_counted_base_impl@PAVDirectXVertexBufferCreator@DirectX9Renderer@@U?$checked_deleter@VDirectXVertexBufferCreator@DirectX9Renderer@@@boost@@@detail@boost@@UAEPAXI@Z 0040bbbf f i DirectX9Renderer:DirectX9Renderer.obj
 0001:0000abbf       ??_G?$sp_counted_base_impl@PAV?$basic_ostream@DV?$char_traits@D@_STL@@@_STL@@U?$checked_deleter@V?$basic_ostream@DV?$char_traits@D@_STL@@@_STL@@@boost@@@detail@boost@@UAEPAXI@Z 0040bbbf f i Core:Console.obj
 0001:0000abbf       ??_G?$sp_counted_base_impl@PAVConsoleVariableManager@Core@@U?$checked_deleter@VConsoleVariableManager@Core@@@boost@@@detail@boost@@UAEPAXI@Z 0040bbbf f i Core:Console.obj
 0001:0000abbf       ??_E?$sp_counted_base_impl@PAVVertexBufferManager@Renderer@@U?$checked_deleter@VVertexBufferManager@Renderer@@@boost@@@detail@boost@@UAEPAXI@Z 0040bbbf f i DirectX9Renderer:DirectX9Renderer.obj
 0001:0000abe8       ?checked_delete@boost@@YAXPAVConsoleCursor@Core@@@Z 0040bbe8 f i Core:ConsoleCommandLine.obj
 0001:0000abfd       ??0ConsoleBuffer@Core@@QAE@II@Z 0040bbfd f   Core:ConsoleBuffer.obj
 0001:0000acd2       ??1ConsoleBuffer@Core@@QAE@XZ 0040bcd2 f   Core:ConsoleBuffer.obj
 0001:0000ace3       ?Write@ConsoleBuffer@Core@@QAEXPBD@Z 0040bce3 f   Core:ConsoleBuffer.obj
 0001:0000ada7       ?NewLine@ConsoleBuffer@Core@@AAEXXZ 0040bda7 f   Core:ConsoleBuffer.obj
 0001:0000ae43       ??A?$vector@V?$basic_string@DV?$char_traits@D@_STL@@V?$allocator@D@2@@_STL@@V?$allocator@V?$basic_string@DV?$char_traits@D@_STL@@V?$allocator@D@2@@_STL@@@2@@_STL@@QAEAAV?$basic_string@DV?$char_traits@D@_STL@@V?$allocator@D@2@@1@I@Z 0040be43 f i Core:ConsoleBuffer.obj
 0001:0000ae43       ??A?$vector@V?$basic_string@DV?$char_traits@D@_STL@@V?$allocator@D@2@@_STL@@V?$allocator@V?$basic_string@DV?$char_traits@D@_STL@@V?$allocator@D@2@@_STL@@@2@@_STL@@QBEABV?$basic_string@DV?$char_traits@D@_STL@@V?$allocator@D@2@@1@I@Z 0040be43 f i Core:ConsoleCommandLine.obj
 0001:0000ae5e       ??B?$CComPtrBase@UIDirect3DVertexBuffer9@@@ATL@@QBEPAUIDirect3DVertexBuffer9@@XZ 0040be5e f i DirectX9Renderer:DirectXVertexBuffer.obj
 0001:0000ae5e       ??C?$CComPtrBase@UIDirect3D9@@@ATL@@QBEPAV?$_NoAddRefReleaseOnCComPtr@UIDirect3D9@@@1@XZ 0040be5e f i DirectX9Renderer:DirectX9Renderer.obj
 0001:0000ae5e       ?get@?$non_empty_subject@ABV?$rule@V?$scanner@PBDU?$scanner_policies@Uiteration_policy@spirit@boost@@Umatch_policy@23@Uaction_policy@23@@spirit@boost@@@spirit@boost@@Uparser_context@23@Uparser_address_tag@23@@spirit@boost@@U?$parser@U?$alternative@V?$rule@V?$scanner@PBDU?$scanner_policies@Uiteration_policy@spirit@boost@@Umatch_policy@23@Uaction_policy@23@@spirit@boost@@@spirit@boost@@Uparser_context@23@Uparser_address_tag@23@@spirit@boost@@V123@@spirit@boost@@@23@@impl@spirit@boost@@QBEABV?$rule@V?$scanner@PBDU?$scanner_policies@Uiteration_policy@spirit@boost@@Umatch_policy@23@Uaction_policy@23@@spirit@boost@@@spirit@boost@@Uparser_context@23@Uparser_address_tag@23@@34@XZ 0040be5e f i Core:ConsoleCommandLineParser.obj
 0001:0000ae5e       ?get@?$shared_ptr@U?$object_with_id_base_supply@K@impl@spirit@boost@@@boost@@QBEPAU?$object_with_id_base_supply@K@impl@spirit@2@XZ 0040be5e f i Core:ConsoleCommandLineParser.obj
 0001:0000ae5e       ?begin@?$vector@IV?$allocator@I@_STL@@@_STL@@QBEPBIXZ 0040be5e f i TerrainDemoApplication.obj
 0001:0000ae5e       ?get@?$non_empty_subject@ABV?$rule@V?$scanner@PBDU?$scanner_policies@Uiteration_policy@spirit@boost@@Umatch_policy@23@Uaction_policy@23@@spirit@boost@@@spirit@boost@@Uparser_context@23@Uparser_address_tag@23@@spirit@boost@@U?$parser@U?$alternative@U?$alternative@V?$rule@V?$scanner@PBDU?$scanner_policies@Uiteration_policy@spirit@boost@@Umatch_policy@23@Uaction_policy@23@@spirit@boost@@@spirit@boost@@Uparser_context@23@Uparser_address_tag@23@@spirit@boost@@V123@@spirit@boost@@V?$rule@V?$scanner@PBDU?$scanner_policies@Uiteration_policy@spirit@boost@@Umatch_policy@23@Uaction_policy@23@@spirit@boost@@@spirit@boost@@Uparser_context@23@Uparser_address_tag@23@@23@@spirit@boost@@@23@@impl@spirit@boost@@QBEABV?$rule@V?$scanner@PBDU?$scanner_policies@Uiteration_policy@spirit@boost@@Umatch_policy@23@Uaction_policy@23@@spirit@boost@@@spirit@boost@@Uparser_context@23@Uparser_address_tag@23@@34@XZ 0040be5e f i Core:ConsoleCommandLineParser.obj
 0001:0000ae5e       ?get@?$shared_ptr@VOConsoleBuf@Console@Core@@@boost@@QBEPAVOConsoleBuf@Console@Core@@XZ 0040be5e f i Core:Console.obj
 0001:0000ae5e       ?begin@?$vector@V?$shared_ptr@VProxyType@?$Event@VResizeEventHandler@Core@@VIResizable@2@@Core@@@boost@@V?$allocator@V?$shared_ptr@VProxyType@?$Event@VResizeEventHandler@Core@@VIResizable@2@@Core@@@boost@@@_STL@@@_STL@@QAEPAV?$shared_ptr@VProxyType@?$Event@VResizeEventHandler@Core@@VIResizable@2@@Core@@@boost@@XZ 0040be5e f i Renderer:RendererWindow.obj
 0001:0000ae5e       ?get@?$shared_ptr@VConsoleOutputEventHandler@Core@@@boost@@QBEPAVConsoleOutputEventHandler@Core@@XZ 0040be5e f i Core:Console.obj
 0001:0000ae5e       ?ID@EventConnection@Core@@QBEIXZ 0040be5e f i OidFX:GameApplication.obj
 0001:0000ae5e       ?begin@?$vector@V?$shared_ptr@VConsoleOutputEventHandler@Core@@@boost@@V?$allocator@V?$shared_ptr@VConsoleOutputEventHandler@Core@@@boost@@@_STL@@@_STL@@QBEPBV?$shared_ptr@VConsoleOutputEventHandler@Core@@@boost@@XZ 0040be5e f i Core:Console.obj
 0001:0000ae5e       ??C?$CComPtrBase@UIDirect3DDevice9@@@ATL@@QBEPAV?$_NoAddRefReleaseOnCComPtr@UIDirect3DDevice9@@@1@XZ 0040be5e f i DirectX9Renderer:DirectX9Renderer.obj
 0001:0000ae5e       ??D?$_Deque_iterator@IU?$_Nonconst_traits@I@_STL@@@_STL@@QBEAAIXZ 0040be5e f i Renderer:VertexBufferManager.obj
 0001:0000ae5e       ?Value@?$Handle@VVertexBuffer@Renderer@@@Core@@QBEIXZ 0040be5e f i TerrainDemoApplication.obj
 0001:0000ae5e       ?get@?$non_empty_subject@ABV?$rule@V?$scanner@PBDU?$scanner_policies@Uiteration_policy@spirit@boost@@Umatch_policy@23@Uaction_policy@23@@spirit@boost@@@spirit@boost@@Uparser_context@23@Uparser_address_tag@23@@spirit@boost@@U?$parser@V?$action@V?$rule@V?$scanner@PBDU?$scanner_policies@Uiteration_policy@spirit@boost@@Umatch_policy@23@Uaction_policy@23@@spirit@boost@@@spirit@boost@@Uparser_context@23@Uparser_address_tag@23@@spirit@boost@@VAddString@@@spirit@boost@@@23@@impl@spirit@boost@@QBEABV?$rule@V?$scanner@PBDU?$scanner_policies@Uiteration_policy@spirit@boost@@Umatch_policy@23@Uaction_policy@23@@spirit@boost@@@spirit@boost@@Uparser_context@23@Uparser_address_tag@23@@34@XZ 0040be5e f i Core:ConsoleCommandLineParser.obj
 0001:0000ae5e       ?get@?$shared_ptr@VResizeEventHandler@Core@@@boost@@QBEPAVResizeEventHandler@Core@@XZ 0040be5e f i Renderer:RendererWindow.obj
 0001:0000ae5e       ?NameHash@ConsoleVariable@Core@@QBEIXZ 0040be5e f i Core:ConsoleVariableManager.obj
 0001:0000ae5e       ?begin@?$vector@V?$shared_ptr@VKeyboardEventHandler@Core@@@boost@@V?$allocator@V?$shared_ptr@VKeyboardEventHandler@Core@@@boost@@@_STL@@@_STL@@QAEPAV?$shared_ptr@VKeyboardEventHandler@Core@@@boost@@XZ 0040be5e f i Renderer:RendererWindow.obj
 0001:0000ae5e       ?begin@?$vector@V?$shared_ptr@VConsoleOutputEventHandler@Core@@@boost@@V?$allocator@V?$shared_ptr@VConsoleOutputEventHandler@Core@@@boost@@@_STL@@@_STL@@QAEPAV?$shared_ptr@VConsoleOutputEventHandler@Core@@@boost@@XZ 0040be5e f i Core:Console.obj
 0001:0000ae5e       ?length@?$match@I@spirit@boost@@QBEHXZ 0040be5e f i Core:ConsoleCommandLineParser.obj
 0001:0000ae5e       ?get@?$shared_ptr@U?$grammar_helper@U?$grammar@VConsoleGrammar@@Uparser_context@spirit@boost@@@spirit@boost@@VConsoleGrammar@@V?$scanner@PBDU?$scanner_policies@Uiteration_policy@spirit@boost@@Umatch_policy@23@Uaction_policy@23@@spirit@boost@@@23@@impl@spirit@boost@@@boost@@QBEPAU?$grammar_helper@U?$grammar@VConsoleGrammar@@Uparser_context@spirit@boost@@@spirit@boost@@VConsoleGrammar@@V?$scanner@PBDU?$scanner_policies@Uiteration_policy@spirit@boost@@Umatch_policy@23@Uaction_policy@23@@spirit@boost@@@23@@impl@spirit@2@XZ 0040be5e f i Core:ConsoleCommandLineParser.obj
 0001:0000ae5e       ?begin@?$vector@V?$shared_ptr@VVertexBuffer@Renderer@@@boost@@V?$allocator@V?$shared_ptr@VVertexBuffer@Renderer@@@boost@@@_STL@@@_STL@@QAEPAV?$shared_ptr@VVertexBuffer@Renderer@@@boost@@XZ 0040be5e f i Renderer:VertexBufferManager.obj
 0001:0000ae5e       ?begin@?$vector@V?$shared_ptr@VProxyType@?$Event@VKeyboardEventHandler@Core@@VIKeyboardSensitive@2@@Core@@@boost@@V?$allocator@V?$shared_ptr@VProxyType@?$Event@VKeyboardEventHandler@Core@@VIKeyboardSensitive@2@@Core@@@boost@@@_STL@@@_STL@@QAEPAV?$shared_ptr@VProxyType@?$Event@VKeyboardEventHandler@Core@@VIKeyboardSensitive@2@@Core@@@boost@@XZ 0040be5e f i Renderer:RendererWindow.obj
 0001:0000ae5e       ?length@?$match@N@spirit@boost@@QBEHXZ 0040be5e f i Core:ConsoleCommandLineParser.obj
 0001:0000ae5e       ?length@?$match@H@spirit@boost@@QBEHXZ 0040be5e f i Core:ConsoleCommandLineParser.obj
 0001:0000ae5e       ?begin@?$vector@PAU?$definition@V?$scanner@PBDU?$scanner_policies@Uiteration_policy@spirit@boost@@Umatch_policy@23@Uaction_policy@23@@spirit@boost@@@spirit@boost@@@ConsoleGrammar@@V?$allocator@PAU?$definition@V?$scanner@PBDU?$scanner_policies@Uiteration_policy@spirit@boost@@Umatch_policy@23@Uaction_policy@23@@spirit@boost@@@spirit@boost@@@ConsoleGrammar@@@_STL@@@_STL@@QAEPAPAU?$definition@V?$scanner@PBDU?$scanner_policies@Uiteration_policy@spirit@boost@@Umatch_policy@23@Uaction_policy@23@@spirit@boost@@@spirit@boost@@@ConsoleGrammar@@XZ 0040be5e f i Core:ConsoleCommandLineParser.obj
 0001:0000ae5e       ?begin@?$vector@V?$basic_string@DV?$char_traits@D@_STL@@V?$allocator@D@2@@_STL@@V?$allocator@V?$basic_string@DV?$char_traits@D@_STL@@V?$allocator@D@2@@_STL@@@2@@_STL@@QAEPAV?$basic_string@DV?$char_traits@D@_STL@@V?$allocator@D@2@@2@XZ 0040be5e f i Core:ConsoleBuffer.obj
 0001:0000ae5e       ?begin@?$vector@V?$shared_ptr@VProxyType@?$Event@VConsoleOutputEventHandler@Core@@VIConsoleOutputListener@2@@Core@@@boost@@V?$allocator@V?$shared_ptr@VProxyType@?$Event@VConsoleOutputEventHandler@Core@@VIConsoleOutputListener@2@@Core@@@boost@@@_STL@@@_STL@@QAEPAV?$shared_ptr@VProxyType@?$Event@VConsoleOutputEventHandler@Core@@VIConsoleOutputListener@2@@Core@@@boost@@XZ 0040be5e f i Core:Console.obj
 0001:0000ae5e       ?length@?$match@D@spirit@boost@@QBEHXZ 0040be5e f i Core:ConsoleCommandLineParser.obj
 0001:0000ae5e       ?begin@?$vector@VDisplayMode@Renderer@@V?$allocator@VDisplayMode@Renderer@@@_STL@@@_STL@@QBEPBVDisplayMode@Renderer@@XZ 0040be5e f i OidFX:GameApplication.obj
 0001:0000ae5e       ?begin@?$vector@IV?$allocator@I@_STL@@@_STL@@QAEPAIXZ 0040be5e f i TerrainDemoApplication.obj
 0001:0000ae5e       ?begin@?$vector@Vany@boost@@V?$allocator@Vany@boost@@@_STL@@@_STL@@QBEPBVany@boost@@XZ 0040be5e f i Core:Console.obj
 0001:0000ae5e       ??C?$CComPtrBase@UIDirect3DVertexBuffer9@@@ATL@@QBEPAV?$_NoAddRefReleaseOnCComPtr@UIDirect3DVertexBuffer9@@@1@XZ 0040be5e f i DirectX9Renderer:DirectXVertexBuffer.obj
 0001:0000ae5e       ?get@?$non_empty_subject@ABV?$rule@V?$scanner@PBDU?$scanner_policies@Uiteration_policy@spirit@boost@@Umatch_policy@23@Uaction_policy@23@@spirit@boost@@@spirit@boost@@Uparser_context@23@Uparser_address_tag@23@@spirit@boost@@U?$parser@V?$action@V?$rule@V?$scanner@PBDU?$scanner_policies@Uiteration_policy@spirit@boost@@Umatch_policy@23@Uaction_policy@23@@spirit@boost@@@spirit@boost@@Uparser_context@23@Uparser_address_tag@23@@spirit@boost@@VAddBooleanToArgs@@@spirit@boost@@@23@@impl@spirit@boost@@QBEABV?$rule@V?$scanner@PBDU?$scanner_policies@Uiteration_policy@spirit@boost@@Umatch_policy@23@Uaction_policy@23@@spirit@boost@@@spirit@boost@@Uparser_context@23@Uparser_address_tag@23@@34@XZ 0040be5e f i Core:ConsoleCommandLineParser.obj
 0001:0000ae5e       ?get@?$non_empty_subject@ABV?$rule@V?$scanner@PBDU?$scanner_policies@Uiteration_policy@spirit@boost@@Umatch_policy@23@Uaction_policy@23@@spirit@boost@@@spirit@boost@@Uparser_context@23@Uparser_address_tag@23@@spirit@boost@@U?$parser@V?$action@V?$rule@V?$scanner@PBDU?$scanner_policies@Uiteration_policy@spirit@boost@@Umatch_policy@23@Uaction_policy@23@@spirit@boost@@@spirit@boost@@Uparser_context@23@Uparser_address_tag@23@@spirit@boost@@V?$assign_actor@V?$basic_string@DV?$char_traits@D@_STL@@V?$allocator@D@2@@_STL@@@23@@spirit@boost@@@23@@impl@spirit@boost@@QBEABV?$rule@V?$scanner@PBDU?$scanner_policies@Uiteration_policy@spirit@boost@@Umatch_policy@23@Uaction_policy@23@@spirit@boost@@@spirit@boost@@Uparser_context@23@Uparser_address_tag@23@@34@XZ 0040be5e f i Core:ConsoleCommandLineParser.obj
 0001:0000ae5e       ?begin@?$vector@V?$shared_ptr@VResizeEventHandler@Core@@@boost@@V?$allocator@V?$shared_ptr@VResizeEventHandler@Core@@@boost@@@_STL@@@_STL@@QAEPAV?$shared_ptr@VResizeEventHandler@Core@@@boost@@XZ 0040be5e f i Renderer:RendererWindow.obj
 0001:0000ae5e       ?begin@?$vector@PAU?$grammar_helper_base@U?$grammar@VConsoleGrammar@@Uparser_context@spirit@boost@@@spirit@boost@@@impl@spirit@boost@@V?$allocator@PAU?$grammar_helper_base@U?$grammar@VConsoleGrammar@@Uparser_context@spirit@boost@@@spirit@boost@@@impl@spirit@boost@@@_STL@@@_STL@@QAEPAPAU?$grammar_helper_base@U?$grammar@VConsoleGrammar@@Uparser_context@spirit@boost@@@spirit@boost@@@impl@spirit@boost@@XZ 0040be5e f i Core:ConsoleCommandLineParser.obj
 0001:0000ae5e       ?length@?$match@_N@spirit@boost@@QBEHXZ 0040be5e f i Core:ConsoleCommandLineParser.obj
 0001:0000ae5e       ?begin@?$vector@V?$shared_ptr@VVertexBuffer@Renderer@@@boost@@V?$allocator@V?$shared_ptr@VVertexBuffer@Renderer@@@boost@@@_STL@@@_STL@@QBEPBV?$shared_ptr@VVertexBuffer@Renderer@@@boost@@XZ 0040be5e f i TerrainDemoApplication.obj
 0001:0000ae5e       ?get@?$non_empty_subject@ABV?$rule@V?$scanner@PBDU?$scanner_policies@Uiteration_policy@spirit@boost@@Umatch_policy@23@Uaction_policy@23@@spirit@boost@@@spirit@boost@@Uparser_context@23@Uparser_address_tag@23@@spirit@boost@@U?$parser@U?$sequence@U?$positive@Uspace_parser@spirit@boost@@@spirit@boost@@V?$rule@V?$scanner@PBDU?$scanner_policies@Uiteration_policy@spirit@boost@@Umatch_policy@23@Uaction_policy@23@@spirit@boost@@@spirit@boost@@Uparser_context@23@Uparser_address_tag@23@@23@@spirit@boost@@@23@@impl@spirit@boost@@QBEABV?$rule@V?$scanner@PBDU?$scanner_policies@Uiteration_policy@spirit@boost@@Umatch_policy@23@Uaction_policy@23@@spirit@boost@@@spirit@boost@@Uparser_context@23@Uparser_address_tag@23@@34@XZ 0040be5e f i Core:ConsoleCommandLineParser.obj
 0001:0000ae5e       ?base@?$reverse_iterator@PAPAU?$grammar_helper_base@U?$grammar@VConsoleGrammar@@Uparser_context@spirit@boost@@@spirit@boost@@@impl@spirit@boost@@PAU1234@AAPAU1234@PAPAU1234@H@_STL@@QBEPAPAU?$grammar_helper_base@U?$grammar@VConsoleGrammar@@Uparser_context@spirit@boost@@@spirit@boost@@@impl@spirit@boost@@XZ 0040be5e f i Core:ConsoleCommandLineParser.obj
 0001:0000ae5e       ?get@?$auto_ptr@U?$definition@V?$scanner@PBDU?$scanner_policies@Uiteration_policy@spirit@boost@@Umatch_policy@23@Uaction_policy@23@@spirit@boost@@@spirit@boost@@@ConsoleGrammar@@@_STL@@QBEPAU?$definition@V?$scanner@PBDU?$scanner_policies@Uiteration_policy@spirit@boost@@Umatch_policy@23@Uaction_policy@23@@spirit@boost@@@spirit@boost@@@ConsoleGrammar@@XZ 0040be5e f i Core:ConsoleCommandLineParser.obj
 0001:0000ae5e       ?get@?$shared_ptr@VVertexBuffer@Renderer@@@boost@@QBEPAVVertexBuffer@Renderer@@XZ 0040be5e f i TerrainDemoApplication.obj
 0001:0000ae5e       ?length@?$match@Unil_t@spirit@boost@@@spirit@boost@@QBEHXZ 0040be5e f i Core:ConsoleCommandLineParser.obj
 0001:0000ae5e       ?get@?$shared_ptr@VKeyboardEventHandler@Core@@@boost@@QBEPAVKeyboardEventHandler@Core@@XZ 0040be5e f i Renderer:RendererWindow.obj
 0001:0000ae5e       ?get@?$scoped_ptr@U?$abstract_parser@V?$scanner@PBDU?$scanner_policies@Uiteration_policy@spirit@boost@@Umatch_policy@23@Uaction_policy@23@@spirit@boost@@@spirit@boost@@V?$match@Unil_t@spirit@boost@@@23@@impl@spirit@boost@@@boost@@QBEPAU?$abstract_parser@V?$scanner@PBDU?$scanner_policies@Uiteration_policy@spirit@boost@@Umatch_policy@23@Uaction_policy@23@@spirit@boost@@@spirit@boost@@V?$match@Unil_t@spirit@boost@@@23@@impl@spirit@2@XZ 0040be5e f i Core:ConsoleCommandLineParser.obj
 0001:0000ae5e       ?begin@?$vector@V?$basic_string@DV?$char_traits@D@_STL@@V?$allocator@D@2@@_STL@@V?$allocator@V?$basic_string@DV?$char_traits@D@_STL@@V?$allocator@D@2@@_STL@@@2@@_STL@@QBEPBV?$basic_string@DV?$char_traits@D@_STL@@V?$allocator@D@2@@2@XZ 0040be5e f i Core:ConsoleCommandLine.obj
 0001:0000ae6c       ??0ConsoleCommandManager@Core@@QAE@XZ 0040be6c f   Core:ConsoleCommandManager.obj
 0001:0000ae80       ?Register@ConsoleCommandManager@Core@@QAEXAAVConsoleCommand@2@@Z 0040be80 f   Core:ConsoleCommandManager.obj
 0001:0000afee       ??0ConsoleRegistrationError@Core@@QAE@PBDI00I@Z 0040bfee f i Core:ConsoleCommandManager.obj
 0001:0000b01c       ??_ERendererError@Renderer@@UAEPAXI@Z 0040c01c f i DirectX9Renderer:DirectX9Renderer.obj
 0001:0000b01c       ??_GRendererError@Renderer@@UAEPAXI@Z 0040c01c f i DirectX9Renderer:DirectX9Renderer.obj
 0001:0000b01c       ??_EConsoleRegistrationError@Core@@UAEPAXI@Z 0040c01c f i Core:ConsoleCommandManager.obj
 0001:0000b01c       ??_E?$OutOfFreePoolSlots@V?$shared_ptr@VVertexBuffer@Renderer@@@boost@@@Core@@UAEPAXI@Z 0040c01c f i Renderer:VertexBufferManager.obj
 0001:0000b01c       ??_GConsoleRegistrationError@Core@@UAEPAXI@Z 0040c01c f i Core:ConsoleCommandManager.obj
 0001:0000b01c       ??_GInvalidArgument@Core@@UAEPAXI@Z 0040c01c f i TerrainDemoApplication.obj
 0001:0000b01c       ??_ENullHandleDereference@Core@@UAEPAXI@Z 0040c01c f i TerrainDemoApplication.obj
 0001:0000b01c       ??_EInvalidArgument@Core@@UAEPAXI@Z 0040c01c f i TerrainDemoApplication.obj
 0001:0000b01c       ??_GNullHandleDereference@Core@@UAEPAXI@Z 0040c01c f i TerrainDemoApplication.obj
 0001:0000b01c       ??_G?$OutOfFreePoolSlots@V?$shared_ptr@VVertexBuffer@Renderer@@@boost@@@Core@@UAEPAXI@Z 0040c01c f i Renderer:VertexBufferManager.obj
 0001:0000b045       ??0ConsoleRegistrationError@Core@@QAE@ABV01@@Z 0040c045 f i Core:ConsoleCommandManager.obj
 0001:0000b067       ?Unregister@ConsoleCommandManager@Core@@QAEXAAVConsoleCommand@2@@Z 0040c067 f   Core:ConsoleCommandManager.obj
 0001:0000b1cd       ?Find@ConsoleVariableManager@Core@@QAE?AU?$_Rb_tree_iterator@U?$pair@$$CBIV?$shared_ptr@VConsoleVariable@Core@@@boost@@@_STL@@U?$_Nonconst_traits@U?$pair@$$CBIV?$shared_ptr@VConsoleVariable@Core@@@boost@@@_STL@@@2@@_STL@@PBD@Z 0040c1cd f   Core:ConsoleVariableManager.obj
 0001:0000b1cd       ?Find@ConsoleCommandManager@Core@@QAE?AU?$_Rb_tree_iterator@U?$pair@$$CBIPAVConsoleCommand@Core@@@_STL@@U?$_Nonconst_traits@U?$pair@$$CBIPAVConsoleCommand@Core@@@_STL@@@2@@_STL@@PBD@Z 0040c1cd f   Core:ConsoleCommandManager.obj
 0001:0000b1f7       ??0?$map@IPAVConsoleCommand@Core@@U?$less@I@_STL@@V?$allocator@U?$pair@$$CBIPAVConsoleCommand@Core@@@_STL@@@4@@_STL@@QAE@XZ 0040c1f7 f i Core:ConsoleCommandManager.obj
 0001:0000b24a       ??A?$map@IPAVConsoleCommand@Core@@U?$less@I@_STL@@V?$allocator@U?$pair@$$CBIPAVConsoleCommand@Core@@@_STL@@@4@@_STL@@QAEAAPAVConsoleCommand@Core@@ABI@Z 0040c24a f i Core:ConsoleCommandManager.obj
 0001:0000b2eb       ?erase@?$map@IPAVConsoleCommand@Core@@U?$less@I@_STL@@V?$allocator@U?$pair@$$CBIPAVConsoleCommand@Core@@@_STL@@@4@@_STL@@QAEXU?$_Rb_tree_iterator@U?$pair@$$CBIPAVConsoleCommand@Core@@@_STL@@U?$_Nonconst_traits@U?$pair@$$CBIPAVConsoleCommand@Core@@@_STL@@@2@@2@@Z 0040c2eb f i Core:ConsoleCommandManager.obj
 0001:0000b30b       ?insert@?$map@IPAVConsoleCommand@Core@@U?$less@I@_STL@@V?$allocator@U?$pair@$$CBIPAVConsoleCommand@Core@@@_STL@@@4@@_STL@@QAE?AU?$_Rb_tree_iterator@U?$pair@$$CBIPAVConsoleCommand@Core@@@_STL@@U?$_Nonconst_traits@U?$pair@$$CBIPAVConsoleCommand@Core@@@_STL@@@2@@2@U32@ABU?$pair@$$CBIPAVConsoleCommand@Core@@@2@@Z 0040c30b f i Core:ConsoleCommandManager.obj
 0001:0000b334       ??0?$_Rb_tree@IU?$pair@$$CBIPAVConsoleCommand@Core@@@_STL@@U?$_Select1st@U?$pair@$$CBIPAVConsoleCommand@Core@@@_STL@@@2@U?$less@I@2@V?$allocator@U?$pair@$$CBIPAVConsoleCommand@Core@@@_STL@@@2@@_STL@@QAE@ABU?$less@I@1@ABV?$allocator@U?$pair@$$CBIPAVConsoleCommand@Core@@@_STL@@@1@@Z 0040c334 f i Core:ConsoleCommandManager.obj
 0001:0000b380       ?erase@?$_Rb_tree@IU?$pair@$$CBIPAVConsoleCommand@Core@@@_STL@@U?$_Select1st@U?$pair@$$CBIPAVConsoleCommand@Core@@@_STL@@@2@U?$less@I@2@V?$allocator@U?$pair@$$CBIPAVConsoleCommand@Core@@@_STL@@@2@@_STL@@QAEXU?$_Rb_tree_iterator@U?$pair@$$CBIPAVConsoleCommand@Core@@@_STL@@U?$_Nonconst_traits@U?$pair@$$CBIPAVConsoleCommand@Core@@@_STL@@@2@@2@@Z 0040c380 f i Core:ConsoleCommandManager.obj
 0001:0000b3dd       ??0?$pair@$$CBIPAVConsoleCommand@Core@@@_STL@@QAE@ABIABQAVConsoleCommand@Core@@@Z 0040c3dd f i Core:ConsoleCommandManager.obj
 0001:0000b400       ?lower_bound@?$_Rb_tree@IU?$pair@$$CBIV?$shared_ptr@VConsoleVariable@Core@@@boost@@@_STL@@U?$_Select1st@U?$pair@$$CBIV?$shared_ptr@VConsoleVariable@Core@@@boost@@@_STL@@@2@U?$less@I@2@V?$allocator@U?$pair@$$CBIV?$shared_ptr@VConsoleVariable@Core@@@boost@@@_STL@@@2@@_STL@@QAE?AU?$_Rb_tree_iterator@U?$pair@$$CBIV?$shared_ptr@VConsoleVariable@Core@@@boost@@@_STL@@U?$_Nonconst_traits@U?$pair@$$CBIV?$shared_ptr@VConsoleVariable@Core@@@boost@@@_STL@@@2@@2@ABI@Z 0040c400 f i Core:ConsoleVariableManager.obj
 0001:0000b400       ?lower_bound@?$_Rb_tree@IU?$pair@$$CBIPAVConsoleCommand@Core@@@_STL@@U?$_Select1st@U?$pair@$$CBIPAVConsoleCommand@Core@@@_STL@@@2@U?$less@I@2@V?$allocator@U?$pair@$$CBIPAVConsoleCommand@Core@@@_STL@@@2@@_STL@@QAE?AU?$_Rb_tree_iterator@U?$pair@$$CBIPAVConsoleCommand@Core@@@_STL@@U?$_Nonconst_traits@U?$pair@$$CBIPAVConsoleCommand@Core@@@_STL@@@2@@2@ABI@Z 0040c400 f i Core:ConsoleCommandManager.obj
 0001:0000b422       ??0?$_Rb_tree_base@U?$pair@$$CBIPAVConsoleCommand@Core@@@_STL@@V?$allocator@U?$pair@$$CBIPAVConsoleCommand@Core@@@_STL@@@2@@_STL@@QAE@ABV?$allocator@U?$pair@$$CBIPAVConsoleCommand@Core@@@_STL@@@1@@Z 0040c422 f i Core:ConsoleCommandManager.obj
 0001:0000b480       ?allocate@?$allocator@U?$_Rb_tree_node@U?$pair@$$CBIPAVConsoleCommand@Core@@@_STL@@@_STL@@@_STL@@QAEPAU?$_Rb_tree_node@U?$pair@$$CBIPAVConsoleCommand@Core@@@_STL@@@2@IPBX@Z 0040c480 f i Core:ConsoleCommandManager.obj
 0001:0000b4ac       ??R?$_Select1st@U?$pair@$$CBIV?$shared_ptr@VConsoleVariable@Core@@@boost@@@_STL@@@_STL@@QBEABIABU?$pair@$$CBIV?$shared_ptr@VConsoleVariable@Core@@@boost@@@1@@Z 0040c4ac f i Core:ConsoleVariableManager.obj
 0001:0000b4ac       ??R?$_Select1st@U?$pair@$$CBIV?$shared_ptr@VRendererCreator@Renderer@@@boost@@@_STL@@@_STL@@QBEABIABU?$pair@$$CBIV?$shared_ptr@VRendererCreator@Renderer@@@boost@@@1@@Z 0040c4ac f i Renderer:RendererFactory.obj
 0001:0000b4ac       ??R?$_Select1st@U?$pair@$$CBIPAVConsoleCommand@Core@@@_STL@@@_STL@@QBEABIABU?$pair@$$CBIPAVConsoleCommand@Core@@@1@@Z 0040c4ac f i Core:ConsoleCommandManager.obj
 0001:0000b4ac       ??R?$_Select1st@U?$pair@$$CBW4_D3DFORMAT@@V?$basic_string@DV?$char_traits@D@_STL@@V?$allocator@D@2@@_STL@@@_STL@@@_STL@@QBEABW4_D3DFORMAT@@ABU?$pair@$$CBW4_D3DFORMAT@@V?$basic_string@DV?$char_traits@D@_STL@@V?$allocator@D@2@@_STL@@@1@@Z 0040c4ac f i DirectX9Renderer:Formats.obj
 0001:0000b4ac       ??R?$_Select1st@U?$pair@$$CBJV?$basic_string@DV?$char_traits@D@_STL@@V?$allocator@D@2@@_STL@@@_STL@@@_STL@@QBEABJABU?$pair@$$CBJV?$basic_string@DV?$char_traits@D@_STL@@V?$allocator@D@2@@_STL@@@1@@Z 0040c4ac f i DirectX9Renderer:ErrorCodes.obj
 0001:0000b4ba       ?insert_unique@?$_Rb_tree@IU?$pair@$$CBIPAVConsoleCommand@Core@@@_STL@@U?$_Select1st@U?$pair@$$CBIPAVConsoleCommand@Core@@@_STL@@@2@U?$less@I@2@V?$allocator@U?$pair@$$CBIPAVConsoleCommand@Core@@@_STL@@@2@@_STL@@QAE?AU?$_Rb_tree_iterator@U?$pair@$$CBIPAVConsoleCommand@Core@@@_STL@@U?$_Nonconst_traits@U?$pair@$$CBIPAVConsoleCommand@Core@@@_STL@@@2@@2@U32@ABU?$pair@$$CBIPAVConsoleCommand@Core@@@2@@Z 0040c4ba f i Core:ConsoleCommandManager.obj
 0001:0000b892       ?__default_constructed@_STL@@YAPAVConsoleCommand@Core@@PAPAV23@@Z 0040c892 f i Core:ConsoleCommandManager.obj
 0001:0000b8a6       ??E?$_Rb_tree_iterator@U?$pair@$$CBIV?$shared_ptr@VConsoleVariable@Core@@@boost@@@_STL@@U?$_Const_traits@U?$pair@$$CBIV?$shared_ptr@VConsoleVariable@Core@@@boost@@@_STL@@@2@@_STL@@QAEAAU01@XZ 0040c8a6 f i Core:Console.obj
 0001:0000b8a6       ??E?$_Rb_tree_iterator@U?$pair@$$CBIV?$shared_ptr@VConsoleVariable@Core@@@boost@@@_STL@@U?$_Nonconst_traits@U?$pair@$$CBIV?$shared_ptr@VConsoleVariable@Core@@@boost@@@_STL@@@2@@_STL@@QAEAAU01@XZ 0040c8a6 f i Core:ConsoleVariableManager.obj
 0001:0000b8a6       ??E?$_Rb_tree_iterator@U?$pair@$$CBW4_D3DFORMAT@@V?$basic_string@DV?$char_traits@D@_STL@@V?$allocator@D@2@@_STL@@@_STL@@U?$_Nonconst_traits@U?$pair@$$CBW4_D3DFORMAT@@V?$basic_string@DV?$char_traits@D@_STL@@V?$allocator@D@2@@_STL@@@_STL@@@2@@_STL@@QAEAAU01@XZ 0040c8a6 f i DirectX9Renderer:Formats.obj
 0001:0000b8a6       ??E?$_Rb_tree_iterator@U?$pair@$$CBIPAVConsoleCommand@Core@@@_STL@@U?$_Const_traits@U?$pair@$$CBIPAVConsoleCommand@Core@@@_STL@@@2@@_STL@@QAEAAU01@XZ 0040c8a6 f i Core:Console.obj
 0001:0000b8a6       ??E?$_Rb_tree_iterator@U?$pair@$$CBIPAVConsoleCommand@Core@@@_STL@@U?$_Nonconst_traits@U?$pair@$$CBIPAVConsoleCommand@Core@@@_STL@@@2@@_STL@@QAEAAU01@XZ 0040c8a6 f i Core:ConsoleCommandManager.obj
 0001:0000b8a6       ??E?$_Rb_tree_iterator@U?$pair@$$CBJV?$basic_string@DV?$char_traits@D@_STL@@V?$allocator@D@2@@_STL@@@_STL@@U?$_Nonconst_traits@U?$pair@$$CBJV?$basic_string@DV?$char_traits@D@_STL@@V?$allocator@D@2@@_STL@@@_STL@@@2@@_STL@@QAEAAU01@XZ 0040c8a6 f i DirectX9Renderer:ErrorCodes.obj
 0001:0000b8c3       ?_M_insert@?$_Rb_tree@IU?$pair@$$CBIPAVConsoleCommand@Core@@@_STL@@U?$_Select1st@U?$pair@$$CBIPAVConsoleCommand@Core@@@_STL@@@2@U?$less@I@2@V?$allocator@U?$pair@$$CBIPAVConsoleCommand@Core@@@_STL@@@2@@_STL@@AAE?AU?$_Rb_tree_iterator@U?$pair@$$CBIPAVConsoleCommand@Core@@@_STL@@U?$_Nonconst_traits@U?$pair@$$CBIPAVConsoleCommand@Core@@@_STL@@@2@@2@PAU_Rb_tree_node_base@2@0ABU?$pair@$$CBIPAVConsoleCommand@Core@@@2@0@Z 0040c8c3 f i Core:ConsoleCommandManager.obj
 0001:0000ba11       ?insert_unique@?$_Rb_tree@IU?$pair@$$CBIPAVConsoleCommand@Core@@@_STL@@U?$_Select1st@U?$pair@$$CBIPAVConsoleCommand@Core@@@_STL@@@2@U?$less@I@2@V?$allocator@U?$pair@$$CBIPAVConsoleCommand@Core@@@_STL@@@2@@_STL@@QAE?AU?$pair@U?$_Rb_tree_iterator@U?$pair@$$CBIPAVConsoleCommand@Core@@@_STL@@U?$_Nonconst_traits@U?$pair@$$CBIPAVConsoleCommand@Core@@@_STL@@@2@@_STL@@_N@2@ABU?$pair@$$CBIPAVConsoleCommand@Core@@@2@@Z 0040ca11 f i Core:ConsoleCommandManager.obj
 0001:0000bb65       ?_M_create_node@?$_Rb_tree@IU?$pair@$$CBIPAVConsoleCommand@Core@@@_STL@@U?$_Select1st@U?$pair@$$CBIPAVConsoleCommand@Core@@@_STL@@@2@U?$less@I@2@V?$allocator@U?$pair@$$CBIPAVConsoleCommand@Core@@@_STL@@@2@@_STL@@IAEPAU?$_Rb_tree_node@U?$pair@$$CBIPAVConsoleCommand@Core@@@_STL@@@2@ABU?$pair@$$CBIPAVConsoleCommand@Core@@@2@@Z 0040cb65 f i Core:ConsoleCommandManager.obj
 0001:0000bbcf       ??0?$pair@U?$_Rb_tree_iterator@U?$pair@$$CBJV?$basic_string@DV?$char_traits@D@_STL@@V?$allocator@D@2@@_STL@@@_STL@@U?$_Nonconst_traits@U?$pair@$$CBJV?$basic_string@DV?$char_traits@D@_STL@@V?$allocator@D@2@@_STL@@@_STL@@@2@@_STL@@_N@_STL@@QAE@ABU?$_Rb_tree_iterator@U?$pair@$$CBJV?$basic_string@DV?$char_traits@D@_STL@@V?$allocator@D@2@@_STL@@@_STL@@U?$_Nonconst_traits@U?$pair@$$CBJV?$basic_string@DV?$char_traits@D@_STL@@V?$allocator@D@2@@_STL@@@_STL@@@2@@1@AB_N@Z 0040cbcf f i DirectX9Renderer:ErrorCodes.obj
 0001:0000bbcf       ??0?$pair@U?$_Rb_tree_iterator@U?$pair@$$CBIV?$shared_ptr@VRendererCreator@Renderer@@@boost@@@_STL@@U?$_Nonconst_traits@U?$pair@$$CBIV?$shared_ptr@VRendererCreator@Renderer@@@boost@@@_STL@@@2@@_STL@@_N@_STL@@QAE@ABU?$_Rb_tree_iterator@U?$pair@$$CBIV?$shared_ptr@VRendererCreator@Renderer@@@boost@@@_STL@@U?$_Nonconst_traits@U?$pair@$$CBIV?$shared_ptr@VRendererCreator@Renderer@@@boost@@@_STL@@@2@@1@AB_N@Z 0040cbcf f i Renderer:RendererFactory.obj
 0001:0000bbcf       ??0?$pair@U?$_Rb_tree_iterator@U?$pair@$$CBIPAVConsoleCommand@Core@@@_STL@@U?$_Nonconst_traits@U?$pair@$$CBIPAVConsoleCommand@Core@@@_STL@@@2@@_STL@@_N@_STL@@QAE@ABU?$_Rb_tree_iterator@U?$pair@$$CBIPAVConsoleCommand@Core@@@_STL@@U?$_Nonconst_traits@U?$pair@$$CBIPAVConsoleCommand@Core@@@_STL@@@2@@1@AB_N@Z 0040cbcf f i Core:ConsoleCommandManager.obj
 0001:0000bbcf       ??0?$pair@U?$_Rb_tree_iterator@U?$pair@$$CBIV?$shared_ptr@VConsoleVariable@Core@@@boost@@@_STL@@U?$_Nonconst_traits@U?$pair@$$CBIV?$shared_ptr@VConsoleVariable@Core@@@boost@@@_STL@@@2@@_STL@@_N@_STL@@QAE@ABU?$_Rb_tree_iterator@U?$pair@$$CBIV?$shared_ptr@VConsoleVariable@Core@@@boost@@@_STL@@U?$_Nonconst_traits@U?$pair@$$CBIV?$shared_ptr@VConsoleVariable@Core@@@boost@@@_STL@@@2@@1@AB_N@Z 0040cbcf f i Core:ConsoleVariableManager.obj
 0001:0000bbcf       ??0?$pair@U?$_Rb_tree_iterator@U?$pair@$$CBW4_D3DFORMAT@@V?$basic_string@DV?$char_traits@D@_STL@@V?$allocator@D@2@@_STL@@@_STL@@U?$_Nonconst_traits@U?$pair@$$CBW4_D3DFORMAT@@V?$basic_string@DV?$char_traits@D@_STL@@V?$allocator@D@2@@_STL@@@_STL@@@2@@_STL@@_N@_STL@@QAE@ABU?$_Rb_tree_iterator@U?$pair@$$CBW4_D3DFORMAT@@V?$basic_string@DV?$char_traits@D@_STL@@V?$allocator@D@2@@_STL@@@_STL@@U?$_Nonconst_traits@U?$pair@$$CBW4_D3DFORMAT@@V?$basic_string@DV?$char_traits@D@_STL@@V?$allocator@D@2@@_STL@@@_STL@@@2@@1@AB_N@Z 0040cbcf f i DirectX9Renderer:Formats.obj
 0001:0000bbf3       ?_Construct@_STL@@YAXPAU?$pair@$$CBIPAVConsoleCommand@Core@@@1@ABU21@@Z 0040cbf3 f i Core:ConsoleCommandManager.obj
 0001:0000bc43       ??0?$pair@$$CBIPAVConsoleCommand@Core@@@_STL@@QAE@ABU01@@Z 0040cc43 f i Core:ConsoleCommandManager.obj
 0001:0000bc67       ??0ConsoleCommand@Core@@QAE@PBD@Z 0040cc67 f   Core:ConsoleCommand.obj
 0001:0000bd09       ??_EConsoleCommand@Core@@UAEPAXI@Z 0040cd09 f i Core:ConsoleCommand.obj
 0001:0000bd09       ??_GConsoleCommand@Core@@UAEPAXI@Z 0040cd09 f i Core:ConsoleCommand.obj
 0001:0000bd32       ??1ConsoleCommand@Core@@UAE@XZ 0040cd32 f   Core:ConsoleCommand.obj
 0001:0000bd71       ?Register@ConsoleCommand@Core@@IAEXXZ 0040cd71 f   Core:ConsoleCommand.obj
 0001:0000bd90       ?Unregister@ConsoleCommand@Core@@QAEXXZ 0040cd90 f   Core:ConsoleCommand.obj
 0001:0000bdaf       ??0ConsoleCommandLineParser@Core@@QAE@PBD@Z 0040cdaf f   Core:ConsoleCommandLineParser.obj
 0001:0000be92       ??0ConsoleGrammar@@QAE@AAV?$basic_string@DV?$char_traits@D@_STL@@V?$allocator@D@2@@_STL@@AAV?$vector@Vany@boost@@V?$allocator@Vany@boost@@@_STL@@@2@@Z 0040ce92 f i Core:ConsoleCommandLineParser.obj
 0001:0000beba       ??1ConsoleGrammar@@QAE@XZ  0040ceba f i Core:ConsoleCommandLineParser.obj
 0001:0000becb       ??0?$grammar@VConsoleGrammar@@Uparser_context@spirit@boost@@@spirit@boost@@QAE@XZ 0040cecb f i Core:ConsoleCommandLineParser.obj
 0001:0000bf06       ??1?$grammar@VConsoleGrammar@@Uparser_context@spirit@boost@@@spirit@boost@@QAE@XZ 0040cf06 f i Core:ConsoleCommandLineParser.obj
 0001:0000bf57       ??1?$grammar_helper_list@U?$grammar@VConsoleGrammar@@Uparser_context@spirit@boost@@@spirit@boost@@@impl@spirit@boost@@QAE@XZ 0040cf57 f i Core:ConsoleCommandLineParser.obj
 0001:0000bf68       ??0?$object_with_id@Ugrammar_tag@impl@spirit@boost@@K@impl@spirit@boost@@QAE@XZ 0040cf68 f i Core:ConsoleCommandLineParser.obj
 0001:0000bfa3       ??1?$object_with_id@Ugrammar_tag@impl@spirit@boost@@K@impl@spirit@boost@@QAE@XZ 0040cfa3 f i Core:ConsoleCommandLineParser.obj
 0001:0000bfdb       ??0?$grammar_helper_list@U?$grammar@VConsoleGrammar@@Uparser_context@spirit@boost@@@spirit@boost@@@impl@spirit@boost@@QAE@XZ 0040cfdb f i Core:ConsoleCommandLineParser.obj
 0001:0000c02a       ??0?$object_with_id_base@Ugrammar_tag@impl@spirit@boost@@K@impl@spirit@boost@@QAE@XZ 0040d02a f i Core:ConsoleCommandLineParser.obj
 0001:0000c03e       ??1?$object_with_id_base@Ugrammar_tag@impl@spirit@boost@@K@impl@spirit@boost@@QAE@XZ 0040d03e f i Core:ConsoleCommandLineParser.obj
 0001:0000c03e       ??1ConsoleBool@Core@@QAE@XZ 0040d03e f i OidFX:GameApplication.obj
 0001:0000c03e       ??1ConsoleString@Core@@QAE@XZ 0040d03e f i OidFX:GameApplication.obj
 0001:0000c03e       ??1ConsoleUInt@Core@@QAE@XZ 0040d03e f i OidFX:GameApplication.obj
 0001:0000c04f       ?acquire_object_id@?$object_with_id_base@Ugrammar_tag@impl@spirit@boost@@K@impl@spirit@boost@@IAEKXZ 0040d04f f i Core:ConsoleCommandLineParser.obj
 0001:0000c10b       ?release_object_id@?$object_with_id_base@Ugrammar_tag@impl@spirit@boost@@K@impl@spirit@boost@@IAEXK@Z 0040d10b f i Core:ConsoleCommandLineParser.obj
 0001:0000c128       ?parse@spirit@boost@@YA?AU?$parse_info@PBD@12@PBDABU?$parser@VConsoleGrammar@@@12@@Z 0040d128 f i Core:ConsoleCommandLineParser.obj
 0001:0000c160       ?grammar_destruct@impl@spirit@boost@@YAXPAU?$grammar@VConsoleGrammar@@Uparser_context@spirit@boost@@@23@@Z 0040d160 f i Core:ConsoleCommandLineParser.obj
 0001:0000c1ba       ?rbegin@?$grammar_helper_list@U?$grammar@VConsoleGrammar@@Uparser_context@spirit@boost@@@spirit@boost@@@impl@spirit@boost@@QAE?AV?$reverse_iterator@PAPAU?$grammar_helper_base@U?$grammar@VConsoleGrammar@@Uparser_context@spirit@boost@@@spirit@boost@@@impl@spirit@boost@@PAU1234@AAPAU1234@PAPAU1234@H@_STL@@XZ 0040d1ba f i Core:ConsoleCommandLineParser.obj
 0001:0000c1d3       ?rend@?$grammar_helper_list@U?$grammar@VConsoleGrammar@@Uparser_context@spirit@boost@@@spirit@boost@@@impl@spirit@boost@@QAE?AV?$reverse_iterator@PAPAU?$grammar_helper_base@U?$grammar@VConsoleGrammar@@Uparser_context@spirit@boost@@@spirit@boost@@@impl@spirit@boost@@PAU1234@AAPAU1234@PAPAU1234@H@_STL@@XZ 0040d1d3 f i Core:ConsoleCommandLineParser.obj
 0001:0000c1ec       ??0?$object_with_id_base_supply@K@impl@spirit@boost@@QAE@XZ 0040d1ec f i Core:ConsoleCommandLineParser.obj
 0001:0000c244       ?rbegin@?$vector@KV?$allocator@K@_STL@@@_STL@@QAE?AV?$reverse_iterator@PAKKAAKPAKH@2@XZ 0040d244 f i Core:ConsoleCommandLineParser.obj
 0001:0000c244       ?rbegin@?$vector@PAU?$grammar_helper_base@U?$grammar@VConsoleGrammar@@Uparser_context@spirit@boost@@@spirit@boost@@@impl@spirit@boost@@V?$allocator@PAU?$grammar_helper_base@U?$grammar@VConsoleGrammar@@Uparser_context@spirit@boost@@@spirit@boost@@@impl@spirit@boost@@@_STL@@@_STL@@QAE?AV?$reverse_iterator@PAPAU?$grammar_helper_base@U?$grammar@VConsoleGrammar@@Uparser_context@spirit@boost@@@spirit@boost@@@impl@spirit@boost@@PAU1234@AAPAU1234@PAPAU1234@H@2@XZ 0040d244 f i Core:ConsoleCommandLineParser.obj
 0001:0000c263       ?rend@?$vector@PAU?$grammar_helper_base@U?$grammar@VConsoleGrammar@@Uparser_context@spirit@boost@@@spirit@boost@@@impl@spirit@boost@@V?$allocator@PAU?$grammar_helper_base@U?$grammar@VConsoleGrammar@@Uparser_context@spirit@boost@@@spirit@boost@@@impl@spirit@boost@@@_STL@@@_STL@@QAE?AV?$reverse_iterator@PAPAU?$grammar_helper_base@U?$grammar@VConsoleGrammar@@Uparser_context@spirit@boost@@@spirit@boost@@@impl@spirit@boost@@PAU1234@AAPAU1234@PAPAU1234@H@2@XZ 0040d263 f i Core:ConsoleCommandLineParser.obj
 0001:0000c282       ??1?$vector@PAU?$grammar_helper_base@U?$grammar@VConsoleGrammar@@Uparser_context@spirit@boost@@@spirit@boost@@@impl@spirit@boost@@V?$allocator@PAU?$grammar_helper_base@U?$grammar@VConsoleGrammar@@Uparser_context@spirit@boost@@@spirit@boost@@@impl@spirit@boost@@@_STL@@@_STL@@QAE@XZ 0040d282 f i Core:ConsoleCommandLineParser.obj
 0001:0000c282       ??1?$vector@KV?$allocator@K@_STL@@@_STL@@QAE@XZ 0040d282 f i Core:ConsoleCommandLineParser.obj
 0001:0000c282       ??1?$vector@PAU?$definition@V?$scanner@PBDU?$scanner_policies@Uiteration_policy@spirit@boost@@Umatch_policy@23@Uaction_policy@23@@spirit@boost@@@spirit@boost@@@ConsoleGrammar@@V?$allocator@PAU?$definition@V?$scanner@PBDU?$scanner_policies@Uiteration_policy@spirit@boost@@Umatch_policy@23@Uaction_policy@23@@spirit@boost@@@spirit@boost@@@ConsoleGrammar@@@_STL@@@_STL@@QAE@XZ 0040d282 f i Core:ConsoleCommandLineParser.obj
 0001:0000c2be       ??1?$_Vector_base@KV?$allocator@K@_STL@@@_STL@@QAE@XZ 0040d2be f i Core:ConsoleCommandLineParser.obj
 0001:0000c2be       ??1?$_Vector_base@PAU?$grammar_helper_base@U?$grammar@VConsoleGrammar@@Uparser_context@spirit@boost@@@spirit@boost@@@impl@spirit@boost@@V?$allocator@PAU?$grammar_helper_base@U?$grammar@VConsoleGrammar@@Uparser_context@spirit@boost@@@spirit@boost@@@impl@spirit@boost@@@_STL@@@_STL@@QAE@XZ 0040d2be f i Core:ConsoleCommandLineParser.obj
 0001:0000c2be       ??1?$_Vector_base@PAU?$definition@V?$scanner@PBDU?$scanner_policies@Uiteration_policy@spirit@boost@@Umatch_policy@23@Uaction_policy@23@@spirit@boost@@@spirit@boost@@@ConsoleGrammar@@V?$allocator@PAU?$definition@V?$scanner@PBDU?$scanner_policies@Uiteration_policy@spirit@boost@@Umatch_policy@23@Uaction_policy@23@@spirit@boost@@@spirit@boost@@@ConsoleGrammar@@@_STL@@@_STL@@QAE@XZ 0040d2be f i Core:ConsoleCommandLineParser.obj
 0001:0000c312       ?acquire@?$object_with_id_base_supply@K@impl@spirit@boost@@QAEKXZ 0040d312 f i Core:ConsoleCommandLineParser.obj
 0001:0000c390       ?release@?$object_with_id_base_supply@K@impl@spirit@boost@@QAEXK@Z 0040d390 f i Core:ConsoleCommandLineParser.obj
 0001:0000c3c1       ?reset@?$shared_ptr@U?$object_with_id_base_supply@K@impl@spirit@boost@@@boost@@QAEXPAU?$object_with_id_base_supply@K@impl@spirit@2@@Z 0040d3c1 f i Core:ConsoleCommandLineParser.obj
 0001:0000c436       ?parse@spirit@boost@@YA?AU?$parse_info@PBD@12@ABQBD0ABU?$parser@VConsoleGrammar@@@12@@Z 0040d436 f i Core:ConsoleCommandLineParser.obj
 0001:0000c4d5       ?bind2nd@_STL@@YA?AV?$binder2nd@V?$mem_fun1_t@HU?$grammar_helper_base@U?$grammar@VConsoleGrammar@@Uparser_context@spirit@boost@@@spirit@boost@@@impl@spirit@boost@@PAU?$grammar@VConsoleGrammar@@Uparser_context@spirit@boost@@@34@@_STL@@@1@ABV?$mem_fun1_t@HU?$grammar_helper_base@U?$grammar@VConsoleGrammar@@Uparser_context@spirit@boost@@@spirit@boost@@@impl@spirit@boost@@PAU?$grammar@VConsoleGrammar@@Uparser_context@spirit@boost@@@34@@1@ABQAU?$grammar@VConsoleGrammar@@Uparser_context@spirit@boost@@@spirit@boost@@@Z 0040d4d5 f i Core:ConsoleCommandLineParser.obj
 0001:0000c4eb       ?for_each@_STL@@YA?AV?$binder2nd@V?$mem_fun1_t@HU?$grammar_helper_base@U?$grammar@VConsoleGrammar@@Uparser_context@spirit@boost@@@spirit@boost@@@impl@spirit@boost@@PAU?$grammar@VConsoleGrammar@@Uparser_context@spirit@boost@@@34@@_STL@@@1@V?$reverse_iterator@PAPAU?$grammar_helper_base@U?$grammar@VConsoleGrammar@@Uparser_context@spirit@boost@@@spirit@boost@@@impl@spirit@boost@@PAU1234@AAPAU1234@PAPAU1234@H@1@0V21@@Z 0040d4eb f i Core:ConsoleCommandLineParser.obj
 0001:0000c534       ??0?$parse_info@PBD@spirit@boost@@QAE@ABQBD_N1I@Z 0040d534 f i Core:ConsoleCommandLineParser.obj
 0001:0000c567       ?capacity@?$vector@KV?$allocator@K@_STL@@@_STL@@QBEIXZ 0040d567 f i Core:ConsoleCommandLineParser.obj
 0001:0000c57e       ?pop_back@?$vector@IV?$allocator@I@_STL@@@_STL@@QAEXXZ 0040d57e f i Core:Console.obj
 0001:0000c57e       ?pop_back@?$vector@KV?$allocator@K@_STL@@@_STL@@QAEXXZ 0040d57e f i Core:ConsoleCommandLineParser.obj
 0001:0000c5a2       ??D?$reverse_iterator@PAKKAAKPAKH@_STL@@QBEAAKXZ 0040d5a2 f i Core:ConsoleCommandLineParser.obj
 0001:0000c5a2       ??D?$reverse_iterator@PAPAU?$grammar_helper_base@U?$grammar@VConsoleGrammar@@Uparser_context@spirit@boost@@@spirit@boost@@@impl@spirit@boost@@PAU1234@AAPAU1234@PAPAU1234@H@_STL@@QBEAAPAU?$grammar_helper_base@U?$grammar@VConsoleGrammar@@Uparser_context@spirit@boost@@@spirit@boost@@@impl@spirit@boost@@XZ 0040d5a2 f i Core:ConsoleCommandLineParser.obj
 0001:0000c5b3       ??E?$reverse_iterator@PAPAU?$grammar_helper_base@U?$grammar@VConsoleGrammar@@Uparser_context@spirit@boost@@@spirit@boost@@@impl@spirit@boost@@PAU1234@AAPAU1234@PAPAU1234@H@_STL@@QAEAAV01@XZ 0040d5b3 f i Core:ConsoleCommandLineParser.obj
 0001:0000c5cc       ??0?$binder2nd@V?$mem_fun1_t@HU?$grammar_helper_base@U?$grammar@VConsoleGrammar@@Uparser_context@spirit@boost@@@spirit@boost@@@impl@spirit@boost@@PAU?$grammar@VConsoleGrammar@@Uparser_context@spirit@boost@@@34@@_STL@@@_STL@@QAE@ABV?$mem_fun1_t@HU?$grammar_helper_base@U?$grammar@VConsoleGrammar@@Uparser_context@spirit@boost@@@spirit@boost@@@impl@spirit@boost@@PAU?$grammar@VConsoleGrammar@@Uparser_context@spirit@boost@@@34@@1@ABQAU?$grammar@VConsoleGrammar@@Uparser_context@spirit@boost@@@spirit@boost@@@Z 0040d5cc f i Core:ConsoleCommandLineParser.obj
 0001:0000c5ef       ??R?$binder2nd@V?$mem_fun1_t@HU?$grammar_helper_base@U?$grammar@VConsoleGrammar@@Uparser_context@spirit@boost@@@spirit@boost@@@impl@spirit@boost@@PAU?$grammar@VConsoleGrammar@@Uparser_context@spirit@boost@@@34@@_STL@@@_STL@@QBEHAAPAU?$grammar_helper_base@U?$grammar@VConsoleGrammar@@Uparser_context@spirit@boost@@@spirit@boost@@@impl@spirit@boost@@@Z 0040d5ef f i Core:ConsoleCommandLineParser.obj
 0001:0000c60d       ??0?$scanner_policies@Uiteration_policy@spirit@boost@@Umatch_policy@23@Uaction_policy@23@@spirit@boost@@QAE@ABUiteration_policy@12@ABUmatch_policy@12@ABUaction_policy@12@@Z 0040d60d f i Core:ConsoleCommandLineParser.obj
 0001:0000c63b       ??R?$mem_fun1_t@HU?$grammar_helper_base@U?$grammar@VConsoleGrammar@@Uparser_context@spirit@boost@@@spirit@boost@@@impl@spirit@boost@@PAU?$grammar@VConsoleGrammar@@Uparser_context@spirit@boost@@@34@@_STL@@QBEHPAU?$grammar_helper_base@U?$grammar@VConsoleGrammar@@Uparser_context@spirit@boost@@@spirit@boost@@@impl@spirit@boost@@PAU?$grammar@VConsoleGrammar@@Uparser_context@spirit@boost@@@45@@Z 0040d63b f i Core:ConsoleCommandLineParser.obj
 0001:0000c651       ?at_end@?$scanner@PBDU?$scanner_policies@Uiteration_policy@spirit@boost@@Umatch_policy@23@Uaction_policy@23@@spirit@boost@@@spirit@boost@@QBE_NXZ 0040d651 f i Core:ConsoleCommandLineParser.obj
 0001:0000c651       ?at_end@?$scanner@PBDU?$scanner_policies@U?$inhibit_case_iteration_policy@Uiteration_policy@spirit@boost@@@spirit@boost@@Umatch_policy@23@Uaction_policy@23@@spirit@boost@@@spirit@boost@@QBE_NXZ 0040d651 f i Core:ConsoleCommandLineParser.obj
 0001:0000c665       ?reserve@?$vector@KV?$allocator@K@_STL@@@_STL@@QAEXI@Z 0040d665 f i Core:ConsoleCommandLineParser.obj
 0001:0000c6e7       ??0?$shared_ptr@U?$object_with_id_base_supply@K@impl@spirit@boost@@@boost@@QAE@PAU?$object_with_id_base_supply@K@impl@spirit@1@@Z 0040d6e7 f i Core:ConsoleCommandLineParser.obj
 0001:0000c73d       ?parse@?$grammar@VConsoleGrammar@@Uparser_context@spirit@boost@@@spirit@boost@@QBE?AV?$match@Unil_t@spirit@boost@@@23@ABV?$scanner@PBDU?$scanner_policies@Uiteration_policy@spirit@boost@@Umatch_policy@23@Uaction_policy@23@@spirit@boost@@@23@@Z 0040d73d f i Core:ConsoleCommandLineParser.obj
 0001:0000c7a5       ??9_STL@@YA_NABV?$reverse_iterator@PAPAU?$grammar_helper_base@U?$grammar@VConsoleGrammar@@Uparser_context@spirit@boost@@@spirit@boost@@@impl@spirit@boost@@PAU1234@AAPAU1234@PAPAU1234@H@0@0@Z 0040d7a5 f i Core:ConsoleCommandLineParser.obj
 0001:0000c7bf       ?_Construct@_STL@@YAXPAKABK@Z 0040d7bf f i Core:ConsoleCommandLineParser.obj
 0001:0000c7bf       ?_Construct@_STL@@YAXPAPAU?$grammar_helper_base@U?$grammar@VConsoleGrammar@@Uparser_context@spirit@boost@@@spirit@boost@@@impl@spirit@boost@@ABQAU2345@@Z 0040d7bf f i Core:ConsoleCommandLineParser.obj
 0001:0000c7bf       ?_Construct@_STL@@YAXPAIABI@Z 0040d7bf f i TerrainDemoApplication.obj
 0001:0000c7f1       ?at_end@iteration_policy@spirit@boost@@QBE_NABV?$scanner@PBDU?$scanner_policies@U?$inhibit_case_iteration_policy@Uiteration_policy@spirit@boost@@@spirit@boost@@Umatch_policy@23@Uaction_policy@23@@spirit@boost@@@23@@Z 0040d7f1 f i Core:ConsoleCommandLineParser.obj
 0001:0000c7f1       ?at_end@iteration_policy@spirit@boost@@QBE_NABV?$scanner@PBDU?$scanner_policies@Uiteration_policy@spirit@boost@@Umatch_policy@23@Uaction_policy@23@@spirit@boost@@@23@@Z 0040d7f1 f i Core:ConsoleCommandLineParser.obj
 0001:0000c80f       ??0?$scanner@PBDU?$scanner_policies@Uiteration_policy@spirit@boost@@Umatch_policy@23@Uaction_policy@23@@spirit@boost@@@spirit@boost@@QAE@ABV012@@Z 0040d80f f i Core:ConsoleCommandLineParser.obj
 0001:0000c840       ??0?$parser_scanner_linker@V?$scanner@PBDU?$scanner_policies@Uiteration_policy@spirit@boost@@Umatch_policy@23@Uaction_policy@23@@spirit@boost@@@spirit@boost@@@spirit@boost@@QAE@V?$scanner@PBDU?$scanner_policies@Uiteration_policy@spirit@boost@@Umatch_policy@23@Uaction_policy@23@@spirit@boost@@@12@@Z 0040d840 f i Core:ConsoleCommandLineParser.obj
 0001:0000c85a       ?_M_allocate_and_copy@?$vector@KV?$allocator@K@_STL@@@_STL@@IAEPAKIPAK0@Z 0040d85a f i Core:ConsoleCommandLineParser.obj
 0001:0000c8d1       ??0shared_count@detail@boost@@QAE@PAU?$object_with_id_base_supply@K@impl@spirit@2@U?$checked_deleter@U?$object_with_id_base_supply@K@impl@spirit@boost@@@2@@Z 0040d8d1 f i Core:ConsoleCommandLineParser.obj
 0001:0000c96a       ??0?$parser_context_linker@Uparser_context@spirit@boost@@@spirit@boost@@QAE@ABV?$rule@V?$scanner@PBDU?$scanner_policies@Uiteration_policy@spirit@boost@@Umatch_policy@23@Uaction_policy@23@@spirit@boost@@@spirit@boost@@Uparser_context@23@Uparser_address_tag@23@@12@@Z 0040d96a f i Core:ConsoleCommandLineParser.obj
 0001:0000c96a       ??0?$parser_context_linker@Uparser_context@spirit@boost@@@spirit@boost@@QAE@ABU?$grammar@VConsoleGrammar@@Uparser_context@spirit@boost@@@12@@Z 0040d96a f i Core:ConsoleCommandLineParser.obj
 0001:0000c96a       ??0?$right_subject@U?$kleene_star@Uanychar_parser@spirit@boost@@@spirit@boost@@U?$parser@U?$sequence@U?$alternative@U?$chlit@D@spirit@boost@@V?$strlit@PBD@23@@spirit@boost@@U?$kleene_star@Uanychar_parser@spirit@boost@@@23@@spirit@boost@@@23@@impl@spirit@boost@@QAE@ABU?$kleene_star@Uanychar_parser@spirit@boost@@@23@@Z 0040d96a f i Core:ConsoleCommandLineParser.obj
 0001:0000c96a       ??0?$subject@U?$real_parser@NU?$strict_real_parser_policies@N@spirit@boost@@@spirit@boost@@U?$parser@V?$action@U?$real_parser@NU?$strict_real_parser_policies@N@spirit@boost@@@spirit@boost@@VAddFloatToArgs@@@spirit@boost@@@23@@impl@spirit@boost@@QAE@ABU?$real_parser@NU?$strict_real_parser_policies@N@spirit@boost@@@23@@Z 0040d96a f i Core:ConsoleCommandLineParser.obj
 0001:0000c96a       ??0?$subject@U?$int_parser@H$09$00$0?0@spirit@boost@@U?$parser@V?$action@U?$int_parser@H$09$00$0?0@spirit@boost@@VAddIntegerToArgs@@@spirit@boost@@@23@@impl@spirit@boost@@QAE@ABU?$int_parser@H$09$00$0?0@23@@Z 0040d96a f i Core:ConsoleCommandLineParser.obj
 0001:0000c96a       ??0?$subject@U?$uint_parser@I$09$00$0?0@spirit@boost@@U?$parser@V?$action@U?$uint_parser@I$09$00$0?0@spirit@boost@@VAddUnsignedIntegerToArgs@@@spirit@boost@@@23@@impl@spirit@boost@@QAE@ABU?$uint_parser@I$09$00$0?0@23@@Z 0040d96a f i Core:ConsoleCommandLineParser.obj
 0001:0000c96a       ??0?$subject@Uspace_parser@spirit@boost@@U?$parser@U?$positive@Uspace_parser@spirit@boost@@@spirit@boost@@@23@@impl@spirit@boost@@QAE@ABUspace_parser@23@@Z 0040d96a f i Core:ConsoleCommandLineParser.obj
 0001:0000c96a       ??0?$subject@Uanychar_parser@spirit@boost@@U?$parser@U?$kleene_star@Uanychar_parser@spirit@boost@@@spirit@boost@@@23@@impl@spirit@boost@@QAE@ABUanychar_parser@23@@Z 0040d96a f i Core:ConsoleCommandLineParser.obj
 0001:0000c96a       ??0?$right_subject@Uspace_parser@spirit@boost@@U?$parser@U?$difference@U?$negated_char_parser@U?$chlit@D@spirit@boost@@@spirit@boost@@Uspace_parser@23@@spirit@boost@@@23@@impl@spirit@boost@@QAE@ABUspace_parser@23@@Z 0040d96a f i Core:ConsoleCommandLineParser.obj
 0001:0000c983       ?pre_parse@?$parser_context_linker@Uparser_context@spirit@boost@@@spirit@boost@@QAEXABV?$rule@V?$scanner@PBDU?$scanner_policies@Uiteration_policy@spirit@boost@@Umatch_policy@23@Uaction_policy@23@@spirit@boost@@@spirit@boost@@Uparser_context@23@Uparser_address_tag@23@@23@ABU?$parser_scanner_linker@V?$scanner@PBDU?$scanner_policies@Uiteration_policy@spirit@boost@@Umatch_policy@23@Uaction_policy@23@@spirit@boost@@@spirit@boost@@@23@@Z 0040d983 f i Core:ConsoleCommandLineParser.obj
 0001:0000c983       ?pre_parse@?$parser_context_linker@Uparser_context@spirit@boost@@@spirit@boost@@QAEXABU?$grammar@VConsoleGrammar@@Uparser_context@spirit@boost@@@23@ABU?$parser_scanner_linker@V?$scanner@PBDU?$scanner_policies@Uiteration_policy@spirit@boost@@Umatch_policy@23@Uaction_policy@23@@spirit@boost@@@spirit@boost@@@23@@Z 0040d983 f i Core:ConsoleCommandLineParser.obj
 0001:0000c99c       ?parse_main@?$grammar@VConsoleGrammar@@Uparser_context@spirit@boost@@@spirit@boost@@QBE?AV?$match@Unil_t@spirit@boost@@@23@ABV?$scanner@PBDU?$scanner_policies@Uiteration_policy@spirit@boost@@Umatch_policy@23@Uaction_policy@23@@spirit@boost@@@23@@Z 0040d99c f i Core:ConsoleCommandLineParser.obj
 0001:0000c9bb       ??8_STL@@YA_NABV?$reverse_iterator@PAPAU?$grammar_helper_base@U?$grammar@VConsoleGrammar@@Uparser_context@spirit@boost@@@spirit@boost@@@impl@spirit@boost@@PAU1234@AAPAU1234@PAPAU1234@H@0@0@Z 0040d9bb f i Core:ConsoleCommandLineParser.obj
 0001:0000c9dd       ?sp_enable_shared_from_this@detail@boost@@YAXABVshared_count@12@ZZ 0040d9dd f i Main.obj
 0001:0000c9dd       ??3@YAXPAX0@Z              0040d9dd f i Main.obj
 0001:0000c9dd       ?__destroy_aux@_STL@@YAXU?$_Deque_iterator@IU?$_Nonconst_traits@I@_STL@@@1@0ABU__true_type@1@@Z 0040d9dd f i DirectX9Renderer:DirectX9Renderer.obj
 0001:0000c9dd       ?__destroy_aux@_STL@@YAXPAPAU?$grammar_helper_base@U?$grammar@VConsoleGrammar@@Uparser_context@spirit@boost@@@spirit@boost@@@impl@spirit@boost@@0ABU__true_type@1@@Z 0040d9dd f i Core:ConsoleCommandLineParser.obj
 0001:0000c9dd       ?_Destroy@_STL@@YAXPAU?$pair@$$CBIPAVConsoleCommand@Core@@@1@@Z 0040d9dd f i Core:Console.obj
 0001:0000c9dd       ?__destroy_aux@_STL@@YAXPAPAU?$definition@V?$scanner@PBDU?$scanner_policies@Uiteration_policy@spirit@boost@@Umatch_policy@23@Uaction_policy@23@@spirit@boost@@@spirit@boost@@@ConsoleGrammar@@0ABU__true_type@1@@Z 0040d9dd f i Core:ConsoleCommandLineParser.obj
 0001:0000c9dd       ?__destroy_aux@_STL@@YAXPAK0ABU__true_type@1@@Z 0040d9dd f i Core:ConsoleCommandLineParser.obj
 0001:0000c9dd       ?_Destroy@_STL@@YAXPAI@Z   0040d9dd f i Core:Console.obj
 0001:0000c9dd       ?__destroy_aux@_STL@@YAXPAI0ABU__true_type@1@@Z 0040d9dd f i Core:Console.obj
 0001:0000c9dd       ?_Destroy@_STL@@YAXPAK@Z   0040d9dd f i Core:ConsoleCommandLineParser.obj
 0001:0000c9e2       ??0?$scanner_policies@Uiteration_policy@spirit@boost@@Umatch_policy@23@Uaction_policy@23@@spirit@boost@@QAE@ABV?$scanner@PBDU?$scanner_policies@Uiteration_policy@spirit@boost@@Umatch_policy@23@Uaction_policy@23@@spirit@boost@@@12@@Z 0040d9e2 f i Core:ConsoleCommandLineParser.obj
 0001:0000ca25       ??R?$checked_deleter@U?$object_with_id_base_supply@K@impl@spirit@boost@@@boost@@QBEXPAU?$object_with_id_base_supply@K@impl@spirit@1@@Z 0040da25 f i Core:ConsoleCommandLineParser.obj
 0001:0000ca39       ??0?$sp_counted_base_impl@PAU?$object_with_id_base_supply@K@impl@spirit@boost@@U?$checked_deleter@U?$object_with_id_base_supply@K@impl@spirit@boost@@@4@@detail@boost@@QAE@PAU?$object_with_id_base_supply@K@impl@spirit@2@U?$checked_deleter@U?$object_with_id_base_supply@K@impl@spirit@boost@@@2@@Z 0040da39 f i Core:ConsoleCommandLineParser.obj
 0001:0000ca6a       ?dispose@?$sp_counted_base_impl@PAU?$object_with_id_base_supply@K@impl@spirit@boost@@U?$checked_deleter@U?$object_with_id_base_supply@K@impl@spirit@boost@@@4@@detail@boost@@UAEXXZ 0040da6a f i Core:ConsoleCommandLineParser.obj
 0001:0000ca84       ?get_deleter@?$sp_counted_base_impl@PAU?$object_with_id_base_supply@K@impl@spirit@boost@@U?$checked_deleter@U?$object_with_id_base_supply@K@impl@spirit@boost@@@4@@detail@boost@@UAEPAXABVtype_info@@@Z 0040da84 f i Core:ConsoleCommandLineParser.obj
 0001:0000caa9       ?grammar_parser_parse@impl@spirit@boost@@YA?AV?$match@Unil_t@spirit@boost@@@23@PBU?$grammar@VConsoleGrammar@@Uparser_context@spirit@boost@@@23@ABV?$scanner@PBDU?$scanner_policies@Uiteration_policy@spirit@boost@@Umatch_policy@23@Uaction_policy@23@@spirit@boost@@@23@@Z 0040daa9 f i Core:ConsoleCommandLineParser.obj
 0001:0000cbcd       ?checked_delete@boost@@YAXPAU?$object_with_id_base_supply@K@impl@spirit@1@@Z 0040dbcd f i Core:ConsoleCommandLineParser.obj
 0001:0000cbfa       ??_G?$object_with_id_base_supply@K@impl@spirit@boost@@QAEPAXI@Z 0040dbfa f i Core:ConsoleCommandLineParser.obj
 0001:0000cc23       ??1?$object_with_id_base_supply@K@impl@spirit@boost@@QAE@XZ 0040dc23 f i Core:ConsoleCommandLineParser.obj
 0001:0000cc37       ??0?$grammar_helper@U?$grammar@VConsoleGrammar@@Uparser_context@spirit@boost@@@spirit@boost@@VConsoleGrammar@@V?$scanner@PBDU?$scanner_policies@Uiteration_policy@spirit@boost@@Umatch_policy@23@Uaction_policy@23@@spirit@boost@@@23@@impl@spirit@boost@@QAE@AAV?$weak_ptr@U?$grammar_helper@U?$grammar@VConsoleGrammar@@Uparser_context@spirit@boost@@@spirit@boost@@VConsoleGrammar@@V?$scanner@PBDU?$scanner_policies@Uiteration_policy@spirit@boost@@Umatch_policy@23@Uaction_policy@23@@spirit@boost@@@23@@impl@spirit@boost@@@3@@Z 0040dc37 f i Core:ConsoleCommandLineParser.obj
 0001:0000ccce       ??1?$grammar_helper_base@U?$grammar@VConsoleGrammar@@Uparser_context@spirit@boost@@@spirit@boost@@@impl@spirit@boost@@UAE@XZ 0040dcce f i Core:ConsoleCommandLineParser.obj
 0001:0000cce0       ??_G?$grammar_helper_base@U?$grammar@VConsoleGrammar@@Uparser_context@spirit@boost@@@spirit@boost@@@impl@spirit@boost@@UAEPAXI@Z 0040dce0 f i Core:ConsoleCommandLineParser.obj
 0001:0000cce0       ??_E?$grammar_helper_base@U?$grammar@VConsoleGrammar@@Uparser_context@spirit@boost@@@spirit@boost@@@impl@spirit@boost@@UAEPAXI@Z 0040dce0 f i Core:ConsoleCommandLineParser.obj
 0001:0000cd09       ?define@?$grammar_helper@U?$grammar@VConsoleGrammar@@Uparser_context@spirit@boost@@@spirit@boost@@VConsoleGrammar@@V?$scanner@PBDU?$scanner_policies@Uiteration_policy@spirit@boost@@Umatch_policy@23@Uaction_policy@23@@spirit@boost@@@23@@impl@spirit@boost@@QAEAAU?$definition@V?$scanner@PBDU?$scanner_policies@Uiteration_policy@spirit@boost@@Umatch_policy@23@Uaction_policy@23@@spirit@boost@@@spirit@boost@@@ConsoleGrammar@@PBU?$grammar@VConsoleGrammar@@Uparser_context@spirit@boost@@@34@@Z 0040dd09 f i Core:ConsoleCommandLineParser.obj
 0001:0000ce27       ?undefine@?$grammar_helper@U?$grammar@VConsoleGrammar@@Uparser_context@spirit@boost@@@spirit@boost@@VConsoleGrammar@@V?$scanner@PBDU?$scanner_policies@Uiteration_policy@spirit@boost@@Umatch_policy@23@Uaction_policy@23@@spirit@boost@@@23@@impl@spirit@boost@@UAEHPAU?$grammar@VConsoleGrammar@@Uparser_context@spirit@boost@@@34@@Z 0040de27 f i Core:ConsoleCommandLineParser.obj
 0001:0000cebc       ??_E?$grammar_helper@U?$grammar@VConsoleGrammar@@Uparser_context@spirit@boost@@@spirit@boost@@VConsoleGrammar@@V?$scanner@PBDU?$scanner_policies@Uiteration_policy@spirit@boost@@Umatch_policy@23@Uaction_policy@23@@spirit@boost@@@23@@impl@spirit@boost@@UAEPAXI@Z 0040debc f i Core:ConsoleCommandLineParser.obj
 0001:0000cebc       ??_G?$grammar_helper@U?$grammar@VConsoleGrammar@@Uparser_context@spirit@boost@@@spirit@boost@@VConsoleGrammar@@V?$scanner@PBDU?$scanner_policies@Uiteration_policy@spirit@boost@@Umatch_policy@23@Uaction_policy@23@@spirit@boost@@@23@@impl@spirit@boost@@UAEPAXI@Z 0040debc f i Core:ConsoleCommandLineParser.obj
 0001:0000cee5       ??0?$grammar_helper_base@U?$grammar@VConsoleGrammar@@Uparser_context@spirit@boost@@@spirit@boost@@@impl@spirit@boost@@QAE@XZ 0040dee5 f i Core:ConsoleCommandLineParser.obj
 0001:0000cefa       ??_G?$definition@V?$scanner@PBDU?$scanner_policies@Uiteration_policy@spirit@boost@@Umatch_policy@23@Uaction_policy@23@@spirit@boost@@@spirit@boost@@@ConsoleGrammar@@QAEPAXI@Z 0040defa f i Core:ConsoleCommandLineParser.obj
 0001:0000cf23       ??1?$grammar_helper@U?$grammar@VConsoleGrammar@@Uparser_context@spirit@boost@@@spirit@boost@@VConsoleGrammar@@V?$scanner@PBDU?$scanner_policies@Uiteration_policy@spirit@boost@@Umatch_policy@23@Uaction_policy@23@@spirit@boost@@@23@@impl@spirit@boost@@UAE@XZ 0040df23 f i Core:ConsoleCommandLineParser.obj
 0001:0000cf6a       ??1?$definition@V?$scanner@PBDU?$scanner_policies@Uiteration_policy@spirit@boost@@Umatch_policy@23@Uaction_policy@23@@spirit@boost@@@spirit@boost@@@ConsoleGrammar@@QAE@XZ 0040df6a f i Core:ConsoleCommandLineParser.obj
 0001:0000d00b       ?push_back@?$grammar_helper_list@U?$grammar@VConsoleGrammar@@Uparser_context@spirit@boost@@@spirit@boost@@@impl@spirit@boost@@QAEXPAU?$grammar_helper_base@U?$grammar@VConsoleGrammar@@Uparser_context@spirit@boost@@@spirit@boost@@@234@@Z 0040e00b f i Core:ConsoleCommandLineParser.obj
 0001:0000d022       ?size@?$vector@PAU?$grammar_helper_base@U?$grammar@VConsoleGrammar@@Uparser_context@spirit@boost@@@spirit@boost@@@impl@spirit@boost@@V?$allocator@PAU?$grammar_helper_base@U?$grammar@VConsoleGrammar@@Uparser_context@spirit@boost@@@spirit@boost@@@impl@spirit@boost@@@_STL@@@_STL@@QBEIXZ 0040e022 f i Core:ConsoleCommandLineParser.obj
 0001:0000d022       ?size@?$vector@KV?$allocator@K@_STL@@@_STL@@QBEIXZ 0040e022 f i Core:ConsoleCommandLineParser.obj
 0001:0000d022       ?size@?$vector@IV?$allocator@I@_STL@@@_STL@@QBEIXZ 0040e022 f i TerrainDemoApplication.obj
 0001:0000d022       ?size@?$vector@Vany@boost@@V?$allocator@Vany@boost@@@_STL@@@_STL@@QBEIXZ 0040e022 f i Core:Console.obj
 0001:0000d022       ?size@?$vector@PAU?$definition@V?$scanner@PBDU?$scanner_policies@Uiteration_policy@spirit@boost@@Umatch_policy@23@Uaction_policy@23@@spirit@boost@@@spirit@boost@@@ConsoleGrammar@@V?$allocator@PAU?$definition@V?$scanner@PBDU?$scanner_policies@Uiteration_policy@spirit@boost@@Umatch_policy@23@Uaction_policy@23@@spirit@boost@@@spirit@boost@@@ConsoleGrammar@@@_STL@@@_STL@@QBEIXZ 0040e022 f i Core:ConsoleCommandLineParser.obj
 0001:0000d039       ??A?$vector@Vany@boost@@V?$allocator@Vany@boost@@@_STL@@@_STL@@QBEABVany@boost@@I@Z 0040e039 f i Core:Console.obj
 0001:0000d039       ??A?$vector@IV?$allocator@I@_STL@@@_STL@@QAEAAII@Z 0040e039 f i TerrainDemoApplication.obj
 0001:0000d039       ??A?$vector@PAU?$definition@V?$scanner@PBDU?$scanner_policies@Uiteration_policy@spirit@boost@@Umatch_policy@23@Uaction_policy@23@@spirit@boost@@@spirit@boost@@@ConsoleGrammar@@V?$allocator@PAU?$definition@V?$scanner@PBDU?$scanner_policies@Uiteration_policy@spirit@boost@@Umatch_policy@23@Uaction_policy@23@@spirit@boost@@@spirit@boost@@@ConsoleGrammar@@@_STL@@@_STL@@QAEAAPAU?$definition@V?$scanner@PBDU?$scanner_policies@Uiteration_policy@spirit@boost@@Umatch_policy@23@Uaction_policy@23@@spirit@boost@@@spirit@boost@@@ConsoleGrammar@@I@Z 0040e039 f i Core:ConsoleCommandLineParser.obj
 0001:0000d039       ??A?$vector@IV?$allocator@I@_STL@@@_STL@@QBEABII@Z 0040e039 f i TerrainDemoApplication.obj
 0001:0000d052       ?resize@?$vector@PAU?$definition@V?$scanner@PBDU?$scanner_policies@Uiteration_policy@spirit@boost@@Umatch_policy@23@Uaction_policy@23@@spirit@boost@@@spirit@boost@@@ConsoleGrammar@@V?$allocator@PAU?$definition@V?$scanner@PBDU?$scanner_policies@Uiteration_policy@spirit@boost@@Umatch_policy@23@Uaction_policy@23@@spirit@boost@@@spirit@boost@@@ConsoleGrammar@@@_STL@@@_STL@@QAEXI@Z 0040e052 f i Core:ConsoleCommandLineParser.obj
 0001:0000d06a       ?reset@?$shared_ptr@U?$grammar_helper@U?$grammar@VConsoleGrammar@@Uparser_context@spirit@boost@@@spirit@boost@@VConsoleGrammar@@V?$scanner@PBDU?$scanner_policies@Uiteration_policy@spirit@boost@@Umatch_policy@23@Uaction_policy@23@@spirit@boost@@@23@@impl@spirit@boost@@@boost@@QAEXXZ 0040e06a f i Core:ConsoleCommandLineParser.obj
 0001:0000d0b2       ??0?$definition@V?$scanner@PBDU?$scanner_policies@Uiteration_policy@spirit@boost@@Umatch_policy@23@Uaction_policy@23@@spirit@boost@@@spirit@boost@@@ConsoleGrammar@@QAE@ABV1@@Z 0040e0b2 f i Core:ConsoleCommandLineParser.obj
 0001:0000d588       ?Name@ConsoleGrammar@@QBEAAV?$basic_string@DV?$char_traits@D@_STL@@V?$allocator@D@2@@_STL@@XZ 0040e588 f i Core:ConsoleCommandLineParser.obj
 0001:0000d597       ?Args@ConsoleGrammar@@QBEAAV?$vector@Vany@boost@@V?$allocator@Vany@boost@@@_STL@@@_STL@@XZ 0040e597 f i Core:ConsoleCommandLineParser.obj
 0001:0000d5a6       ?release@?$auto_ptr@U?$definition@V?$scanner@PBDU?$scanner_policies@Uiteration_policy@spirit@boost@@Umatch_policy@23@Uaction_policy@23@@spirit@boost@@@spirit@boost@@@ConsoleGrammar@@@_STL@@QAEPAU?$definition@V?$scanner@PBDU?$scanner_policies@Uiteration_policy@spirit@boost@@Umatch_policy@23@Uaction_policy@23@@spirit@boost@@@spirit@boost@@@ConsoleGrammar@@XZ 0040e5a6 f i Core:ConsoleCommandLineParser.obj
 0001:0000d5c4       ??0?$auto_ptr@U?$definition@V?$scanner@PBDU?$scanner_policies@Uiteration_policy@spirit@boost@@Umatch_policy@23@Uaction_policy@23@@spirit@boost@@@spirit@boost@@@ConsoleGrammar@@@_STL@@QAE@PAU?$definition@V?$scanner@PBDU?$scanner_policies@Uiteration_policy@spirit@boost@@Umatch_policy@23@Uaction_policy@23@@spirit@boost@@@spirit@boost@@@ConsoleGrammar@@@Z 0040e5c4 f i Core:ConsoleCommandLineParser.obj
 0001:0000d5dd       ?__set@__ptr_base@_STL@@QAEXPAX@Z 0040e5dd f i Core:ConsoleCommandLineParser.obj
 0001:0000d5f0       ??1?$auto_ptr@U?$definition@V?$scanner@PBDU?$scanner_policies@Uiteration_policy@spirit@boost@@Umatch_policy@23@Uaction_policy@23@@spirit@boost@@@spirit@boost@@@ConsoleGrammar@@@_STL@@QAE@XZ 0040e5f0 f i Core:ConsoleCommandLineParser.obj
 0001:0000d625       ?resize@?$vector@PAU?$definition@V?$scanner@PBDU?$scanner_policies@Uiteration_policy@spirit@boost@@Umatch_policy@23@Uaction_policy@23@@spirit@boost@@@spirit@boost@@@ConsoleGrammar@@V?$allocator@PAU?$definition@V?$scanner@PBDU?$scanner_policies@Uiteration_policy@spirit@boost@@Umatch_policy@23@Uaction_policy@23@@spirit@boost@@@spirit@boost@@@ConsoleGrammar@@@_STL@@@_STL@@QAEXIPAU?$definition@V?$scanner@PBDU?$scanner_policies@Uiteration_policy@spirit@boost@@Umatch_policy@23@Uaction_policy@23@@spirit@boost@@@spirit@boost@@@ConsoleGrammar@@@Z 0040e625 f i Core:ConsoleCommandLineParser.obj
 0001:0000d682       ?_M_insert_overflow@?$vector@IV?$allocator@I@_STL@@@_STL@@IAEXPAIABIABU__true_type@2@I_N@Z 0040e682 f i Core:Console.obj
 0001:0000d682       ?_M_insert_overflow@?$vector@PAU?$grammar_helper_base@U?$grammar@VConsoleGrammar@@Uparser_context@spirit@boost@@@spirit@boost@@@impl@spirit@boost@@V?$allocator@PAU?$grammar_helper_base@U?$grammar@VConsoleGrammar@@Uparser_context@spirit@boost@@@spirit@boost@@@impl@spirit@boost@@@_STL@@@_STL@@IAEXPAPAU?$grammar_helper_base@U?$grammar@VConsoleGrammar@@Uparser_context@spirit@boost@@@spirit@boost@@@impl@spirit@boost@@ABQAU3456@ABU__true_type@2@I_N@Z 0040e682 f i Core:ConsoleCommandLineParser.obj
 0001:0000d682       ?_M_insert_overflow@?$vector@KV?$allocator@K@_STL@@@_STL@@IAEXPAKABKABU__true_type@2@I_N@Z 0040e682 f i Core:ConsoleCommandLineParser.obj
 0001:0000d682       ?_M_insert_overflow@?$vector@PAU?$definition@V?$scanner@PBDU?$scanner_policies@Uiteration_policy@spirit@boost@@Umatch_policy@23@Uaction_policy@23@@spirit@boost@@@spirit@boost@@@ConsoleGrammar@@V?$allocator@PAU?$definition@V?$scanner@PBDU?$scanner_policies@Uiteration_policy@spirit@boost@@Umatch_policy@23@Uaction_policy@23@@spirit@boost@@@spirit@boost@@@ConsoleGrammar@@@_STL@@@_STL@@IAEXPAPAU?$definition@V?$scanner@PBDU?$scanner_policies@Uiteration_policy@spirit@boost@@Umatch_policy@23@Uaction_policy@23@@spirit@boost@@@spirit@boost@@@ConsoleGrammar@@ABQAU34@ABU__true_type@2@I_N@Z 0040e682 f i Core:ConsoleCommandLineParser.obj
 0001:0000d72d       ?insert@?$vector@PAU?$definition@V?$scanner@PBDU?$scanner_policies@Uiteration_policy@spirit@boost@@Umatch_policy@23@Uaction_policy@23@@spirit@boost@@@spirit@boost@@@ConsoleGrammar@@V?$allocator@PAU?$definition@V?$scanner@PBDU?$scanner_policies@Uiteration_policy@spirit@boost@@Umatch_policy@23@Uaction_policy@23@@spirit@boost@@@spirit@boost@@@ConsoleGrammar@@@_STL@@@_STL@@QAEXPAPAU?$definition@V?$scanner@PBDU?$scanner_policies@Uiteration_policy@spirit@boost@@Umatch_policy@23@Uaction_policy@23@@spirit@boost@@@spirit@boost@@@ConsoleGrammar@@IABQAU34@@Z 0040e72d f i Core:ConsoleCommandLineParser.obj
 0001:0000d749       ?erase@?$vector@PAU?$definition@V?$scanner@PBDU?$scanner_policies@Uiteration_policy@spirit@boost@@Umatch_policy@23@Uaction_policy@23@@spirit@boost@@@spirit@boost@@@ConsoleGrammar@@V?$allocator@PAU?$definition@V?$scanner@PBDU?$scanner_policies@Uiteration_policy@spirit@boost@@Umatch_policy@23@Uaction_policy@23@@spirit@boost@@@spirit@boost@@@ConsoleGrammar@@@_STL@@@_STL@@QAEPAPAU?$definition@V?$scanner@PBDU?$scanner_policies@Uiteration_policy@spirit@boost@@Umatch_policy@23@Uaction_policy@23@@spirit@boost@@@spirit@boost@@@ConsoleGrammar@@PAPAU34@0@Z 0040e749 f i Core:ConsoleCommandLineParser.obj
 0001:0000d78d       ?deallocate@?$allocator@Vany@boost@@@_STL@@QAEXPAVany@boost@@I@Z 0040e78d f i Core:Console.obj
 0001:0000d78d       ?deallocate@?$allocator@PAI@_STL@@QAEXPAPAII@Z 0040e78d f i TerrainDemoApplication.obj
 0001:0000d78d       ?deallocate@?$allocator@PAU?$grammar_helper_base@U?$grammar@VConsoleGrammar@@Uparser_context@spirit@boost@@@spirit@boost@@@impl@spirit@boost@@@_STL@@QAEXPAPAU?$grammar_helper_base@U?$grammar@VConsoleGrammar@@Uparser_context@spirit@boost@@@spirit@boost@@@impl@spirit@boost@@I@Z 0040e78d f i Core:ConsoleCommandLineParser.obj
 0001:0000d78d       ?deallocate@?$allocator@PAU?$definition@V?$scanner@PBDU?$scanner_policies@Uiteration_policy@spirit@boost@@Umatch_policy@23@Uaction_policy@23@@spirit@boost@@@spirit@boost@@@ConsoleGrammar@@@_STL@@QAEXPAPAU?$definition@V?$scanner@PBDU?$scanner_policies@Uiteration_policy@spirit@boost@@Umatch_policy@23@Uaction_policy@23@@spirit@boost@@@spirit@boost@@@ConsoleGrammar@@I@Z 0040e78d f i Core:ConsoleCommandLineParser.obj
 0001:0000d78d       ?deallocate@?$allocator@I@_STL@@QAEXPAII@Z 0040e78d f i TerrainDemoApplication.obj
 0001:0000d78d       ?deallocate@?$allocator@K@_STL@@QAEXPAKI@Z 0040e78d f i Core:ConsoleCommandLineParser.obj
 0001:0000d7b0       ?__copy_aux@_STL@@YAPADPAD00ABU__true_type@1@@Z 0040e7b0 f i Core:CommandLine.obj
 0001:0000d7b0       ?__copy_aux@_STL@@YAPAKPAK00ABU__true_type@1@@Z 0040e7b0 f i Core:ConsoleCommandLineParser.obj
 0001:0000d7b0       ?__copy_aux@_STL@@YAPAPAU?$definition@V?$scanner@PBDU?$scanner_policies@Uiteration_policy@spirit@boost@@Umatch_policy@23@Uaction_policy@23@@spirit@boost@@@spirit@boost@@@ConsoleGrammar@@PAPAU23@00ABU__true_type@1@@Z 0040e7b0 f i Core:ConsoleCommandLineParser.obj
 0001:0000d7b0       ?__copy_aux@_STL@@YAPAPAIPAPAI00ABU__true_type@1@@Z 0040e7b0 f i TerrainDemoApplication.obj
 0001:0000d7f3       ?_M_fill_insert@?$vector@PAU?$definition@V?$scanner@PBDU?$scanner_policies@Uiteration_policy@spirit@boost@@Umatch_policy@23@Uaction_policy@23@@spirit@boost@@@spirit@boost@@@ConsoleGrammar@@V?$allocator@PAU?$definition@V?$scanner@PBDU?$scanner_policies@Uiteration_policy@spirit@boost@@Umatch_policy@23@Uaction_policy@23@@spirit@boost@@@spirit@boost@@@ConsoleGrammar@@@_STL@@@_STL@@QAEXPAPAU?$definition@V?$scanner@PBDU?$scanner_policies@Uiteration_policy@spirit@boost@@Umatch_policy@23@Uaction_policy@23@@spirit@boost@@@spirit@boost@@@ConsoleGrammar@@IABQAU34@@Z 0040e7f3 f i Core:ConsoleCommandLineParser.obj
 0001:0000d93f       ?make_shared@boost@@YA?AV?$shared_ptr@U?$grammar_helper@U?$grammar@VConsoleGrammar@@Uparser_context@spirit@boost@@@spirit@boost@@VConsoleGrammar@@V?$scanner@PBDU?$scanner_policies@Uiteration_policy@spirit@boost@@Umatch_policy@23@Uaction_policy@23@@spirit@boost@@@23@@impl@spirit@boost@@@1@ABV?$weak_ptr@U?$grammar_helper@U?$grammar@VConsoleGrammar@@Uparser_context@spirit@boost@@@spirit@boost@@VConsoleGrammar@@V?$scanner@PBDU?$scanner_policies@Uiteration_policy@spirit@boost@@Umatch_policy@23@Uaction_policy@23@@spirit@boost@@@23@@impl@spirit@boost@@@1@@Z 0040e93f f i Core:ConsoleCommandLineParser.obj
 0001:0000d960       ??0?$rule@V?$scanner@PBDU?$scanner_policies@Uiteration_policy@spirit@boost@@Umatch_policy@23@Uaction_policy@23@@spirit@boost@@@spirit@boost@@Uparser_context@23@Uparser_address_tag@23@@spirit@boost@@QAE@XZ 0040e960 f i Core:ConsoleCommandLineParser.obj
 0001:0000d979       ??1?$rule@V?$scanner@PBDU?$scanner_policies@Uiteration_policy@spirit@boost@@Umatch_policy@23@Uaction_policy@23@@spirit@boost@@@spirit@boost@@Uparser_context@23@Uparser_address_tag@23@@spirit@boost@@QAE@XZ 0040e979 f i Core:ConsoleCommandLineParser.obj
 0001:0000d98d       ?parse@?$rule@V?$scanner@PBDU?$scanner_policies@Uiteration_policy@spirit@boost@@Umatch_policy@23@Uaction_policy@23@@spirit@boost@@@spirit@boost@@Uparser_context@23@Uparser_address_tag@23@@spirit@boost@@QBE?AV?$match@Unil_t@spirit@boost@@@23@ABV?$scanner@PBDU?$scanner_policies@Uiteration_policy@spirit@boost@@Umatch_policy@23@Uaction_policy@23@@spirit@boost@@@23@@Z 0040e98d f i Core:ConsoleCommandLineParser.obj
 0001:0000d9f5       ??0?$shared_ptr@U?$grammar_helper@U?$grammar@VConsoleGrammar@@Uparser_context@spirit@boost@@@spirit@boost@@VConsoleGrammar@@V?$scanner@PBDU?$scanner_policies@Uiteration_policy@spirit@boost@@Umatch_policy@23@Uaction_policy@23@@spirit@boost@@@23@@impl@spirit@boost@@@boost@@QAE@PAU?$grammar_helper@U?$grammar@VConsoleGrammar@@Uparser_context@spirit@boost@@@spirit@boost@@VConsoleGrammar@@V?$scanner@PBDU?$scanner_policies@Uiteration_policy@spirit@boost@@Umatch_policy@23@Uaction_policy@23@@spirit@boost@@@23@@impl@spirit@1@@Z 0040e9f5 f i Core:ConsoleCommandLineParser.obj
 0001:0000da4b       ??4?$weak_ptr@U?$grammar_helper@U?$grammar@VConsoleGrammar@@Uparser_context@spirit@boost@@@spirit@boost@@VConsoleGrammar@@V?$scanner@PBDU?$scanner_policies@Uiteration_policy@spirit@boost@@Umatch_policy@23@Uaction_policy@23@@spirit@boost@@@23@@impl@spirit@boost@@@boost@@QAEAAV01@ABV?$shared_ptr@U?$grammar_helper@U?$grammar@VConsoleGrammar@@Uparser_context@spirit@boost@@@spirit@boost@@VConsoleGrammar@@V?$scanner@PBDU?$scanner_policies@Uiteration_policy@spirit@boost@@Umatch_policy@23@Uaction_policy@23@@spirit@boost@@@23@@impl@spirit@boost@@@1@@Z 0040ea4b f i Core:ConsoleCommandLineParser.obj
 0001:0000da75       ??4weak_count@detail@boost@@QAEAAV012@ABVshared_count@12@@Z 0040ea75 f i Core:ConsoleCommandLineParser.obj
 0001:0000dab4       ?weak_add_ref@sp_counted_base@detail@boost@@QAEXXZ 0040eab4 f i Core:ConsoleCommandLineParser.obj
 0001:0000dae2       ?_Destroy@_STL@@YAXPAK0@Z  0040eae2 f i Core:ConsoleCommandLineParser.obj
 0001:0000dae2       ?_Destroy@_STL@@YAXPAPAU?$definition@V?$scanner@PBDU?$scanner_policies@Uiteration_policy@spirit@boost@@Umatch_policy@23@Uaction_policy@23@@spirit@boost@@@spirit@boost@@@ConsoleGrammar@@0@Z 0040eae2 f i Core:ConsoleCommandLineParser.obj
 0001:0000dae2       ?_Destroy@_STL@@YAXPAI0@Z  0040eae2 f i Core:Console.obj
 0001:0000dae2       ?_Destroy@_STL@@YAXPAPAU?$grammar_helper_base@U?$grammar@VConsoleGrammar@@Uparser_context@spirit@boost@@@spirit@boost@@@impl@spirit@boost@@0@Z 0040eae2 f i Core:ConsoleCommandLineParser.obj
 0001:0000daff       ?mem_fun@_STL@@YA?AV?$mem_fun1_t@HU?$grammar_helper_base@U?$grammar@VConsoleGrammar@@Uparser_context@spirit@boost@@@spirit@boost@@@impl@spirit@boost@@PAU?$grammar@VConsoleGrammar@@Uparser_context@spirit@boost@@@34@@1@P8?$grammar_helper_base@U?$grammar@VConsoleGrammar@@Uparser_context@spirit@boost@@@spirit@boost@@@impl@spirit@boost@@AEHPAU?$grammar@VConsoleGrammar@@Uparser_context@spirit@boost@@@56@@Z@Z 0040eaff f i Core:ConsoleCommandLineParser.obj
 0001:0000daff       ?assign@spirit@boost@@YA?BV?$assign_actor@V?$basic_string@DV?$char_traits@D@_STL@@V?$allocator@D@2@@_STL@@@12@AAV?$basic_string@DV?$char_traits@D@_STL@@V?$allocator@D@2@@_STL@@@Z 0040eaff f i Core:ConsoleCommandLineParser.obj
 0001:0000daff       ?id@parser_address_tag@spirit@boost@@SA?AVparser_id@23@ABV?$rule@V?$scanner@PBDU?$scanner_policies@Uiteration_policy@spirit@boost@@Umatch_policy@23@Uaction_policy@23@@spirit@boost@@@spirit@boost@@Uparser_context@23@Uparser_address_tag@23@@23@@Z 0040eaff f i Core:ConsoleCommandLineParser.obj
 0001:0000db12       ??A?$parser@V?$rule@V?$scanner@PBDU?$scanner_policies@Uiteration_policy@spirit@boost@@Umatch_policy@23@Uaction_policy@23@@spirit@boost@@@spirit@boost@@Uparser_context@23@Uparser_address_tag@23@@spirit@boost@@@spirit@boost@@QBE?AV?$action@V?$rule@V?$scanner@PBDU?$scanner_policies@Uiteration_policy@spirit@boost@@Umatch_policy@23@Uaction_policy@23@@spirit@boost@@@spirit@boost@@Uparser_context@23@Uparser_address_tag@23@@spirit@boost@@VAddString@@@12@ABVAddString@@@Z 0040eb12 f i Core:ConsoleCommandLineParser.obj
 0001:0000db12       ??A?$parser@V?$rule@V?$scanner@PBDU?$scanner_policies@Uiteration_policy@spirit@boost@@Umatch_policy@23@Uaction_policy@23@@spirit@boost@@@spirit@boost@@Uparser_context@23@Uparser_address_tag@23@@spirit@boost@@@spirit@boost@@QBE?AV?$action@V?$rule@V?$scanner@PBDU?$scanner_policies@Uiteration_policy@spirit@boost@@Umatch_policy@23@Uaction_policy@23@@spirit@boost@@@spirit@boost@@Uparser_context@23@Uparser_address_tag@23@@spirit@boost@@VAddBooleanToArgs@@@12@ABVAddBooleanToArgs@@@Z 0040eb12 f i Core:ConsoleCommandLineParser.obj
 0001:0000db12       ??A?$parser@V?$rule@V?$scanner@PBDU?$scanner_policies@Uiteration_policy@spirit@boost@@Umatch_policy@23@Uaction_policy@23@@spirit@boost@@@spirit@boost@@Uparser_context@23@Uparser_address_tag@23@@spirit@boost@@@spirit@boost@@QBE?AV?$action@V?$rule@V?$scanner@PBDU?$scanner_policies@Uiteration_policy@spirit@boost@@Umatch_policy@23@Uaction_policy@23@@spirit@boost@@@spirit@boost@@Uparser_context@23@Uparser_address_tag@23@@spirit@boost@@V?$assign_actor@V?$basic_string@DV?$char_traits@D@_STL@@V?$allocator@D@2@@_STL@@@23@@12@ABV?$assign_actor@V?$basic_string@DV?$char_traits@D@_STL@@V?$allocator@D@2@@_STL@@@12@@Z 0040eb12 f i Core:ConsoleCommandLineParser.obj
 0001:0000db34       ??5spirit@boost@@YA?AU?$sequence@U?$positive@Uspace_parser@spirit@boost@@@spirit@boost@@V?$rule@V?$scanner@PBDU?$scanner_policies@Uiteration_policy@spirit@boost@@Umatch_policy@23@Uaction_policy@23@@spirit@boost@@@spirit@boost@@Uparser_context@23@Uparser_address_tag@23@@23@@01@ABU?$parser@U?$positive@Uspace_parser@spirit@boost@@@spirit@boost@@@01@ABU?$parser@V?$rule@V?$scanner@PBDU?$scanner_policies@Uiteration_policy@spirit@boost@@Umatch_policy@23@Uaction_policy@23@@spirit@boost@@@spirit@boost@@Uparser_context@23@Uparser_address_tag@23@@spirit@boost@@@01@@Z 0040eb34 f i Core:ConsoleCommandLineParser.obj
 0001:0000db56       ??Dspirit@boost@@YA?AU?$kleene_star@U?$sequence@U?$positive@Uspace_parser@spirit@boost@@@spirit@boost@@V?$rule@V?$scanner@PBDU?$scanner_policies@Uiteration_policy@spirit@boost@@Umatch_policy@23@Uaction_policy@23@@spirit@boost@@@spirit@boost@@Uparser_context@23@Uparser_address_tag@23@@23@@spirit@boost@@@01@ABU?$parser@U?$sequence@U?$positive@Uspace_parser@spirit@boost@@@spirit@boost@@V?$rule@V?$scanner@PBDU?$scanner_policies@Uiteration_policy@spirit@boost@@Umatch_policy@23@Uaction_policy@23@@spirit@boost@@@spirit@boost@@Uparser_context@23@Uparser_address_tag@23@@23@@spirit@boost@@@01@@Z 0040eb56 f i Core:ConsoleCommandLineParser.obj
 0001:0000db6f       ??5spirit@boost@@YA?AU?$sequence@V?$action@V?$rule@V?$scanner@PBDU?$scanner_policies@Uiteration_policy@spirit@boost@@Umatch_policy@23@Uaction_policy@23@@spirit@boost@@@spirit@boost@@Uparser_context@23@Uparser_address_tag@23@@spirit@boost@@V?$assign_actor@V?$basic_string@DV?$char_traits@D@_STL@@V?$allocator@D@2@@_STL@@@23@@spirit@boost@@U?$kleene_star@U?$sequence@U?$positive@Uspace_parser@spirit@boost@@@spirit@boost@@V?$rule@V?$scanner@PBDU?$scanner_policies@Uiteration_policy@spirit@boost@@Umatch_policy@23@Uaction_policy@23@@spirit@boost@@@spirit@boost@@Uparser_context@23@Uparser_address_tag@23@@23@@spirit@boost@@@23@@01@ABU?$parser@V?$action@V?$rule@V?$scanner@PBDU?$scanner_policies@Uiteration_policy@spirit@boost@@Umatch_policy@23@Uaction_policy@23@@spirit@boost@@@spirit@boost@@Uparser_context@23@Uparser_address_tag@23@@spirit@boost@@V?$assign_actor@V?$basic_string@DV?$char_traits@D@_STL@@V?$allocator@D@2@@_STL@@@23@@spirit@boost@@@01@ABU?$parser@U?$kleene_star@U?$sequence@U?$positive@Uspace_parser@spirit@boost@@@spirit@boost@@V?$rule@V?$scanner@PBDU?$scanner_policies@Uiteration_policy@spirit@boost@@Umatch_policy@23@Uaction_policy@23@@spirit@boost@@@spirit@boost@@Uparser_context@23@Uparser_address_tag@23@@23@@spirit@boost@@@spirit@boost@@@01@@Z 0040eb6f f i Core:ConsoleCommandLineParser.obj
 0001:0000db91       ??Uspirit@boost@@YA?AU?$alternative@V?$rule@V?$scanner@PBDU?$scanner_policies@Uiteration_policy@spirit@boost@@Umatch_policy@23@Uaction_policy@23@@spirit@boost@@@spirit@boost@@Uparser_context@23@Uparser_address_tag@23@@spirit@boost@@U?$sequence@V?$action@V?$rule@V?$scanner@PBDU?$scanner_policies@Uiteration_policy@spirit@boost@@Umatch_policy@23@Uaction_policy@23@@spirit@boost@@@spirit@boost@@Uparser_context@23@Uparser_address_tag@23@@spirit@boost@@V?$assign_actor@V?$basic_string@DV?$char_traits@D@_STL@@V?$allocator@D@2@@_STL@@@23@@spirit@boost@@U?$kleene_star@U?$sequence@U?$positive@Uspace_parser@spirit@boost@@@spirit@boost@@V?$rule@V?$scanner@PBDU?$scanner_policies@Uiteration_policy@spirit@boost@@Umatch_policy@23@Uaction_policy@23@@spirit@boost@@@spirit@boost@@Uparser_context@23@Uparser_address_tag@23@@23@@spirit@boost@@@23@@23@@01@ABU?$parser@V?$rule@V?$scanner@PBDU?$scanner_policies@Uiteration_policy@spirit@boost@@Umatch_policy@23@Uaction_policy@23@@spirit@boost@@@spirit@boost@@Uparser_context@23@Uparser_address_tag@23@@spirit@boost@@@01@ABU?$parser@U?$sequence@V?$action@V?$rule@V?$scanner@PBDU?$scanner_policies@Uiteration_policy@spirit@boost@@Umatch_policy@23@Uaction_policy@23@@spirit@boost@@@spirit@boost@@Uparser_context@23@Uparser_address_tag@23@@spirit@boost@@V?$assign_actor@V?$basic_string@DV?$char_traits@D@_STL@@V?$allocator@D@2@@_STL@@@23@@spirit@boost@@U?$kleene_star@U?$sequence@U?$positive@Uspace_parser@spirit@boost@@@spirit@boost@@V?$rule@V?$scanner@PBDU?$scanner_policies@Uiteration_policy@spirit@boost@@Umatch_policy@23@Uaction_policy@23@@spirit@boost@@@spirit@boost@@Uparser_context@23@Uparser_address_tag@23@@23@@spirit@boost@@@23@@spirit@boost@@@01@@Z 0040eb91 f i Core:ConsoleCommandLineParser.obj
 0001:0000dbb3       ??4?$rule@V?$scanner@PBDU?$scanner_policies@Uiteration_policy@spirit@boost@@Umatch_policy@23@Uaction_policy@23@@spirit@boost@@@spirit@boost@@Uparser_context@23@Uparser_address_tag@23@@spirit@boost@@QAEAAV012@ABU?$alternative@V?$rule@V?$scanner@PBDU?$scanner_policies@Uiteration_policy@spirit@boost@@Umatch_policy@23@Uaction_policy@23@@spirit@boost@@@spirit@boost@@Uparser_context@23@Uparser_address_tag@23@@spirit@boost@@U?$sequence@V?$action@V?$rule@V?$scanner@PBDU?$scanner_policies@Uiteration_policy@spirit@boost@@Umatch_policy@23@Uaction_policy@23@@spirit@boost@@@spirit@boost@@Uparser_context@23@Uparser_address_tag@23@@spirit@boost@@V?$assign_actor@V?$basic_string@DV?$char_traits@D@_STL@@V?$allocator@D@2@@_STL@@@23@@spirit@boost@@U?$kleene_star@U?$sequence@U?$positive@Uspace_parser@spirit@boost@@@spirit@boost@@V?$rule@V?$scanner@PBDU?$scanner_policies@Uiteration_policy@spirit@boost@@Umatch_policy@23@Uaction_policy@23@@spirit@boost@@@spirit@boost@@Uparser_context@23@Uparser_address_tag@23@@23@@spirit@boost@@@23@@23@@12@@Z 0040ebb3 f i Core:ConsoleCommandLineParser.obj
 0001:0000dc15       ??Uspirit@boost@@YA?AU?$alternative@V?$rule@V?$scanner@PBDU?$scanner_policies@Uiteration_policy@spirit@boost@@Umatch_policy@23@Uaction_policy@23@@spirit@boost@@@spirit@boost@@Uparser_context@23@Uparser_address_tag@23@@spirit@boost@@V123@@01@ABU?$parser@V?$rule@V?$scanner@PBDU?$scanner_policies@Uiteration_policy@spirit@boost@@Umatch_policy@23@Uaction_policy@23@@spirit@boost@@@spirit@boost@@Uparser_context@23@Uparser_address_tag@23@@spirit@boost@@@01@0@Z 0040ec15 f i Core:ConsoleCommandLineParser.obj
 0001:0000dc37       ??Uspirit@boost@@YA?AU?$alternative@U?$alternative@V?$rule@V?$scanner@PBDU?$scanner_policies@Uiteration_policy@spirit@boost@@Umatch_policy@23@Uaction_policy@23@@spirit@boost@@@spirit@boost@@Uparser_context@23@Uparser_address_tag@23@@spirit@boost@@V123@@spirit@boost@@V?$rule@V?$scanner@PBDU?$scanner_policies@Uiteration_policy@spirit@boost@@Umatch_policy@23@Uaction_policy@23@@spirit@boost@@@spirit@boost@@Uparser_context@23@Uparser_address_tag@23@@23@@01@ABU?$parser@U?$alternative@V?$rule@V?$scanner@PBDU?$scanner_policies@Uiteration_policy@spirit@boost@@Umatch_policy@23@Uaction_policy@23@@spirit@boost@@@spirit@boost@@Uparser_context@23@Uparser_address_tag@23@@spirit@boost@@V123@@spirit@boost@@@01@ABU?$parser@V?$rule@V?$scanner@PBDU?$scanner_policies@Uiteration_policy@spirit@boost@@Umatch_policy@23@Uaction_policy@23@@spirit@boost@@@spirit@boost@@Uparser_context@23@Uparser_address_tag@23@@spirit@boost@@@01@@Z 0040ec37 f i Core:ConsoleCommandLineParser.obj
 0001:0000dc59       ??Uspirit@boost@@YA?AU?$alternative@U?$alternative@U?$alternative@V?$rule@V?$scanner@PBDU?$scanner_policies@Uiteration_policy@spirit@boost@@Umatch_policy@23@Uaction_policy@23@@spirit@boost@@@spirit@boost@@Uparser_context@23@Uparser_address_tag@23@@spirit@boost@@V123@@spirit@boost@@V?$rule@V?$scanner@PBDU?$scanner_policies@Uiteration_policy@spirit@boost@@Umatch_policy@23@Uaction_policy@23@@spirit@boost@@@spirit@boost@@Uparser_context@23@Uparser_address_tag@23@@23@@spirit@boost@@V?$action@V?$rule@V?$scanner@PBDU?$scanner_policies@Uiteration_policy@spirit@boost@@Umatch_policy@23@Uaction_policy@23@@spirit@boost@@@spirit@boost@@Uparser_context@23@Uparser_address_tag@23@@spirit@boost@@VAddBooleanToArgs@@@23@@01@ABU?$parser@U?$alternative@U?$alternative@V?$rule@V?$scanner@PBDU?$scanner_policies@Uiteration_policy@spirit@boost@@Umatch_policy@23@Uaction_policy@23@@spirit@boost@@@spirit@boost@@Uparser_context@23@Uparser_address_tag@23@@spirit@boost@@V123@@spirit@boost@@V?$rule@V?$scanner@PBDU?$scanner_policies@Uiteration_policy@spirit@boost@@Umatch_policy@23@Uaction_policy@23@@spirit@boost@@@spirit@boost@@Uparser_context@23@Uparser_address_tag@23@@23@@spirit@boost@@@01@ABU?$parser@V?$action@V?$rule@V?$scanner@PBDU?$scanner_policies@Uiteration_policy@spirit@boost@@Umatch_policy@23@Uaction_policy@23@@spirit@boost@@@spirit@boost@@Uparser_context@23@Uparser_address_tag@23@@spirit@boost@@VAddBooleanToArgs@@@spirit@boost@@@01@@Z 0040ec59 f i Core:ConsoleCommandLineParser.obj
 0001:0000dc7b       ??Uspirit@boost@@YA?AU?$alternative@U?$alternative@U?$alternative@U?$alternative@V?$rule@V?$scanner@PBDU?$scanner_policies@Uiteration_policy@spirit@boost@@Umatch_policy@23@Uaction_policy@23@@spirit@boost@@@spirit@boost@@Uparser_context@23@Uparser_address_tag@23@@spirit@boost@@V123@@spirit@boost@@V?$rule@V?$scanner@PBDU?$scanner_policies@Uiteration_policy@spirit@boost@@Umatch_policy@23@Uaction_policy@23@@spirit@boost@@@spirit@boost@@Uparser_context@23@Uparser_address_tag@23@@23@@spirit@boost@@V?$action@V?$rule@V?$scanner@PBDU?$scanner_policies@Uiteration_policy@spirit@boost@@Umatch_policy@23@Uaction_policy@23@@spirit@boost@@@spirit@boost@@Uparser_context@23@Uparser_address_tag@23@@spirit@boost@@VAddBooleanToArgs@@@23@@spirit@boost@@V?$action@V?$rule@V?$scanner@PBDU?$scanner_policies@Uiteration_policy@spirit@boost@@Umatch_policy@23@Uaction_policy@23@@spirit@boost@@@spirit@boost@@Uparser_context@23@Uparser_address_tag@23@@spirit@boost@@VAddString@@@23@@01@ABU?$parser@U?$alternative@U?$alternative@U?$alternative@V?$rule@V?$scanner@PBDU?$scanner_policies@Uiteration_policy@spirit@boost@@Umatch_policy@23@Uaction_policy@23@@spirit@boost@@@spirit@boost@@Uparser_context@23@Uparser_address_tag@23@@spirit@boost@@V123@@spirit@boost@@V?$rule@V?$scanner@PBDU?$scanner_policies@Uiteration_policy@spirit@boost@@Umatch_policy@23@Uaction_policy@23@@spirit@boost@@@spirit@boost@@Uparser_context@23@Uparser_address_tag@23@@23@@spirit@boost@@V?$action@V?$rule@V?$scanner@PBDU?$scanner_policies@Uiteration_policy@spirit@boost@@Umatch_policy@23@Uaction_policy@23@@spirit@boost@@@spirit@boost@@Uparser_context@23@Uparser_address_tag@23@@spirit@boost@@VAddBooleanToArgs@@@23@@spirit@boost@@@01@ABU?$parser@V?$action@V?$rule@V?$scanner@PBDU?$scanner_policies@Uiteration_policy@spirit@boost@@Umatch_policy@23@Uaction_policy@23@@spirit@boost@@@spirit@boost@@Uparser_context@23@Uparser_address_tag@23@@spirit@boost@@VAddString@@@spirit@boost@@@01@@Z 0040ec7b f i Core:ConsoleCommandLineParser.obj
 0001:0000dc9d       ??4?$rule@V?$scanner@PBDU?$scanner_policies@Uiteration_policy@spirit@boost@@Umatch_policy@23@Uaction_policy@23@@spirit@boost@@@spirit@boost@@Uparser_context@23@Uparser_address_tag@23@@spirit@boost@@QAEAAV012@ABU?$alternative@U?$alternative@U?$alternative@U?$alternative@V?$rule@V?$scanner@PBDU?$scanner_policies@Uiteration_policy@spirit@boost@@Umatch_policy@23@Uaction_policy@23@@spirit@boost@@@spirit@boost@@Uparser_context@23@Uparser_address_tag@23@@spirit@boost@@V123@@spirit@boost@@V?$rule@V?$scanner@PBDU?$scanner_policies@Uiteration_policy@spirit@boost@@Umatch_policy@23@Uaction_policy@23@@spirit@boost@@@spirit@boost@@Uparser_context@23@Uparser_address_tag@23@@23@@spirit@boost@@V?$action@V?$rule@V?$scanner@PBDU?$scanner_policies@Uiteration_policy@spirit@boost@@Umatch_policy@23@Uaction_policy@23@@spirit@boost@@@spirit@boost@@Uparser_context@23@Uparser_address_tag@23@@spirit@boost@@VAddBooleanToArgs@@@23@@spirit@boost@@V?$action@V?$rule@V?$scanner@PBDU?$scanner_policies@Uiteration_policy@spirit@boost@@Umatch_policy@23@Uaction_policy@23@@spirit@boost@@@spirit@boost@@Uparser_context@23@Uparser_address_tag@23@@spirit@boost@@VAddString@@@23@@12@@Z 0040ec9d f i Core:ConsoleCommandLineParser.obj
 0001:0000dcff       ??0?$chlit@D@spirit@boost@@QAE@D@Z 0040ecff f i Core:ConsoleCommandLineParser.obj
 0001:0000dd15       ??Uspirit@boost@@YA?AU?$alternative@Ualpha_parser@spirit@boost@@U?$chlit@D@23@@01@ABU?$parser@Ualpha_parser@spirit@boost@@@01@D@Z 0040ed15 f i Core:ConsoleCommandLineParser.obj
 0001:0000dd15       ??Uspirit@boost@@YA?AU?$alternative@Ualnum_parser@spirit@boost@@U?$chlit@D@23@@01@ABU?$parser@Ualnum_parser@spirit@boost@@@01@D@Z 0040ed15 f i Core:ConsoleCommandLineParser.obj
 0001:0000dd3e       ??Hspirit@boost@@YA?AU?$positive@U?$alternative@Ualpha_parser@spirit@boost@@U?$chlit@D@23@@spirit@boost@@@01@ABU?$parser@U?$alternative@Ualpha_parser@spirit@boost@@U?$chlit@D@23@@spirit@boost@@@01@@Z 0040ed3e f i Core:ConsoleCommandLineParser.obj
 0001:0000dd3e       ??Dspirit@boost@@YA?AU?$kleene_star@U?$negated_char_parser@U?$chlit@D@spirit@boost@@@spirit@boost@@@01@ABU?$parser@U?$negated_char_parser@U?$chlit@D@spirit@boost@@@spirit@boost@@@01@@Z 0040ed3e f i Core:ConsoleCommandLineParser.obj
 0001:0000dd3e       ??Dspirit@boost@@YA?AU?$kleene_star@U?$difference@U?$negated_char_parser@U?$chlit@D@spirit@boost@@@spirit@boost@@Uspace_parser@23@@spirit@boost@@@01@ABU?$parser@U?$difference@U?$negated_char_parser@U?$chlit@D@spirit@boost@@@spirit@boost@@Uspace_parser@23@@spirit@boost@@@01@@Z 0040ed3e f i Core:ConsoleCommandLineParser.obj
 0001:0000dd3e       ??Dspirit@boost@@YA?AU?$kleene_star@U?$alternative@Ualnum_parser@spirit@boost@@U?$chlit@D@23@@spirit@boost@@@01@ABU?$parser@U?$alternative@Ualnum_parser@spirit@boost@@U?$chlit@D@23@@spirit@boost@@@01@@Z 0040ed3e f i Core:ConsoleCommandLineParser.obj
 0001:0000dd57       ??Alexeme_parser_gen@spirit@boost@@QBE?AU?$contiguous@U?$sequence@U?$positive@U?$alternative@Ualpha_parser@spirit@boost@@U?$chlit@D@23@@spirit@boost@@@spirit@boost@@U?$kleene_star@U?$alternative@Ualnum_parser@spirit@boost@@U?$chlit@D@23@@spirit@boost@@@23@@spirit@boost@@@12@ABU?$parser@U?$sequence@U?$positive@U?$alternative@Ualpha_parser@spirit@boost@@U?$chlit@D@23@@spirit@boost@@@spirit@boost@@U?$kleene_star@U?$alternative@Ualnum_parser@spirit@boost@@U?$chlit@D@23@@spirit@boost@@@23@@spirit@boost@@@12@@Z 0040ed57 f i Core:ConsoleCommandLineParser.obj
 0001:0000dd76       ??4?$rule@V?$scanner@PBDU?$scanner_policies@Uiteration_policy@spirit@boost@@Umatch_policy@23@Uaction_policy@23@@spirit@boost@@@spirit@boost@@Uparser_context@23@Uparser_address_tag@23@@spirit@boost@@QAEAAV012@ABU?$contiguous@U?$sequence@U?$positive@U?$alternative@Ualpha_parser@spirit@boost@@U?$chlit@D@23@@spirit@boost@@@spirit@boost@@U?$kleene_star@U?$alternative@Ualnum_parser@spirit@boost@@U?$chlit@D@23@@spirit@boost@@@23@@spirit@boost@@@12@@Z 0040ed76 f i Core:ConsoleCommandLineParser.obj
 0001:0000ddd8       ??A?$parser@U?$uint_parser@I$09$00$0?0@spirit@boost@@@spirit@boost@@QBE?AV?$action@U?$uint_parser@I$09$00$0?0@spirit@boost@@VAddUnsignedIntegerToArgs@@@12@ABVAddUnsignedIntegerToArgs@@@Z 0040edd8 f i Core:ConsoleCommandLineParser.obj
 0001:0000ddd8       ??A?$parser@U?$real_parser@NU?$strict_real_parser_policies@N@spirit@boost@@@spirit@boost@@@spirit@boost@@QBE?AV?$action@U?$real_parser@NU?$strict_real_parser_policies@N@spirit@boost@@@spirit@boost@@VAddFloatToArgs@@@12@ABVAddFloatToArgs@@@Z 0040edd8 f i Core:ConsoleCommandLineParser.obj
 0001:0000ddd8       ??A?$parser@U?$int_parser@H$09$00$0?0@spirit@boost@@@spirit@boost@@QBE?AV?$action@U?$int_parser@H$09$00$0?0@spirit@boost@@VAddIntegerToArgs@@@12@ABVAddIntegerToArgs@@@Z 0040edd8 f i Core:ConsoleCommandLineParser.obj
 0001:0000ddfa       ??4?$rule@V?$scanner@PBDU?$scanner_policies@Uiteration_policy@spirit@boost@@Umatch_policy@23@Uaction_policy@23@@spirit@boost@@@spirit@boost@@Uparser_context@23@Uparser_address_tag@23@@spirit@boost@@QAEAAV012@ABU?$contiguous@V?$action@U?$int_parser@H$09$00$0?0@spirit@boost@@VAddIntegerToArgs@@@spirit@boost@@@12@@Z 0040edfa f i Core:ConsoleCommandLineParser.obj
 0001:0000de5c       ??4?$rule@V?$scanner@PBDU?$scanner_policies@Uiteration_policy@spirit@boost@@Umatch_policy@23@Uaction_policy@23@@spirit@boost@@@spirit@boost@@Uparser_context@23@Uparser_address_tag@23@@spirit@boost@@QAEAAV012@ABU?$contiguous@V?$action@U?$uint_parser@I$09$00$0?0@spirit@boost@@VAddUnsignedIntegerToArgs@@@spirit@boost@@@12@@Z 0040ee5c f i Core:ConsoleCommandLineParser.obj
 0001:0000debe       ??Alexeme_parser_gen@spirit@boost@@QBE?AU?$contiguous@V?$action@U?$int_parser@H$09$00$0?0@spirit@boost@@VAddIntegerToArgs@@@spirit@boost@@@12@ABU?$parser@V?$action@U?$int_parser@H$09$00$0?0@spirit@boost@@VAddIntegerToArgs@@@spirit@boost@@@12@@Z 0040eebe f i Core:ConsoleCommandLineParser.obj
 0001:0000debe       ??Alexeme_parser_gen@spirit@boost@@QBE?AU?$contiguous@V?$action@U?$real_parser@NU?$strict_real_parser_policies@N@spirit@boost@@@spirit@boost@@VAddFloatToArgs@@@spirit@boost@@@12@ABU?$parser@V?$action@U?$real_parser@NU?$strict_real_parser_policies@N@spirit@boost@@@spirit@boost@@VAddFloatToArgs@@@spirit@boost@@@12@@Z 0040eebe f i Core:ConsoleCommandLineParser.obj
 0001:0000debe       ??Alexeme_parser_gen@spirit@boost@@QBE?AU?$contiguous@V?$action@U?$uint_parser@I$09$00$0?0@spirit@boost@@VAddUnsignedIntegerToArgs@@@spirit@boost@@@12@ABU?$parser@V?$action@U?$uint_parser@I$09$00$0?0@spirit@boost@@VAddUnsignedIntegerToArgs@@@spirit@boost@@@12@@Z 0040eebe f i Core:ConsoleCommandLineParser.obj
 0001:0000dedd       ??4?$rule@V?$scanner@PBDU?$scanner_policies@Uiteration_policy@spirit@boost@@Umatch_policy@23@Uaction_policy@23@@spirit@boost@@@spirit@boost@@Uparser_context@23@Uparser_address_tag@23@@spirit@boost@@QAEAAV012@ABU?$contiguous@V?$action@U?$real_parser@NU?$strict_real_parser_policies@N@spirit@boost@@@spirit@boost@@VAddFloatToArgs@@@spirit@boost@@@12@@Z 0040eedd f i Core:ConsoleCommandLineParser.obj
 0001:0000df3f       ?ch_p@spirit@boost@@YA?AU?$chlit@D@12@D@Z 0040ef3f f i Core:ConsoleCommandLineParser.obj
 0001:0000df52       ??Sspirit@boost@@YA?AU?$negated_char_parser@U?$chlit@D@spirit@boost@@@01@ABU?$char_parser@U?$chlit@D@spirit@boost@@@01@@Z 0040ef52 f i Core:ConsoleCommandLineParser.obj
 0001:0000df6b       ??5spirit@boost@@YA?AU?$sequence@U?$chlit@D@spirit@boost@@U?$kleene_star@U?$negated_char_parser@U?$chlit@D@spirit@boost@@@spirit@boost@@@23@@01@ABU?$parser@U?$chlit@D@spirit@boost@@@01@ABU?$parser@U?$kleene_star@U?$negated_char_parser@U?$chlit@D@spirit@boost@@@spirit@boost@@@spirit@boost@@@01@@Z 0040ef6b f i Core:ConsoleCommandLineParser.obj
 0001:0000df6b       ??5spirit@boost@@YA?AU?$sequence@U?$positive@U?$alternative@Ualpha_parser@spirit@boost@@U?$chlit@D@23@@spirit@boost@@@spirit@boost@@U?$kleene_star@U?$alternative@Ualnum_parser@spirit@boost@@U?$chlit@D@23@@spirit@boost@@@23@@01@ABU?$parser@U?$positive@U?$alternative@Ualpha_parser@spirit@boost@@U?$chlit@D@23@@spirit@boost@@@spirit@boost@@@01@ABU?$parser@U?$kleene_star@U?$alternative@Ualnum_parser@spirit@boost@@U?$chlit@D@23@@spirit@boost@@@spirit@boost@@@01@@Z 0040ef6b f i Core:ConsoleCommandLineParser.obj
 0001:0000df8d       ??5spirit@boost@@YA?AU?$sequence@U?$sequence@U?$chlit@D@spirit@boost@@U?$kleene_star@U?$negated_char_parser@U?$chlit@D@spirit@boost@@@spirit@boost@@@23@@spirit@boost@@U?$chlit@D@23@@01@ABU?$parser@U?$sequence@U?$chlit@D@spirit@boost@@U?$kleene_star@U?$negated_char_parser@U?$chlit@D@spirit@boost@@@spirit@boost@@@23@@spirit@boost@@@01@ABU?$parser@U?$chlit@D@spirit@boost@@@01@@Z 0040ef8d f i Core:ConsoleCommandLineParser.obj
 0001:0000dfaf       ??Gspirit@boost@@YA?AU?$difference@U?$negated_char_parser@U?$chlit@D@spirit@boost@@@spirit@boost@@Uspace_parser@23@@01@ABU?$parser@U?$negated_char_parser@U?$chlit@D@spirit@boost@@@spirit@boost@@@01@ABU?$parser@Uspace_parser@spirit@boost@@@01@@Z 0040efaf f i Core:ConsoleCommandLineParser.obj
 0001:0000dfd1       ??Uspirit@boost@@YA?AU?$alternative@U?$sequence@U?$sequence@U?$chlit@D@spirit@boost@@U?$kleene_star@U?$negated_char_parser@U?$chlit@D@spirit@boost@@@spirit@boost@@@23@@spirit@boost@@U?$chlit@D@23@@spirit@boost@@U?$kleene_star@U?$difference@U?$negated_char_parser@U?$chlit@D@spirit@boost@@@spirit@boost@@Uspace_parser@23@@spirit@boost@@@23@@01@ABU?$parser@U?$sequence@U?$sequence@U?$chlit@D@spirit@boost@@U?$kleene_star@U?$negated_char_parser@U?$chlit@D@spirit@boost@@@spirit@boost@@@23@@spirit@boost@@U?$chlit@D@23@@spirit@boost@@@01@ABU?$parser@U?$kleene_star@U?$difference@U?$negated_char_parser@U?$chlit@D@spirit@boost@@@spirit@boost@@Uspace_parser@23@@spirit@boost@@@spirit@boost@@@01@@Z 0040efd1 f i Core:ConsoleCommandLineParser.obj
 0001:0000dff3       ??4?$rule@V?$scanner@PBDU?$scanner_policies@Uiteration_policy@spirit@boost@@Umatch_policy@23@Uaction_policy@23@@spirit@boost@@@spirit@boost@@Uparser_context@23@Uparser_address_tag@23@@spirit@boost@@QAEAAV012@ABU?$alternative@U?$sequence@U?$sequence@U?$chlit@D@spirit@boost@@U?$kleene_star@U?$negated_char_parser@U?$chlit@D@spirit@boost@@@spirit@boost@@@23@@spirit@boost@@U?$chlit@D@23@@spirit@boost@@U?$kleene_star@U?$difference@U?$negated_char_parser@U?$chlit@D@spirit@boost@@@spirit@boost@@Uspace_parser@23@@spirit@boost@@@23@@12@@Z 0040eff3 f i Core:ConsoleCommandLineParser.obj
 0001:0000e055       ?str_p@spirit@boost@@YA?AV?$strlit@PBD@12@PBD@Z 0040f055 f i Core:ConsoleCommandLineParser.obj
 0001:0000e068       ??0?$strlit@PBD@spirit@boost@@QAE@PBD@Z 0040f068 f i Core:ConsoleCommandLineParser.obj
 0001:0000e081       ??0?$chseq@PBD@spirit@boost@@QAE@PBD@Z 0040f081 f i Core:ConsoleCommandLineParser.obj
 0001:0000e0a6       ?get_last@impl@spirit@boost@@YAPBDPBD@Z 0040f0a6 f i Core:ConsoleCommandLineParser.obj
 0001:0000e0c1       ??Uspirit@boost@@YA?AU?$alternative@V?$strlit@PBD@spirit@boost@@V123@@01@ABU?$parser@V?$strlit@PBD@spirit@boost@@@01@0@Z 0040f0c1 f i Core:ConsoleCommandLineParser.obj
 0001:0000e0e3       ??4?$rule@V?$scanner@PBDU?$scanner_policies@Uiteration_policy@spirit@boost@@Umatch_policy@23@Uaction_policy@23@@spirit@boost@@@spirit@boost@@Uparser_context@23@Uparser_address_tag@23@@spirit@boost@@QAEAAV012@ABU?$alternative@V?$strlit@PBD@spirit@boost@@V123@@12@@Z 0040f0e3 f i Core:ConsoleCommandLineParser.obj
 0001:0000e145       ??Uspirit@boost@@YA?AU?$alternative@U?$chlit@D@spirit@boost@@V?$strlit@PBD@23@@01@ABU?$parser@U?$chlit@D@spirit@boost@@@01@ABU?$parser@V?$strlit@PBD@spirit@boost@@@01@@Z 0040f145 f i Core:ConsoleCommandLineParser.obj
 0001:0000e167       ??Hspirit@boost@@YA?AU?$positive@Uspace_parser@spirit@boost@@@01@ABU?$parser@Uspace_parser@spirit@boost@@@01@@Z 0040f167 f i Core:ConsoleCommandLineParser.obj
 0001:0000e167       ??Dspirit@boost@@YA?AU?$kleene_star@Uanychar_parser@spirit@boost@@@01@ABU?$parser@Uanychar_parser@spirit@boost@@@01@@Z 0040f167 f i Core:ConsoleCommandLineParser.obj
 0001:0000e180       ??5spirit@boost@@YA?AU?$sequence@U?$alternative@U?$chlit@D@spirit@boost@@V?$strlit@PBD@23@@spirit@boost@@U?$kleene_star@Uanychar_parser@spirit@boost@@@23@@01@ABU?$parser@U?$alternative@U?$chlit@D@spirit@boost@@V?$strlit@PBD@23@@spirit@boost@@@01@ABU?$parser@U?$kleene_star@Uanychar_parser@spirit@boost@@@spirit@boost@@@01@@Z 0040f180 f i Core:ConsoleCommandLineParser.obj
 0001:0000e1a2       ??4?$rule@V?$scanner@PBDU?$scanner_policies@Uiteration_policy@spirit@boost@@Umatch_policy@23@Uaction_policy@23@@spirit@boost@@@spirit@boost@@Uparser_context@23@Uparser_address_tag@23@@spirit@boost@@QAEAAV012@ABU?$sequence@U?$alternative@U?$chlit@D@spirit@boost@@V?$strlit@PBD@23@@spirit@boost@@U?$kleene_star@Uanychar_parser@spirit@boost@@@23@@12@@Z 0040f1a2 f i Core:ConsoleCommandLineParser.obj
 0001:0000e204       ?__copy_ptrs@_STL@@YAPAKPAK00ABU__true_type@1@@Z 0040f204 f i Core:ConsoleCommandLineParser.obj
 0001:0000e204       ?__copy_ptrs@_STL@@YAPAPAIPAPAI00ABU__true_type@1@@Z 0040f204 f i TerrainDemoApplication.obj
 0001:0000e204       ?__copy_ptrs@_STL@@YAPAPAU?$definition@V?$scanner@PBDU?$scanner_policies@Uiteration_policy@spirit@boost@@Umatch_policy@23@Uaction_policy@23@@spirit@boost@@@spirit@boost@@@ConsoleGrammar@@PAPAU23@00ABU__true_type@1@@Z 0040f204 f i Core:ConsoleCommandLineParser.obj
 0001:0000e204       ?__copy_ptrs@_STL@@YAPADPAD00ABU__true_type@1@@Z 0040f204 f i Core:CommandLine.obj
 0001:0000e21a       ?lock@?$weak_ptr@U?$grammar_helper@U?$grammar@VConsoleGrammar@@Uparser_context@spirit@boost@@@spirit@boost@@VConsoleGrammar@@V?$scanner@PBDU?$scanner_policies@Uiteration_policy@spirit@boost@@Umatch_policy@23@Uaction_policy@23@@spirit@boost@@@23@@impl@spirit@boost@@@boost@@QBE?AV?$shared_ptr@U?$grammar_helper@U?$grammar@VConsoleGrammar@@Uparser_context@spirit@boost@@@spirit@boost@@VConsoleGrammar@@V?$scanner@PBDU?$scanner_policies@Uiteration_policy@spirit@boost@@Umatch_policy@23@Uaction_policy@23@@spirit@boost@@@23@@impl@spirit@boost@@@2@XZ 0040f21a f i Core:ConsoleCommandLineParser.obj
 0001:0000e2a1       ??1?$scoped_ptr@U?$abstract_parser@V?$scanner@PBDU?$scanner_policies@Uiteration_policy@spirit@boost@@Umatch_policy@23@Uaction_policy@23@@spirit@boost@@@spirit@boost@@V?$match@Unil_t@spirit@boost@@@23@@impl@spirit@boost@@@boost@@QAE@XZ 0040f2a1 f i Core:ConsoleCommandLineParser.obj
 0001:0000e2b5       ?reset@?$scoped_ptr@U?$abstract_parser@V?$scanner@PBDU?$scanner_policies@Uiteration_policy@spirit@boost@@Umatch_policy@23@Uaction_policy@23@@spirit@boost@@@spirit@boost@@V?$match@Unil_t@spirit@boost@@@23@@impl@spirit@boost@@@boost@@QAEXPAU?$abstract_parser@V?$scanner@PBDU?$scanner_policies@Uiteration_policy@spirit@boost@@Umatch_policy@23@Uaction_policy@23@@spirit@boost@@@spirit@boost@@V?$match@Unil_t@spirit@boost@@@23@@impl@spirit@2@@Z 0040f2b5 f i Core:ConsoleCommandLineParser.obj
 0001:0000e327       ??0?$action@V?$rule@V?$scanner@PBDU?$scanner_policies@Uiteration_policy@spirit@boost@@Umatch_policy@23@Uaction_policy@23@@spirit@boost@@@spirit@boost@@Uparser_context@23@Uparser_address_tag@23@@spirit@boost@@VAddBooleanToArgs@@@spirit@boost@@QAE@ABV?$rule@V?$scanner@PBDU?$scanner_policies@Uiteration_policy@spirit@boost@@Umatch_policy@23@Uaction_policy@23@@spirit@boost@@@spirit@boost@@Uparser_context@23@Uparser_address_tag@23@@12@ABVAddBooleanToArgs@@@Z 0040f327 f i Core:ConsoleCommandLineParser.obj
 0001:0000e327       ??0?$action@V?$rule@V?$scanner@PBDU?$scanner_policies@Uiteration_policy@spirit@boost@@Umatch_policy@23@Uaction_policy@23@@spirit@boost@@@spirit@boost@@Uparser_context@23@Uparser_address_tag@23@@spirit@boost@@V?$assign_actor@V?$basic_string@DV?$char_traits@D@_STL@@V?$allocator@D@2@@_STL@@@23@@spirit@boost@@QAE@ABV?$rule@V?$scanner@PBDU?$scanner_policies@Uiteration_policy@spirit@boost@@Umatch_policy@23@Uaction_policy@23@@spirit@boost@@@spirit@boost@@Uparser_context@23@Uparser_address_tag@23@@12@ABV?$assign_actor@V?$basic_string@DV?$char_traits@D@_STL@@V?$allocator@D@2@@_STL@@@12@@Z 0040f327 f i Core:ConsoleCommandLineParser.obj
 0001:0000e327       ??0?$action@V?$rule@V?$scanner@PBDU?$scanner_policies@Uiteration_policy@spirit@boost@@Umatch_policy@23@Uaction_policy@23@@spirit@boost@@@spirit@boost@@Uparser_context@23@Uparser_address_tag@23@@spirit@boost@@VAddString@@@spirit@boost@@QAE@ABV?$rule@V?$scanner@PBDU?$scanner_policies@Uiteration_policy@spirit@boost@@Umatch_policy@23@Uaction_policy@23@@spirit@boost@@@spirit@boost@@Uparser_context@23@Uparser_address_tag@23@@12@ABVAddString@@@Z 0040f327 f i Core:ConsoleCommandLineParser.obj
 0001:0000e34b       ??0?$sequence@U?$positive@Uspace_parser@spirit@boost@@@spirit@boost@@V?$rule@V?$scanner@PBDU?$scanner_policies@Uiteration_policy@spirit@boost@@Umatch_policy@23@Uaction_policy@23@@spirit@boost@@@spirit@boost@@Uparser_context@23@Uparser_address_tag@23@@23@@spirit@boost@@QAE@ABU?$positive@Uspace_parser@spirit@boost@@@12@ABV?$rule@V?$scanner@PBDU?$scanner_policies@Uiteration_policy@spirit@boost@@Umatch_policy@23@Uaction_policy@23@@spirit@boost@@@spirit@boost@@Uparser_context@23@Uparser_address_tag@23@@12@@Z 0040f34b f i Core:ConsoleCommandLineParser.obj
 0001:0000e367       ??0?$sequence@V?$action@V?$rule@V?$scanner@PBDU?$scanner_policies@Uiteration_policy@spirit@boost@@Umatch_policy@23@Uaction_policy@23@@spirit@boost@@@spirit@boost@@Uparser_context@23@Uparser_address_tag@23@@spirit@boost@@V?$assign_actor@V?$basic_string@DV?$char_traits@D@_STL@@V?$allocator@D@2@@_STL@@@23@@spirit@boost@@U?$kleene_star@U?$sequence@U?$positive@Uspace_parser@spirit@boost@@@spirit@boost@@V?$rule@V?$scanner@PBDU?$scanner_policies@Uiteration_policy@spirit@boost@@Umatch_policy@23@Uaction_policy@23@@spirit@boost@@@spirit@boost@@Uparser_context@23@Uparser_address_tag@23@@23@@spirit@boost@@@23@@spirit@boost@@QAE@ABV?$action@V?$rule@V?$scanner@PBDU?$scanner_policies@Uiteration_policy@spirit@boost@@Umatch_policy@23@Uaction_policy@23@@spirit@boost@@@spirit@boost@@Uparser_context@23@Uparser_address_tag@23@@spirit@boost@@V?$assign_actor@V?$basic_string@DV?$char_traits@D@_STL@@V?$allocator@D@2@@_STL@@@23@@12@ABU?$kleene_star@U?$sequence@U?$positive@Uspace_parser@spirit@boost@@@spirit@boost@@V?$rule@V?$scanner@PBDU?$scanner_policies@Uiteration_policy@spirit@boost@@Umatch_policy@23@Uaction_policy@23@@spirit@boost@@@spirit@boost@@Uparser_context@23@Uparser_address_tag@23@@23@@spirit@boost@@@12@@Z 0040f367 f i Core:ConsoleCommandLineParser.obj
 0001:0000e383       ??0?$alternative@V?$rule@V?$scanner@PBDU?$scanner_policies@Uiteration_policy@spirit@boost@@Umatch_policy@23@Uaction_policy@23@@spirit@boost@@@spirit@boost@@Uparser_context@23@Uparser_address_tag@23@@spirit@boost@@U?$sequence@V?$action@V?$rule@V?$scanner@PBDU?$scanner_policies@Uiteration_policy@spirit@boost@@Umatch_policy@23@Uaction_policy@23@@spirit@boost@@@spirit@boost@@Uparser_context@23@Uparser_address_tag@23@@spirit@boost@@V?$assign_actor@V?$basic_string@DV?$char_traits@D@_STL@@V?$allocator@D@2@@_STL@@@23@@spirit@boost@@U?$kleene_star@U?$sequence@U?$positive@Uspace_parser@spirit@boost@@@spirit@boost@@V?$rule@V?$scanner@PBDU?$scanner_policies@Uiteration_policy@spirit@boost@@Umatch_policy@23@Uaction_policy@23@@spirit@boost@@@spirit@boost@@Uparser_context@23@Uparser_address_tag@23@@23@@spirit@boost@@@23@@23@@spirit@boost@@QAE@ABV?$rule@V?$scanner@PBDU?$scanner_policies@Uiteration_policy@spirit@boost@@Umatch_policy@23@Uaction_policy@23@@spirit@boost@@@spirit@boost@@Uparser_context@23@Uparser_address_tag@23@@12@ABU?$sequence@V?$action@V?$rule@V?$scanner@PBDU?$scanner_policies@Uiteration_policy@spirit@boost@@Umatch_policy@23@Uaction_policy@23@@spirit@boost@@@spirit@boost@@Uparser_context@23@Uparser_address_tag@23@@spirit@boost@@V?$assign_actor@V?$basic_string@DV?$char_traits@D@_STL@@V?$allocator@D@2@@_STL@@@23@@spirit@boost@@U?$kleene_star@U?$sequence@U?$positive@Uspace_parser@spirit@boost@@@spirit@boost@@V?$rule@V?$scanner@PBDU?$scanner_policies@Uiteration_policy@spirit@boost@@Umatch_policy@23@Uaction_policy@23@@spirit@boost@@@spirit@boost@@Uparser_context@23@Uparser_address_tag@23@@23@@spirit@boost@@@23@@12@@Z 0040f383 f i Core:ConsoleCommandLineParser.obj
 0001:0000e39f       ??0?$alternative@V?$rule@V?$scanner@PBDU?$scanner_policies@Uiteration_policy@spirit@boost@@Umatch_policy@23@Uaction_policy@23@@spirit@boost@@@spirit@boost@@Uparser_context@23@Uparser_address_tag@23@@spirit@boost@@V123@@spirit@boost@@QAE@ABV?$rule@V?$scanner@PBDU?$scanner_policies@Uiteration_policy@spirit@boost@@Umatch_policy@23@Uaction_policy@23@@spirit@boost@@@spirit@boost@@Uparser_context@23@Uparser_address_tag@23@@12@0@Z 0040f39f f i Core:ConsoleCommandLineParser.obj
 0001:0000e3bb       ??0?$alternative@U?$alternative@V?$rule@V?$scanner@PBDU?$scanner_policies@Uiteration_policy@spirit@boost@@Umatch_policy@23@Uaction_policy@23@@spirit@boost@@@spirit@boost@@Uparser_context@23@Uparser_address_tag@23@@spirit@boost@@V123@@spirit@boost@@V?$rule@V?$scanner@PBDU?$scanner_policies@Uiteration_policy@spirit@boost@@Umatch_policy@23@Uaction_policy@23@@spirit@boost@@@spirit@boost@@Uparser_context@23@Uparser_address_tag@23@@23@@spirit@boost@@QAE@ABU?$alternative@V?$rule@V?$scanner@PBDU?$scanner_policies@Uiteration_policy@spirit@boost@@Umatch_policy@23@Uaction_policy@23@@spirit@boost@@@spirit@boost@@Uparser_context@23@Uparser_address_tag@23@@spirit@boost@@V123@@12@ABV?$rule@V?$scanner@PBDU?$scanner_policies@Uiteration_policy@spirit@boost@@Umatch_policy@23@Uaction_policy@23@@spirit@boost@@@spirit@boost@@Uparser_context@23@Uparser_address_tag@23@@12@@Z 0040f3bb f i Core:ConsoleCommandLineParser.obj
 0001:0000e3d7       ??0?$alternative@U?$alternative@U?$alternative@V?$rule@V?$scanner@PBDU?$scanner_policies@Uiteration_policy@spirit@boost@@Umatch_policy@23@Uaction_policy@23@@spirit@boost@@@spirit@boost@@Uparser_context@23@Uparser_address_tag@23@@spirit@boost@@V123@@spirit@boost@@V?$rule@V?$scanner@PBDU?$scanner_policies@Uiteration_policy@spirit@boost@@Umatch_policy@23@Uaction_policy@23@@spirit@boost@@@spirit@boost@@Uparser_context@23@Uparser_address_tag@23@@23@@spirit@boost@@V?$action@V?$rule@V?$scanner@PBDU?$scanner_policies@Uiteration_policy@spirit@boost@@Umatch_policy@23@Uaction_policy@23@@spirit@boost@@@spirit@boost@@Uparser_context@23@Uparser_address_tag@23@@spirit@boost@@VAddBooleanToArgs@@@23@@spirit@boost@@QAE@ABU?$alternative@U?$alternative@V?$rule@V?$scanner@PBDU?$scanner_policies@Uiteration_policy@spirit@boost@@Umatch_policy@23@Uaction_policy@23@@spirit@boost@@@spirit@boost@@Uparser_context@23@Uparser_address_tag@23@@spirit@boost@@V123@@spirit@boost@@V?$rule@V?$scanner@PBDU?$scanner_policies@Uiteration_policy@spirit@boost@@Umatch_policy@23@Uaction_policy@23@@spirit@boost@@@spirit@boost@@Uparser_context@23@Uparser_address_tag@23@@23@@12@ABV?$action@V?$rule@V?$scanner@PBDU?$scanner_policies@Uiteration_policy@spirit@boost@@Umatch_policy@23@Uaction_policy@23@@spirit@boost@@@spirit@boost@@Uparser_context@23@Uparser_address_tag@23@@spirit@boost@@VAddBooleanToArgs@@@12@@Z 0040f3d7 f i Core:ConsoleCommandLineParser.obj
 0001:0000e3f3       ??0?$alternative@U?$alternative@U?$alternative@U?$alternative@V?$rule@V?$scanner@PBDU?$scanner_policies@Uiteration_policy@spirit@boost@@Umatch_policy@23@Uaction_policy@23@@spirit@boost@@@spirit@boost@@Uparser_context@23@Uparser_address_tag@23@@spirit@boost@@V123@@spirit@boost@@V?$rule@V?$scanner@PBDU?$scanner_policies@Uiteration_policy@spirit@boost@@Umatch_policy@23@Uaction_policy@23@@spirit@boost@@@spirit@boost@@Uparser_context@23@Uparser_address_tag@23@@23@@spirit@boost@@V?$action@V?$rule@V?$scanner@PBDU?$scanner_policies@Uiteration_policy@spirit@boost@@Umatch_policy@23@Uaction_policy@23@@spirit@boost@@@spirit@boost@@Uparser_context@23@Uparser_address_tag@23@@spirit@boost@@VAddBooleanToArgs@@@23@@spirit@boost@@V?$action@V?$rule@V?$scanner@PBDU?$scanner_policies@Uiteration_policy@spirit@boost@@Umatch_policy@23@Uaction_policy@23@@spirit@boost@@@spirit@boost@@Uparser_context@23@Uparser_address_tag@23@@spirit@boost@@VAddString@@@23@@spirit@boost@@QAE@ABU?$alternative@U?$alternative@U?$alternative@V?$rule@V?$scanner@PBDU?$scanner_policies@Uiteration_policy@spirit@boost@@Umatch_policy@23@Uaction_policy@23@@spirit@boost@@@spirit@boost@@Uparser_context@23@Uparser_address_tag@23@@spirit@boost@@V123@@spirit@boost@@V?$rule@V?$scanner@PBDU?$scanner_policies@Uiteration_policy@spirit@boost@@Umatch_policy@23@Uaction_policy@23@@spirit@boost@@@spirit@boost@@Uparser_context@23@Uparser_address_tag@23@@23@@spirit@boost@@V?$action@V?$rule@V?$scanner@PBDU?$scanner_policies@Uiteration_policy@spirit@boost@@Umatch_policy@23@Uaction_policy@23@@spirit@boost@@@spirit@boost@@Uparser_context@23@Uparser_address_tag@23@@spirit@boost@@VAddBooleanToArgs@@@23@@12@ABV?$action@V?$rule@V?$scanner@PBDU?$scanner_policies@Uiteration_policy@spirit@boost@@Umatch_policy@23@Uaction_policy@23@@spirit@boost@@@spirit@boost@@Uparser_context@23@Uparser_address_tag@23@@spirit@boost@@VAddString@@@12@@Z 0040f3f3 f i Core:ConsoleCommandLineParser.obj
 0001:0000e40f       ??0?$alternative@Ualpha_parser@spirit@boost@@U?$chlit@D@23@@spirit@boost@@QAE@ABUalpha_parser@12@ABU?$chlit@D@12@@Z 0040f40f f i Core:ConsoleCommandLineParser.obj
 0001:0000e40f       ??0?$alternative@Ualnum_parser@spirit@boost@@U?$chlit@D@23@@spirit@boost@@QAE@ABUalnum_parser@12@ABU?$chlit@D@12@@Z 0040f40f f i Core:ConsoleCommandLineParser.obj
 0001:0000e42b       ??0?$contiguous@U?$sequence@U?$positive@U?$alternative@Ualpha_parser@spirit@boost@@U?$chlit@D@23@@spirit@boost@@@spirit@boost@@U?$kleene_star@U?$alternative@Ualnum_parser@spirit@boost@@U?$chlit@D@23@@spirit@boost@@@23@@spirit@boost@@@spirit@boost@@QAE@ABU?$sequence@U?$positive@U?$alternative@Ualpha_parser@spirit@boost@@U?$chlit@D@23@@spirit@boost@@@spirit@boost@@U?$kleene_star@U?$alternative@Ualnum_parser@spirit@boost@@U?$chlit@D@23@@spirit@boost@@@23@@12@@Z 0040f42b f i Core:ConsoleCommandLineParser.obj
 0001:0000e444       ??0?$action@U?$uint_parser@I$09$00$0?0@spirit@boost@@VAddUnsignedIntegerToArgs@@@spirit@boost@@QAE@ABU?$uint_parser@I$09$00$0?0@12@ABVAddUnsignedIntegerToArgs@@@Z 0040f444 f i Core:ConsoleCommandLineParser.obj
 0001:0000e444       ??0?$action@U?$real_parser@NU?$strict_real_parser_policies@N@spirit@boost@@@spirit@boost@@VAddFloatToArgs@@@spirit@boost@@QAE@ABU?$real_parser@NU?$strict_real_parser_policies@N@spirit@boost@@@12@ABVAddFloatToArgs@@@Z 0040f444 f i Core:ConsoleCommandLineParser.obj
 0001:0000e444       ??0?$action@U?$int_parser@H$09$00$0?0@spirit@boost@@VAddIntegerToArgs@@@spirit@boost@@QAE@ABU?$int_parser@H$09$00$0?0@12@ABVAddIntegerToArgs@@@Z 0040f444 f i Core:ConsoleCommandLineParser.obj
 0001:0000e467       ??0?$contiguous@V?$action@U?$uint_parser@I$09$00$0?0@spirit@boost@@VAddUnsignedIntegerToArgs@@@spirit@boost@@@spirit@boost@@QAE@ABV?$action@U?$uint_parser@I$09$00$0?0@spirit@boost@@VAddUnsignedIntegerToArgs@@@12@@Z 0040f467 f i Core:ConsoleCommandLineParser.obj
 0001:0000e467       ??0?$contiguous@V?$action@U?$int_parser@H$09$00$0?0@spirit@boost@@VAddIntegerToArgs@@@spirit@boost@@@spirit@boost@@QAE@ABV?$action@U?$int_parser@H$09$00$0?0@spirit@boost@@VAddIntegerToArgs@@@12@@Z 0040f467 f i Core:ConsoleCommandLineParser.obj
 0001:0000e467       ??0?$kleene_star@U?$sequence@U?$positive@Uspace_parser@spirit@boost@@@spirit@boost@@V?$rule@V?$scanner@PBDU?$scanner_policies@Uiteration_policy@spirit@boost@@Umatch_policy@23@Uaction_policy@23@@spirit@boost@@@spirit@boost@@Uparser_context@23@Uparser_address_tag@23@@23@@spirit@boost@@@spirit@boost@@QAE@ABU?$sequence@U?$positive@Uspace_parser@spirit@boost@@@spirit@boost@@V?$rule@V?$scanner@PBDU?$scanner_policies@Uiteration_policy@spirit@boost@@Umatch_policy@23@Uaction_policy@23@@spirit@boost@@@spirit@boost@@Uparser_context@23@Uparser_address_tag@23@@23@@12@@Z 0040f467 f i Core:ConsoleCommandLineParser.obj
 0001:0000e467       ??0?$contiguous@V?$action@U?$real_parser@NU?$strict_real_parser_policies@N@spirit@boost@@@spirit@boost@@VAddFloatToArgs@@@spirit@boost@@@spirit@boost@@QAE@ABV?$action@U?$real_parser@NU?$strict_real_parser_policies@N@spirit@boost@@@spirit@boost@@VAddFloatToArgs@@@12@@Z 0040f467 f i Core:ConsoleCommandLineParser.obj
 0001:0000e480       ??0?$negated_char_parser@U?$chlit@D@spirit@boost@@@spirit@boost@@QAE@ABU?$chlit@D@12@@Z 0040f480 f i Core:ConsoleCommandLineParser.obj
 0001:0000e49d       ??0?$positive@U?$alternative@Ualpha_parser@spirit@boost@@U?$chlit@D@23@@spirit@boost@@@spirit@boost@@QAE@ABU?$alternative@Ualpha_parser@spirit@boost@@U?$chlit@D@23@@12@@Z 0040f49d f i Core:ConsoleCommandLineParser.obj
 0001:0000e49d       ??0?$kleene_star@U?$alternative@Ualnum_parser@spirit@boost@@U?$chlit@D@23@@spirit@boost@@@spirit@boost@@QAE@ABU?$alternative@Ualnum_parser@spirit@boost@@U?$chlit@D@23@@12@@Z 0040f49d f i Core:ConsoleCommandLineParser.obj
 0001:0000e49d       ??0?$kleene_star@U?$difference@U?$negated_char_parser@U?$chlit@D@spirit@boost@@@spirit@boost@@Uspace_parser@23@@spirit@boost@@@spirit@boost@@QAE@ABU?$difference@U?$negated_char_parser@U?$chlit@D@spirit@boost@@@spirit@boost@@Uspace_parser@23@@12@@Z 0040f49d f i Core:ConsoleCommandLineParser.obj
 0001:0000e49d       ??0?$inhibit_case@U?$chlit@D@spirit@boost@@@spirit@boost@@QAE@ABU?$chlit@D@12@@Z 0040f49d f i Core:ConsoleCommandLineParser.obj
 0001:0000e49d       ??0?$kleene_star@U?$negated_char_parser@U?$chlit@D@spirit@boost@@@spirit@boost@@@spirit@boost@@QAE@ABU?$negated_char_parser@U?$chlit@D@spirit@boost@@@12@@Z 0040f49d f i Core:ConsoleCommandLineParser.obj
 0001:0000e4b6       ??0?$sequence@U?$positive@U?$alternative@Ualpha_parser@spirit@boost@@U?$chlit@D@23@@spirit@boost@@@spirit@boost@@U?$kleene_star@U?$alternative@Ualnum_parser@spirit@boost@@U?$chlit@D@23@@spirit@boost@@@23@@spirit@boost@@QAE@ABU?$positive@U?$alternative@Ualpha_parser@spirit@boost@@U?$chlit@D@23@@spirit@boost@@@12@ABU?$kleene_star@U?$alternative@Ualnum_parser@spirit@boost@@U?$chlit@D@23@@spirit@boost@@@12@@Z 0040f4b6 f i Core:ConsoleCommandLineParser.obj
 0001:0000e4b6       ??0?$sequence@U?$chlit@D@spirit@boost@@U?$kleene_star@U?$negated_char_parser@U?$chlit@D@spirit@boost@@@spirit@boost@@@23@@spirit@boost@@QAE@ABU?$chlit@D@12@ABU?$kleene_star@U?$negated_char_parser@U?$chlit@D@spirit@boost@@@spirit@boost@@@12@@Z 0040f4b6 f i Core:ConsoleCommandLineParser.obj
 0001:0000e4d2       ??0?$sequence@U?$sequence@U?$chlit@D@spirit@boost@@U?$kleene_star@U?$negated_char_parser@U?$chlit@D@spirit@boost@@@spirit@boost@@@23@@spirit@boost@@U?$chlit@D@23@@spirit@boost@@QAE@ABU?$sequence@U?$chlit@D@spirit@boost@@U?$kleene_star@U?$negated_char_parser@U?$chlit@D@spirit@boost@@@spirit@boost@@@23@@12@ABU?$chlit@D@12@@Z 0040f4d2 f i Core:ConsoleCommandLineParser.obj
 0001:0000e4ee       ??0?$difference@U?$negated_char_parser@U?$chlit@D@spirit@boost@@@spirit@boost@@Uspace_parser@23@@spirit@boost@@QAE@ABU?$negated_char_parser@U?$chlit@D@spirit@boost@@@12@ABUspace_parser@12@@Z 0040f4ee f i Core:ConsoleCommandLineParser.obj
 0001:0000e50a       ??0?$alternative@U?$sequence@U?$sequence@U?$chlit@D@spirit@boost@@U?$kleene_star@U?$negated_char_parser@U?$chlit@D@spirit@boost@@@spirit@boost@@@23@@spirit@boost@@U?$chlit@D@23@@spirit@boost@@U?$kleene_star@U?$difference@U?$negated_char_parser@U?$chlit@D@spirit@boost@@@spirit@boost@@Uspace_parser@23@@spirit@boost@@@23@@spirit@boost@@QAE@ABU?$sequence@U?$sequence@U?$chlit@D@spirit@boost@@U?$kleene_star@U?$negated_char_parser@U?$chlit@D@spirit@boost@@@spirit@boost@@@23@@spirit@boost@@U?$chlit@D@23@@12@ABU?$kleene_star@U?$difference@U?$negated_char_parser@U?$chlit@D@spirit@boost@@@spirit@boost@@Uspace_parser@23@@spirit@boost@@@12@@Z 0040f50a f i Core:ConsoleCommandLineParser.obj
 0001:0000e526       ??0?$alternative@V?$strlit@PBD@spirit@boost@@V123@@spirit@boost@@QAE@ABV?$strlit@PBD@12@0@Z 0040f526 f i Core:ConsoleCommandLineParser.obj
 0001:0000e542       ??0?$alternative@U?$chlit@D@spirit@boost@@V?$strlit@PBD@23@@spirit@boost@@QAE@ABU?$chlit@D@12@ABV?$strlit@PBD@12@@Z 0040f542 f i Core:ConsoleCommandLineParser.obj
 0001:0000e55e       ??0?$kleene_star@Uanychar_parser@spirit@boost@@@spirit@boost@@QAE@ABUanychar_parser@12@@Z 0040f55e f i Core:ConsoleCommandLineParser.obj
 0001:0000e55e       ??0?$positive@Uspace_parser@spirit@boost@@@spirit@boost@@QAE@ABUspace_parser@12@@Z 0040f55e f i Core:ConsoleCommandLineParser.obj
 0001:0000e577       ??0?$sequence@U?$alternative@U?$chlit@D@spirit@boost@@V?$strlit@PBD@23@@spirit@boost@@U?$kleene_star@Uanychar_parser@spirit@boost@@@23@@spirit@boost@@QAE@ABU?$alternative@U?$chlit@D@spirit@boost@@V?$strlit@PBD@23@@12@ABU?$kleene_star@Uanychar_parser@spirit@boost@@@12@@Z 0040f577 f i Core:ConsoleCommandLineParser.obj
 0001:0000e593       ??0?$concrete_parser@U?$alternative@V?$rule@V?$scanner@PBDU?$scanner_policies@Uiteration_policy@spirit@boost@@Umatch_policy@23@Uaction_policy@23@@spirit@boost@@@spirit@boost@@Uparser_context@23@Uparser_address_tag@23@@spirit@boost@@U?$sequence@V?$action@V?$rule@V?$scanner@PBDU?$scanner_policies@Uiteration_policy@spirit@boost@@Umatch_policy@23@Uaction_policy@23@@spirit@boost@@@spirit@boost@@Uparser_context@23@Uparser_address_tag@23@@spirit@boost@@V?$assign_actor@V?$basic_string@DV?$char_traits@D@_STL@@V?$allocator@D@2@@_STL@@@23@@spirit@boost@@U?$kleene_star@U?$sequence@U?$positive@Uspace_parser@spirit@boost@@@spirit@boost@@V?$rule@V?$scanner@PBDU?$scanner_policies@Uiteration_policy@spirit@boost@@Umatch_policy@23@Uaction_policy@23@@spirit@boost@@@spirit@boost@@Uparser_context@23@Uparser_address_tag@23@@23@@spirit@boost@@@23@@23@@spirit@boost@@V?$scanner@PBDU?$scanner_policies@Uiteration_policy@spirit@boost@@Umatch_policy@23@Uaction_policy@23@@spirit@boost@@@23@V?$match@Unil_t@spirit@boost@@@23@@impl@spirit@boost@@QAE@ABU?$alternative@V?$rule@V?$scanner@PBDU?$scanner_policies@Uiteration_policy@spirit@boost@@Umatch_policy@23@Uaction_policy@23@@spirit@boost@@@spirit@boost@@Uparser_context@23@Uparser_address_tag@23@@spirit@boost@@U?$sequence@V?$action@V?$rule@V?$scanner@PBDU?$scanner_policies@Uiteration_policy@spirit@boost@@Umatch_policy@23@Uaction_policy@23@@spirit@boost@@@spirit@boost@@Uparser_context@23@Uparser_address_tag@23@@spirit@boost@@V?$assign_actor@V?$basic_string@DV?$char_traits@D@_STL@@V?$allocator@D@2@@_STL@@@23@@spirit@boost@@U?$kleene_star@U?$sequence@U?$positive@Uspace_parser@spirit@boost@@@spirit@boost@@V?$rule@V?$scanner@PBDU?$scanner_policies@Uiteration_policy@spirit@boost@@Umatch_policy@23@Uaction_policy@23@@spirit@boost@@@spirit@boost@@Uparser_context@23@Uparser_address_tag@23@@23@@spirit@boost@@@23@@23@@23@@Z 0040f593 f i Core:ConsoleCommandLineParser.obj
 0001:0000e5c3       ?do_parse_virtual@?$concrete_parser@U?$alternative@V?$rule@V?$scanner@PBDU?$scanner_policies@Uiteration_policy@spirit@boost@@Umatch_policy@23@Uaction_policy@23@@spirit@boost@@@spirit@boost@@Uparser_context@23@Uparser_address_tag@23@@spirit@boost@@U?$sequence@V?$action@V?$rule@V?$scanner@PBDU?$scanner_policies@Uiteration_policy@spirit@boost@@Umatch_policy@23@Uaction_policy@23@@spirit@boost@@@spirit@boost@@Uparser_context@23@Uparser_address_tag@23@@spirit@boost@@V?$assign_actor@V?$basic_string@DV?$char_traits@D@_STL@@V?$allocator@D@2@@_STL@@@23@@spirit@boost@@U?$kleene_star@U?$sequence@U?$positive@Uspace_parser@spirit@boost@@@spirit@boost@@V?$rule@V?$scanner@PBDU?$scanner_policies@Uiteration_policy@spirit@boost@@Umatch_policy@23@Uaction_policy@23@@spirit@boost@@@spirit@boost@@Uparser_context@23@Uparser_address_tag@23@@23@@spirit@boost@@@23@@23@@spirit@boost@@V?$scanner@PBDU?$scanner_policies@Uiteration_policy@spirit@boost@@Umatch_policy@23@Uaction_policy@23@@spirit@boost@@@23@V?$match@Unil_t@spirit@boost@@@23@@impl@spirit@boost@@UBE?AV?$match@Unil_t@spirit@boost@@@34@ABV?$scanner@PBDU?$scanner_policies@Uiteration_policy@spirit@boost@@Umatch_policy@23@Uaction_policy@23@@spirit@boost@@@34@@Z 0040f5c3 f i Core:ConsoleCommandLineParser.obj
 0001:0000e5e2       ?clone@?$concrete_parser@U?$alternative@V?$rule@V?$scanner@PBDU?$scanner_policies@Uiteration_policy@spirit@boost@@Umatch_policy@23@Uaction_policy@23@@spirit@boost@@@spirit@boost@@Uparser_context@23@Uparser_address_tag@23@@spirit@boost@@U?$sequence@V?$action@V?$rule@V?$scanner@PBDU?$scanner_policies@Uiteration_policy@spirit@boost@@Umatch_policy@23@Uaction_policy@23@@spirit@boost@@@spirit@boost@@Uparser_context@23@Uparser_address_tag@23@@spirit@boost@@V?$assign_actor@V?$basic_string@DV?$char_traits@D@_STL@@V?$allocator@D@2@@_STL@@@23@@spirit@boost@@U?$kleene_star@U?$sequence@U?$positive@Uspace_parser@spirit@boost@@@spirit@boost@@V?$rule@V?$scanner@PBDU?$scanner_policies@Uiteration_policy@spirit@boost@@Umatch_policy@23@Uaction_policy@23@@spirit@boost@@@spirit@boost@@Uparser_context@23@Uparser_address_tag@23@@23@@spirit@boost@@@23@@23@@spirit@boost@@V?$scanner@PBDU?$scanner_policies@Uiteration_policy@spirit@boost@@Umatch_policy@23@Uaction_policy@23@@spirit@boost@@@23@V?$match@Unil_t@spirit@boost@@@23@@impl@spirit@boost@@UBEPAU?$abstract_parser@V?$scanner@PBDU?$scanner_policies@Uiteration_policy@spirit@boost@@Umatch_policy@23@Uaction_policy@23@@spirit@boost@@@spirit@boost@@V?$match@Unil_t@spirit@boost@@@23@@234@XZ 0040f5e2 f i Core:ConsoleCommandLineParser.obj
 0001:0000e638       ??0?$concrete_parser@U?$alternative@U?$alternative@U?$alternative@U?$alternative@V?$rule@V?$scanner@PBDU?$scanner_policies@Uiteration_policy@spirit@boost@@Umatch_policy@23@Uaction_policy@23@@spirit@boost@@@spirit@boost@@Uparser_context@23@Uparser_address_tag@23@@spirit@boost@@V123@@spirit@boost@@V?$rule@V?$scanner@PBDU?$scanner_policies@Uiteration_policy@spirit@boost@@Umatch_policy@23@Uaction_policy@23@@spirit@boost@@@spirit@boost@@Uparser_context@23@Uparser_address_tag@23@@23@@spirit@boost@@V?$action@V?$rule@V?$scanner@PBDU?$scanner_policies@Uiteration_policy@spirit@boost@@Umatch_policy@23@Uaction_policy@23@@spirit@boost@@@spirit@boost@@Uparser_context@23@Uparser_address_tag@23@@spirit@boost@@VAddBooleanToArgs@@@23@@spirit@boost@@V?$action@V?$rule@V?$scanner@PBDU?$scanner_policies@Uiteration_policy@spirit@boost@@Umatch_policy@23@Uaction_policy@23@@spirit@boost@@@spirit@boost@@Uparser_context@23@Uparser_address_tag@23@@spirit@boost@@VAddString@@@23@@spirit@boost@@V?$scanner@PBDU?$scanner_policies@Uiteration_policy@spirit@boost@@Umatch_policy@23@Uaction_policy@23@@spirit@boost@@@23@V?$match@Unil_t@spirit@boost@@@23@@impl@spirit@boost@@QAE@ABU?$alternative@U?$alternative@U?$alternative@U?$alternative@V?$rule@V?$scanner@PBDU?$scanner_policies@Uiteration_policy@spirit@boost@@Umatch_policy@23@Uaction_policy@23@@spirit@boost@@@spirit@boost@@Uparser_context@23@Uparser_address_tag@23@@spirit@boost@@V123@@spirit@boost@@V?$rule@V?$scanner@PBDU?$scanner_policies@Uiteration_policy@spirit@boost@@Umatch_policy@23@Uaction_policy@23@@spirit@boost@@@spirit@boost@@Uparser_context@23@Uparser_address_tag@23@@23@@spirit@boost@@V?$action@V?$rule@V?$scanner@PBDU?$scanner_policies@Uiteration_policy@spirit@boost@@Umatch_policy@23@Uaction_policy@23@@spirit@boost@@@spirit@boost@@Uparser_context@23@Uparser_address_tag@23@@spirit@boost@@VAddBooleanToArgs@@@23@@spirit@boost@@V?$action@V?$rule@V?$scanner@PBDU?$scanner_policies@Uiteration_policy@spirit@boost@@Umatch_policy@23@Uaction_policy@23@@spirit@boost@@@spirit@boost@@Uparser_context@23@Uparser_address_tag@23@@spirit@boost@@VAddString@@@23@@23@@Z 0040f638 f i Core:ConsoleCommandLineParser.obj
 0001:0000e669       ?do_parse_virtual@?$concrete_parser@U?$alternative@U?$alternative@U?$alternative@U?$alternative@V?$rule@V?$scanner@PBDU?$scanner_policies@Uiteration_policy@spirit@boost@@Umatch_policy@23@Uaction_policy@23@@spirit@boost@@@spirit@boost@@Uparser_context@23@Uparser_address_tag@23@@spirit@boost@@V123@@spirit@boost@@V?$rule@V?$scanner@PBDU?$scanner_policies@Uiteration_policy@spirit@boost@@Umatch_policy@23@Uaction_policy@23@@spirit@boost@@@spirit@boost@@Uparser_context@23@Uparser_address_tag@23@@23@@spirit@boost@@V?$action@V?$rule@V?$scanner@PBDU?$scanner_policies@Uiteration_policy@spirit@boost@@Umatch_policy@23@Uaction_policy@23@@spirit@boost@@@spirit@boost@@Uparser_context@23@Uparser_address_tag@23@@spirit@boost@@VAddBooleanToArgs@@@23@@spirit@boost@@V?$action@V?$rule@V?$scanner@PBDU?$scanner_policies@Uiteration_policy@spirit@boost@@Umatch_policy@23@Uaction_policy@23@@spirit@boost@@@spirit@boost@@Uparser_context@23@Uparser_address_tag@23@@spirit@boost@@VAddString@@@23@@spirit@boost@@V?$scanner@PBDU?$scanner_policies@Uiteration_policy@spirit@boost@@Umatch_policy@23@Uaction_policy@23@@spirit@boost@@@23@V?$match@Unil_t@spirit@boost@@@23@@impl@spirit@boost@@UBE?AV?$match@Unil_t@spirit@boost@@@34@ABV?$scanner@PBDU?$scanner_policies@Uiteration_policy@spirit@boost@@Umatch_policy@23@Uaction_policy@23@@spirit@boost@@@34@@Z 0040f669 f i Core:ConsoleCommandLineParser.obj
 0001:0000e688       ?clone@?$concrete_parser@U?$alternative@U?$alternative@U?$alternative@U?$alternative@V?$rule@V?$scanner@PBDU?$scanner_policies@Uiteration_policy@spirit@boost@@Umatch_policy@23@Uaction_policy@23@@spirit@boost@@@spirit@boost@@Uparser_context@23@Uparser_address_tag@23@@spirit@boost@@V123@@spirit@boost@@V?$rule@V?$scanner@PBDU?$scanner_policies@Uiteration_policy@spirit@boost@@Umatch_policy@23@Uaction_policy@23@@spirit@boost@@@spirit@boost@@Uparser_context@23@Uparser_address_tag@23@@23@@spirit@boost@@V?$action@V?$rule@V?$scanner@PBDU?$scanner_policies@Uiteration_policy@spirit@boost@@Umatch_policy@23@Uaction_policy@23@@spirit@boost@@@spirit@boost@@Uparser_context@23@Uparser_address_tag@23@@spirit@boost@@VAddBooleanToArgs@@@23@@spirit@boost@@V?$action@V?$rule@V?$scanner@PBDU?$scanner_policies@Uiteration_policy@spirit@boost@@Umatch_policy@23@Uaction_policy@23@@spirit@boost@@@spirit@boost@@Uparser_context@23@Uparser_address_tag@23@@spirit@boost@@VAddString@@@23@@spirit@boost@@V?$scanner@PBDU?$scanner_policies@Uiteration_policy@spirit@boost@@Umatch_policy@23@Uaction_policy@23@@spirit@boost@@@23@V?$match@Unil_t@spirit@boost@@@23@@impl@spirit@boost@@UBEPAU?$abstract_parser@V?$scanner@PBDU?$scanner_policies@Uiteration_policy@spirit@boost@@Umatch_policy@23@Uaction_policy@23@@spirit@boost@@@spirit@boost@@V?$match@Unil_t@spirit@boost@@@23@@234@XZ 0040f688 f i Core:ConsoleCommandLineParser.obj
 0001:0000e6de       ??0?$concrete_parser@U?$contiguous@U?$sequence@U?$positive@U?$alternative@Ualpha_parser@spirit@boost@@U?$chlit@D@23@@spirit@boost@@@spirit@boost@@U?$kleene_star@U?$alternative@Ualnum_parser@spirit@boost@@U?$chlit@D@23@@spirit@boost@@@23@@spirit@boost@@@spirit@boost@@V?$scanner@PBDU?$scanner_policies@Uiteration_policy@spirit@boost@@Umatch_policy@23@Uaction_policy@23@@spirit@boost@@@23@V?$match@Unil_t@spirit@boost@@@23@@impl@spirit@boost@@QAE@ABU?$contiguous@U?$sequence@U?$positive@U?$alternative@Ualpha_parser@spirit@boost@@U?$chlit@D@23@@spirit@boost@@@spirit@boost@@U?$kleene_star@U?$alternative@Ualnum_parser@spirit@boost@@U?$chlit@D@23@@spirit@boost@@@23@@spirit@boost@@@23@@Z 0040f6de f i Core:ConsoleCommandLineParser.obj
 0001:0000e70a       ?do_parse_virtual@?$concrete_parser@U?$contiguous@U?$sequence@U?$positive@U?$alternative@Ualpha_parser@spirit@boost@@U?$chlit@D@23@@spirit@boost@@@spirit@boost@@U?$kleene_star@U?$alternative@Ualnum_parser@spirit@boost@@U?$chlit@D@23@@spirit@boost@@@23@@spirit@boost@@@spirit@boost@@V?$scanner@PBDU?$scanner_policies@Uiteration_policy@spirit@boost@@Umatch_policy@23@Uaction_policy@23@@spirit@boost@@@23@V?$match@Unil_t@spirit@boost@@@23@@impl@spirit@boost@@UBE?AV?$match@Unil_t@spirit@boost@@@34@ABV?$scanner@PBDU?$scanner_policies@Uiteration_policy@spirit@boost@@Umatch_policy@23@Uaction_policy@23@@spirit@boost@@@34@@Z 0040f70a f i Core:ConsoleCommandLineParser.obj
 0001:0000e729       ?clone@?$concrete_parser@U?$contiguous@U?$sequence@U?$positive@U?$alternative@Ualpha_parser@spirit@boost@@U?$chlit@D@23@@spirit@boost@@@spirit@boost@@U?$kleene_star@U?$alternative@Ualnum_parser@spirit@boost@@U?$chlit@D@23@@spirit@boost@@@23@@spirit@boost@@@spirit@boost@@V?$scanner@PBDU?$scanner_policies@Uiteration_policy@spirit@boost@@Umatch_policy@23@Uaction_policy@23@@spirit@boost@@@23@V?$match@Unil_t@spirit@boost@@@23@@impl@spirit@boost@@UBEPAU?$abstract_parser@V?$scanner@PBDU?$scanner_policies@Uiteration_policy@spirit@boost@@Umatch_policy@23@Uaction_policy@23@@spirit@boost@@@spirit@boost@@V?$match@Unil_t@spirit@boost@@@23@@234@XZ 0040f729 f i Core:ConsoleCommandLineParser.obj
 0001:0000e77f       ??0?$concrete_parser@U?$contiguous@V?$action@U?$int_parser@H$09$00$0?0@spirit@boost@@VAddIntegerToArgs@@@spirit@boost@@@spirit@boost@@V?$scanner@PBDU?$scanner_policies@Uiteration_policy@spirit@boost@@Umatch_policy@23@Uaction_policy@23@@spirit@boost@@@23@V?$match@Unil_t@spirit@boost@@@23@@impl@spirit@boost@@QAE@ABU?$contiguous@V?$action@U?$int_parser@H$09$00$0?0@spirit@boost@@VAddIntegerToArgs@@@spirit@boost@@@23@@Z 0040f77f f i Core:ConsoleCommandLineParser.obj
 0001:0000e7a9       ?do_parse_virtual@?$concrete_parser@U?$contiguous@V?$action@U?$int_parser@H$09$00$0?0@spirit@boost@@VAddIntegerToArgs@@@spirit@boost@@@spirit@boost@@V?$scanner@PBDU?$scanner_policies@Uiteration_policy@spirit@boost@@Umatch_policy@23@Uaction_policy@23@@spirit@boost@@@23@V?$match@Unil_t@spirit@boost@@@23@@impl@spirit@boost@@UBE?AV?$match@Unil_t@spirit@boost@@@34@ABV?$scanner@PBDU?$scanner_policies@Uiteration_policy@spirit@boost@@Umatch_policy@23@Uaction_policy@23@@spirit@boost@@@34@@Z 0040f7a9 f i Core:ConsoleCommandLineParser.obj
 0001:0000e7d4       ?clone@?$concrete_parser@U?$contiguous@V?$action@U?$int_parser@H$09$00$0?0@spirit@boost@@VAddIntegerToArgs@@@spirit@boost@@@spirit@boost@@V?$scanner@PBDU?$scanner_policies@Uiteration_policy@spirit@boost@@Umatch_policy@23@Uaction_policy@23@@spirit@boost@@@23@V?$match@Unil_t@spirit@boost@@@23@@impl@spirit@boost@@UBEPAU?$abstract_parser@V?$scanner@PBDU?$scanner_policies@Uiteration_policy@spirit@boost@@Umatch_policy@23@Uaction_policy@23@@spirit@boost@@@spirit@boost@@V?$match@Unil_t@spirit@boost@@@23@@234@XZ 0040f7d4 f i Core:ConsoleCommandLineParser.obj
 0001:0000e82a       ??0?$concrete_parser@U?$contiguous@V?$action@U?$uint_parser@I$09$00$0?0@spirit@boost@@VAddUnsignedIntegerToArgs@@@spirit@boost@@@spirit@boost@@V?$scanner@PBDU?$scanner_policies@Uiteration_policy@spirit@boost@@Umatch_policy@23@Uaction_policy@23@@spirit@boost@@@23@V?$match@Unil_t@spirit@boost@@@23@@impl@spirit@boost@@QAE@ABU?$contiguous@V?$action@U?$uint_parser@I$09$00$0?0@spirit@boost@@VAddUnsignedIntegerToArgs@@@spirit@boost@@@23@@Z 0040f82a f i Core:ConsoleCommandLineParser.obj
 0001:0000e854       ?do_parse_virtual@?$concrete_parser@U?$contiguous@V?$action@U?$uint_parser@I$09$00$0?0@spirit@boost@@VAddUnsignedIntegerToArgs@@@spirit@boost@@@spirit@boost@@V?$scanner@PBDU?$scanner_policies@Uiteration_policy@spirit@boost@@Umatch_policy@23@Uaction_policy@23@@spirit@boost@@@23@V?$match@Unil_t@spirit@boost@@@23@@impl@spirit@boost@@UBE?AV?$match@Unil_t@spirit@boost@@@34@ABV?$scanner@PBDU?$scanner_policies@Uiteration_policy@spirit@boost@@Umatch_policy@23@Uaction_policy@23@@spirit@boost@@@34@@Z 0040f854 f i Core:ConsoleCommandLineParser.obj
 0001:0000e87f       ?clone@?$concrete_parser@U?$contiguous@V?$action@U?$uint_parser@I$09$00$0?0@spirit@boost@@VAddUnsignedIntegerToArgs@@@spirit@boost@@@spirit@boost@@V?$scanner@PBDU?$scanner_policies@Uiteration_policy@spirit@boost@@Umatch_policy@23@Uaction_policy@23@@spirit@boost@@@23@V?$match@Unil_t@spirit@boost@@@23@@impl@spirit@boost@@UBEPAU?$abstract_parser@V?$scanner@PBDU?$scanner_policies@Uiteration_policy@spirit@boost@@Umatch_policy@23@Uaction_policy@23@@spirit@boost@@@spirit@boost@@V?$match@Unil_t@spirit@boost@@@23@@234@XZ 0040f87f f i Core:ConsoleCommandLineParser.obj
 0001:0000e8d5       ??0?$concrete_parser@U?$contiguous@V?$action@U?$real_parser@NU?$strict_real_parser_policies@N@spirit@boost@@@spirit@boost@@VAddFloatToArgs@@@spirit@boost@@@spirit@boost@@V?$scanner@PBDU?$scanner_policies@Uiteration_policy@spirit@boost@@Umatch_policy@23@Uaction_policy@23@@spirit@boost@@@23@V?$match@Unil_t@spirit@boost@@@23@@impl@spirit@boost@@QAE@ABU?$contiguous@V?$action@U?$real_parser@NU?$strict_real_parser_policies@N@spirit@boost@@@spirit@boost@@VAddFloatToArgs@@@spirit@boost@@@23@@Z 0040f8d5 f i Core:ConsoleCommandLineParser.obj
 0001:0000e8ff       ?do_parse_virtual@?$concrete_parser@U?$contiguous@V?$action@U?$real_parser@NU?$strict_real_parser_policies@N@spirit@boost@@@spirit@boost@@VAddFloatToArgs@@@spirit@boost@@@spirit@boost@@V?$scanner@PBDU?$scanner_policies@Uiteration_policy@spirit@boost@@Umatch_policy@23@Uaction_policy@23@@spirit@boost@@@23@V?$match@Unil_t@spirit@boost@@@23@@impl@spirit@boost@@UBE?AV?$match@Unil_t@spirit@boost@@@34@ABV?$scanner@PBDU?$scanner_policies@Uiteration_policy@spirit@boost@@Umatch_policy@23@Uaction_policy@23@@spirit@boost@@@34@@Z 0040f8ff f i Core:ConsoleCommandLineParser.obj
 0001:0000e92a       ?clone@?$concrete_parser@U?$contiguous@V?$action@U?$real_parser@NU?$strict_real_parser_policies@N@spirit@boost@@@spirit@boost@@VAddFloatToArgs@@@spirit@boost@@@spirit@boost@@V?$scanner@PBDU?$scanner_policies@Uiteration_policy@spirit@boost@@Umatch_policy@23@Uaction_policy@23@@spirit@boost@@@23@V?$match@Unil_t@spirit@boost@@@23@@impl@spirit@boost@@UBEPAU?$abstract_parser@V?$scanner@PBDU?$scanner_policies@Uiteration_policy@spirit@boost@@Umatch_policy@23@Uaction_policy@23@@spirit@boost@@@spirit@boost@@V?$match@Unil_t@spirit@boost@@@23@@234@XZ 0040f92a f i Core:ConsoleCommandLineParser.obj
 0001:0000e980       ??0?$concrete_parser@U?$alternative@U?$sequence@U?$sequence@U?$chlit@D@spirit@boost@@U?$kleene_star@U?$negated_char_parser@U?$chlit@D@spirit@boost@@@spirit@boost@@@23@@spirit@boost@@U?$chlit@D@23@@spirit@boost@@U?$kleene_star@U?$difference@U?$negated_char_parser@U?$chlit@D@spirit@boost@@@spirit@boost@@Uspace_parser@23@@spirit@boost@@@23@@spirit@boost@@V?$scanner@PBDU?$scanner_policies@Uiteration_policy@spirit@boost@@Umatch_policy@23@Uaction_policy@23@@spirit@boost@@@23@V?$match@Unil_t@spirit@boost@@@23@@impl@spirit@boost@@QAE@ABU?$alternative@U?$sequence@U?$sequence@U?$chlit@D@spirit@boost@@U?$kleene_star@U?$negated_char_parser@U?$chlit@D@spirit@boost@@@spirit@boost@@@23@@spirit@boost@@U?$chlit@D@23@@spirit@boost@@U?$kleene_star@U?$difference@U?$negated_char_parser@U?$chlit@D@spirit@boost@@@spirit@boost@@Uspace_parser@23@@spirit@boost@@@23@@23@@Z 0040f980 f i Core:ConsoleCommandLineParser.obj
 0001:0000e9aa       ?do_parse_virtual@?$concrete_parser@U?$alternative@U?$sequence@U?$sequence@U?$chlit@D@spirit@boost@@U?$kleene_star@U?$negated_char_parser@U?$chlit@D@spirit@boost@@@spirit@boost@@@23@@spirit@boost@@U?$chlit@D@23@@spirit@boost@@U?$kleene_star@U?$difference@U?$negated_char_parser@U?$chlit@D@spirit@boost@@@spirit@boost@@Uspace_parser@23@@spirit@boost@@@23@@spirit@boost@@V?$scanner@PBDU?$scanner_policies@Uiteration_policy@spirit@boost@@Umatch_policy@23@Uaction_policy@23@@spirit@boost@@@23@V?$match@Unil_t@spirit@boost@@@23@@impl@spirit@boost@@UBE?AV?$match@Unil_t@spirit@boost@@@34@ABV?$scanner@PBDU?$scanner_policies@Uiteration_policy@spirit@boost@@Umatch_policy@23@Uaction_policy@23@@spirit@boost@@@34@@Z 0040f9aa f i Core:ConsoleCommandLineParser.obj
 0001:0000e9c9       ?clone@?$concrete_parser@U?$alternative@U?$sequence@U?$sequence@U?$chlit@D@spirit@boost@@U?$kleene_star@U?$negated_char_parser@U?$chlit@D@spirit@boost@@@spirit@boost@@@23@@spirit@boost@@U?$chlit@D@23@@spirit@boost@@U?$kleene_star@U?$difference@U?$negated_char_parser@U?$chlit@D@spirit@boost@@@spirit@boost@@Uspace_parser@23@@spirit@boost@@@23@@spirit@boost@@V?$scanner@PBDU?$scanner_policies@Uiteration_policy@spirit@boost@@Umatch_policy@23@Uaction_policy@23@@spirit@boost@@@23@V?$match@Unil_t@spirit@boost@@@23@@impl@spirit@boost@@UBEPAU?$abstract_parser@V?$scanner@PBDU?$scanner_policies@Uiteration_policy@spirit@boost@@Umatch_policy@23@Uaction_policy@23@@spirit@boost@@@spirit@boost@@V?$match@Unil_t@spirit@boost@@@23@@234@XZ 0040f9c9 f i Core:ConsoleCommandLineParser.obj
 0001:0000ea1f       ??0?$concrete_parser@U?$alternative@V?$strlit@PBD@spirit@boost@@V123@@spirit@boost@@V?$scanner@PBDU?$scanner_policies@Uiteration_policy@spirit@boost@@Umatch_policy@23@Uaction_policy@23@@spirit@boost@@@23@V?$match@Unil_t@spirit@boost@@@23@@impl@spirit@boost@@QAE@ABU?$alternative@V?$strlit@PBD@spirit@boost@@V123@@23@@Z 0040fa1f f i Core:ConsoleCommandLineParser.obj
 0001:0000ea4f       ?do_parse_virtual@?$concrete_parser@U?$alternative@V?$strlit@PBD@spirit@boost@@V123@@spirit@boost@@V?$scanner@PBDU?$scanner_policies@Uiteration_policy@spirit@boost@@Umatch_policy@23@Uaction_policy@23@@spirit@boost@@@23@V?$match@Unil_t@spirit@boost@@@23@@impl@spirit@boost@@UBE?AV?$match@Unil_t@spirit@boost@@@34@ABV?$scanner@PBDU?$scanner_policies@Uiteration_policy@spirit@boost@@Umatch_policy@23@Uaction_policy@23@@spirit@boost@@@34@@Z 0040fa4f f i Core:ConsoleCommandLineParser.obj
 0001:0000ea6e       ?clone@?$concrete_parser@U?$alternative@V?$strlit@PBD@spirit@boost@@V123@@spirit@boost@@V?$scanner@PBDU?$scanner_policies@Uiteration_policy@spirit@boost@@Umatch_policy@23@Uaction_policy@23@@spirit@boost@@@23@V?$match@Unil_t@spirit@boost@@@23@@impl@spirit@boost@@UBEPAU?$abstract_parser@V?$scanner@PBDU?$scanner_policies@Uiteration_policy@spirit@boost@@Umatch_policy@23@Uaction_policy@23@@spirit@boost@@@spirit@boost@@V?$match@Unil_t@spirit@boost@@@23@@234@XZ 0040fa6e f i Core:ConsoleCommandLineParser.obj
 0001:0000eac4       ??0?$concrete_parser@U?$sequence@U?$alternative@U?$chlit@D@spirit@boost@@V?$strlit@PBD@23@@spirit@boost@@U?$kleene_star@Uanychar_parser@spirit@boost@@@23@@spirit@boost@@V?$scanner@PBDU?$scanner_policies@Uiteration_policy@spirit@boost@@Umatch_policy@23@Uaction_policy@23@@spirit@boost@@@23@V?$match@Unil_t@spirit@boost@@@23@@impl@spirit@boost@@QAE@ABU?$sequence@U?$alternative@U?$chlit@D@spirit@boost@@V?$strlit@PBD@23@@spirit@boost@@U?$kleene_star@Uanychar_parser@spirit@boost@@@23@@23@@Z 0040fac4 f i Core:ConsoleCommandLineParser.obj
 0001:0000eaf3       ?do_parse_virtual@?$concrete_parser@U?$sequence@U?$alternative@U?$chlit@D@spirit@boost@@V?$strlit@PBD@23@@spirit@boost@@U?$kleene_star@Uanychar_parser@spirit@boost@@@23@@spirit@boost@@V?$scanner@PBDU?$scanner_policies@Uiteration_policy@spirit@boost@@Umatch_policy@23@Uaction_policy@23@@spirit@boost@@@23@V?$match@Unil_t@spirit@boost@@@23@@impl@spirit@boost@@UBE?AV?$match@Unil_t@spirit@boost@@@34@ABV?$scanner@PBDU?$scanner_policies@Uiteration_policy@spirit@boost@@Umatch_policy@23@Uaction_policy@23@@spirit@boost@@@34@@Z 0040faf3 f i Core:ConsoleCommandLineParser.obj
 0001:0000eb12       ?clone@?$concrete_parser@U?$sequence@U?$alternative@U?$chlit@D@spirit@boost@@V?$strlit@PBD@23@@spirit@boost@@U?$kleene_star@Uanychar_parser@spirit@boost@@@23@@spirit@boost@@V?$scanner@PBDU?$scanner_policies@Uiteration_policy@spirit@boost@@Umatch_policy@23@Uaction_policy@23@@spirit@boost@@@23@V?$match@Unil_t@spirit@boost@@@23@@impl@spirit@boost@@UBEPAU?$abstract_parser@V?$scanner@PBDU?$scanner_policies@Uiteration_policy@spirit@boost@@Umatch_policy@23@Uaction_policy@23@@spirit@boost@@@spirit@boost@@V?$match@Unil_t@spirit@boost@@@23@@234@XZ 0040fb12 f i Core:ConsoleCommandLineParser.obj
 0001:0000eb68       ??_G?$concrete_parser@U?$alternative@V?$rule@V?$scanner@PBDU?$scanner_policies@Uiteration_policy@spirit@boost@@Umatch_policy@23@Uaction_policy@23@@spirit@boost@@@spirit@boost@@Uparser_context@23@Uparser_address_tag@23@@spirit@boost@@U?$sequence@V?$action@V?$rule@V?$scanner@PBDU?$scanner_policies@Uiteration_policy@spirit@boost@@Umatch_policy@23@Uaction_policy@23@@spirit@boost@@@spirit@boost@@Uparser_context@23@Uparser_address_tag@23@@spirit@boost@@V?$assign_actor@V?$basic_string@DV?$char_traits@D@_STL@@V?$allocator@D@2@@_STL@@@23@@spirit@boost@@U?$kleene_star@U?$sequence@U?$positive@Uspace_parser@spirit@boost@@@spirit@boost@@V?$rule@V?$scanner@PBDU?$scanner_policies@Uiteration_policy@spirit@boost@@Umatch_policy@23@Uaction_policy@23@@spirit@boost@@@spirit@boost@@Uparser_context@23@Uparser_address_tag@23@@23@@spirit@boost@@@23@@23@@spirit@boost@@V?$scanner@PBDU?$scanner_policies@Uiteration_policy@spirit@boost@@Umatch_policy@23@Uaction_policy@23@@spirit@boost@@@23@V?$match@Unil_t@spirit@boost@@@23@@impl@spirit@boost@@UAEPAXI@Z 0040fb68 f i Core:ConsoleCommandLineParser.obj
 0001:0000eb68       ??_E?$concrete_parser@U?$alternative@V?$rule@V?$scanner@PBDU?$scanner_policies@Uiteration_policy@spirit@boost@@Umatch_policy@23@Uaction_policy@23@@spirit@boost@@@spirit@boost@@Uparser_context@23@Uparser_address_tag@23@@spirit@boost@@U?$sequence@V?$action@V?$rule@V?$scanner@PBDU?$scanner_policies@Uiteration_policy@spirit@boost@@Umatch_policy@23@Uaction_policy@23@@spirit@boost@@@spirit@boost@@Uparser_context@23@Uparser_address_tag@23@@spirit@boost@@V?$assign_actor@V?$basic_string@DV?$char_traits@D@_STL@@V?$allocator@D@2@@_STL@@@23@@spirit@boost@@U?$kleene_star@U?$sequence@U?$positive@Uspace_parser@spirit@boost@@@spirit@boost@@V?$rule@V?$scanner@PBDU?$scanner_policies@Uiteration_policy@spirit@boost@@Umatch_policy@23@Uaction_policy@23@@spirit@boost@@@spirit@boost@@Uparser_context@23@Uparser_address_tag@23@@23@@spirit@boost@@@23@@23@@spirit@boost@@V?$scanner@PBDU?$scanner_policies@Uiteration_policy@spirit@boost@@Umatch_policy@23@Uaction_policy@23@@spirit@boost@@@23@V?$match@Unil_t@spirit@boost@@@23@@impl@spirit@boost@@UAEPAXI@Z 0040fb68 f i Core:ConsoleCommandLineParser.obj
 0001:0000eb91       ??1?$concrete_parser@U?$alternative@V?$rule@V?$scanner@PBDU?$scanner_policies@Uiteration_policy@spirit@boost@@Umatch_policy@23@Uaction_policy@23@@spirit@boost@@@spirit@boost@@Uparser_context@23@Uparser_address_tag@23@@spirit@boost@@U?$sequence@V?$action@V?$rule@V?$scanner@PBDU?$scanner_policies@Uiteration_policy@spirit@boost@@Umatch_policy@23@Uaction_policy@23@@spirit@boost@@@spirit@boost@@Uparser_context@23@Uparser_address_tag@23@@spirit@boost@@V?$assign_actor@V?$basic_string@DV?$char_traits@D@_STL@@V?$allocator@D@2@@_STL@@@23@@spirit@boost@@U?$kleene_star@U?$sequence@U?$positive@Uspace_parser@spirit@boost@@@spirit@boost@@V?$rule@V?$scanner@PBDU?$scanner_policies@Uiteration_policy@spirit@boost@@Umatch_policy@23@Uaction_policy@23@@spirit@boost@@@spirit@boost@@Uparser_context@23@Uparser_address_tag@23@@23@@spirit@boost@@@23@@23@@spirit@boost@@V?$scanner@PBDU?$scanner_policies@Uiteration_policy@spirit@boost@@Umatch_policy@23@Uaction_policy@23@@spirit@boost@@@23@V?$match@Unil_t@spirit@boost@@@23@@impl@spirit@boost@@UAE@XZ 0040fb91 f i Core:ConsoleCommandLineParser.obj
 0001:0000ebab       ??1?$abstract_parser@V?$scanner@PBDU?$scanner_policies@Uiteration_policy@spirit@boost@@Umatch_policy@23@Uaction_policy@23@@spirit@boost@@@spirit@boost@@V?$match@Unil_t@spirit@boost@@@23@@impl@spirit@boost@@UAE@XZ 0040fbab f i Core:ConsoleCommandLineParser.obj
 0001:0000ebbd       ??_G?$abstract_parser@V?$scanner@PBDU?$scanner_policies@Uiteration_policy@spirit@boost@@Umatch_policy@23@Uaction_policy@23@@spirit@boost@@@spirit@boost@@V?$match@Unil_t@spirit@boost@@@23@@impl@spirit@boost@@UAEPAXI@Z 0040fbbd f i Core:ConsoleCommandLineParser.obj
 0001:0000ebbd       ??_E?$abstract_parser@V?$scanner@PBDU?$scanner_policies@Uiteration_policy@spirit@boost@@Umatch_policy@23@Uaction_policy@23@@spirit@boost@@@spirit@boost@@V?$match@Unil_t@spirit@boost@@@23@@impl@spirit@boost@@UAEPAXI@Z 0040fbbd f i Core:ConsoleCommandLineParser.obj
 0001:0000ebe6       ??_E?$concrete_parser@U?$alternative@U?$alternative@U?$alternative@U?$alternative@V?$rule@V?$scanner@PBDU?$scanner_policies@Uiteration_policy@spirit@boost@@Umatch_policy@23@Uaction_policy@23@@spirit@boost@@@spirit@boost@@Uparser_context@23@Uparser_address_tag@23@@spirit@boost@@V123@@spirit@boost@@V?$rule@V?$scanner@PBDU?$scanner_policies@Uiteration_policy@spirit@boost@@Umatch_policy@23@Uaction_policy@23@@spirit@boost@@@spirit@boost@@Uparser_context@23@Uparser_address_tag@23@@23@@spirit@boost@@V?$action@V?$rule@V?$scanner@PBDU?$scanner_policies@Uiteration_policy@spirit@boost@@Umatch_policy@23@Uaction_policy@23@@spirit@boost@@@spirit@boost@@Uparser_context@23@Uparser_address_tag@23@@spirit@boost@@VAddBooleanToArgs@@@23@@spirit@boost@@V?$action@V?$rule@V?$scanner@PBDU?$scanner_policies@Uiteration_policy@spirit@boost@@Umatch_policy@23@Uaction_policy@23@@spirit@boost@@@spirit@boost@@Uparser_context@23@Uparser_address_tag@23@@spirit@boost@@VAddString@@@23@@spirit@boost@@V?$scanner@PBDU?$scanner_policies@Uiteration_policy@spirit@boost@@Umatch_policy@23@Uaction_policy@23@@spirit@boost@@@23@V?$match@Unil_t@spirit@boost@@@23@@impl@spirit@boost@@UAEPAXI@Z 0040fbe6 f i Core:ConsoleCommandLineParser.obj
 0001:0000ebe6       ??_G?$concrete_parser@U?$alternative@U?$alternative@U?$alternative@U?$alternative@V?$rule@V?$scanner@PBDU?$scanner_policies@Uiteration_policy@spirit@boost@@Umatch_policy@23@Uaction_policy@23@@spirit@boost@@@spirit@boost@@Uparser_context@23@Uparser_address_tag@23@@spirit@boost@@V123@@spirit@boost@@V?$rule@V?$scanner@PBDU?$scanner_policies@Uiteration_policy@spirit@boost@@Umatch_policy@23@Uaction_policy@23@@spirit@boost@@@spirit@boost@@Uparser_context@23@Uparser_address_tag@23@@23@@spirit@boost@@V?$action@V?$rule@V?$scanner@PBDU?$scanner_policies@Uiteration_policy@spirit@boost@@Umatch_policy@23@Uaction_policy@23@@spirit@boost@@@spirit@boost@@Uparser_context@23@Uparser_address_tag@23@@spirit@boost@@VAddBooleanToArgs@@@23@@spirit@boost@@V?$action@V?$rule@V?$scanner@PBDU?$scanner_policies@Uiteration_policy@spirit@boost@@Umatch_policy@23@Uaction_policy@23@@spirit@boost@@@spirit@boost@@Uparser_context@23@Uparser_address_tag@23@@spirit@boost@@VAddString@@@23@@spirit@boost@@V?$scanner@PBDU?$scanner_policies@Uiteration_policy@spirit@boost@@Umatch_policy@23@Uaction_policy@23@@spirit@boost@@@23@V?$match@Unil_t@spirit@boost@@@23@@impl@spirit@boost@@UAEPAXI@Z 0040fbe6 f i Core:ConsoleCommandLineParser.obj
 0001:0000ec0f       ??1?$concrete_parser@U?$alternative@U?$alternative@U?$alternative@U?$alternative@V?$rule@V?$scanner@PBDU?$scanner_policies@Uiteration_policy@spirit@boost@@Umatch_policy@23@Uaction_policy@23@@spirit@boost@@@spirit@boost@@Uparser_context@23@Uparser_address_tag@23@@spirit@boost@@V123@@spirit@boost@@V?$rule@V?$scanner@PBDU?$scanner_policies@Uiteration_policy@spirit@boost@@Umatch_policy@23@Uaction_policy@23@@spirit@boost@@@spirit@boost@@Uparser_context@23@Uparser_address_tag@23@@23@@spirit@boost@@V?$action@V?$rule@V?$scanner@PBDU?$scanner_policies@Uiteration_policy@spirit@boost@@Umatch_policy@23@Uaction_policy@23@@spirit@boost@@@spirit@boost@@Uparser_context@23@Uparser_address_tag@23@@spirit@boost@@VAddBooleanToArgs@@@23@@spirit@boost@@V?$action@V?$rule@V?$scanner@PBDU?$scanner_policies@Uiteration_policy@spirit@boost@@Umatch_policy@23@Uaction_policy@23@@spirit@boost@@@spirit@boost@@Uparser_context@23@Uparser_address_tag@23@@spirit@boost@@VAddString@@@23@@spirit@boost@@V?$scanner@PBDU?$scanner_policies@Uiteration_policy@spirit@boost@@Umatch_policy@23@Uaction_policy@23@@spirit@boost@@@23@V?$match@Unil_t@spirit@boost@@@23@@impl@spirit@boost@@UAE@XZ 0040fc0f f i Core:ConsoleCommandLineParser.obj
 0001:0000ec29       ??_G?$concrete_parser@U?$contiguous@U?$sequence@U?$positive@U?$alternative@Ualpha_parser@spirit@boost@@U?$chlit@D@23@@spirit@boost@@@spirit@boost@@U?$kleene_star@U?$alternative@Ualnum_parser@spirit@boost@@U?$chlit@D@23@@spirit@boost@@@23@@spirit@boost@@@spirit@boost@@V?$scanner@PBDU?$scanner_policies@Uiteration_policy@spirit@boost@@Umatch_policy@23@Uaction_policy@23@@spirit@boost@@@23@V?$match@Unil_t@spirit@boost@@@23@@impl@spirit@boost@@UAEPAXI@Z 0040fc29 f i Core:ConsoleCommandLineParser.obj
 0001:0000ec29       ??_E?$concrete_parser@U?$contiguous@U?$sequence@U?$positive@U?$alternative@Ualpha_parser@spirit@boost@@U?$chlit@D@23@@spirit@boost@@@spirit@boost@@U?$kleene_star@U?$alternative@Ualnum_parser@spirit@boost@@U?$chlit@D@23@@spirit@boost@@@23@@spirit@boost@@@spirit@boost@@V?$scanner@PBDU?$scanner_policies@Uiteration_policy@spirit@boost@@Umatch_policy@23@Uaction_policy@23@@spirit@boost@@@23@V?$match@Unil_t@spirit@boost@@@23@@impl@spirit@boost@@UAEPAXI@Z 0040fc29 f i Core:ConsoleCommandLineParser.obj
 0001:0000ec52       ??1?$concrete_parser@U?$contiguous@U?$sequence@U?$positive@U?$alternative@Ualpha_parser@spirit@boost@@U?$chlit@D@23@@spirit@boost@@@spirit@boost@@U?$kleene_star@U?$alternative@Ualnum_parser@spirit@boost@@U?$chlit@D@23@@spirit@boost@@@23@@spirit@boost@@@spirit@boost@@V?$scanner@PBDU?$scanner_policies@Uiteration_policy@spirit@boost@@Umatch_policy@23@Uaction_policy@23@@spirit@boost@@@23@V?$match@Unil_t@spirit@boost@@@23@@impl@spirit@boost@@UAE@XZ 0040fc52 f i Core:ConsoleCommandLineParser.obj
 0001:0000ec6c       ??_E?$concrete_parser@U?$contiguous@V?$action@U?$int_parser@H$09$00$0?0@spirit@boost@@VAddIntegerToArgs@@@spirit@boost@@@spirit@boost@@V?$scanner@PBDU?$scanner_policies@Uiteration_policy@spirit@boost@@Umatch_policy@23@Uaction_policy@23@@spirit@boost@@@23@V?$match@Unil_t@spirit@boost@@@23@@impl@spirit@boost@@UAEPAXI@Z 0040fc6c f i Core:ConsoleCommandLineParser.obj
 0001:0000ec6c       ??_G?$concrete_parser@U?$contiguous@V?$action@U?$int_parser@H$09$00$0?0@spirit@boost@@VAddIntegerToArgs@@@spirit@boost@@@spirit@boost@@V?$scanner@PBDU?$scanner_policies@Uiteration_policy@spirit@boost@@Umatch_policy@23@Uaction_policy@23@@spirit@boost@@@23@V?$match@Unil_t@spirit@boost@@@23@@impl@spirit@boost@@UAEPAXI@Z 0040fc6c f i Core:ConsoleCommandLineParser.obj
 0001:0000ec95       ??1?$concrete_parser@U?$contiguous@V?$action@U?$int_parser@H$09$00$0?0@spirit@boost@@VAddIntegerToArgs@@@spirit@boost@@@spirit@boost@@V?$scanner@PBDU?$scanner_policies@Uiteration_policy@spirit@boost@@Umatch_policy@23@Uaction_policy@23@@spirit@boost@@@23@V?$match@Unil_t@spirit@boost@@@23@@impl@spirit@boost@@UAE@XZ 0040fc95 f i Core:ConsoleCommandLineParser.obj
 0001:0000ecaf       ??_G?$concrete_parser@U?$contiguous@V?$action@U?$uint_parser@I$09$00$0?0@spirit@boost@@VAddUnsignedIntegerToArgs@@@spirit@boost@@@spirit@boost@@V?$scanner@PBDU?$scanner_policies@Uiteration_policy@spirit@boost@@Umatch_policy@23@Uaction_policy@23@@spirit@boost@@@23@V?$match@Unil_t@spirit@boost@@@23@@impl@spirit@boost@@UAEPAXI@Z 0040fcaf f i Core:ConsoleCommandLineParser.obj
 0001:0000ecaf       ??_E?$concrete_parser@U?$contiguous@V?$action@U?$uint_parser@I$09$00$0?0@spirit@boost@@VAddUnsignedIntegerToArgs@@@spirit@boost@@@spirit@boost@@V?$scanner@PBDU?$scanner_policies@Uiteration_policy@spirit@boost@@Umatch_policy@23@Uaction_policy@23@@spirit@boost@@@23@V?$match@Unil_t@spirit@boost@@@23@@impl@spirit@boost@@UAEPAXI@Z 0040fcaf f i Core:ConsoleCommandLineParser.obj
 0001:0000ecd8       ??1?$concrete_parser@U?$contiguous@V?$action@U?$uint_parser@I$09$00$0?0@spirit@boost@@VAddUnsignedIntegerToArgs@@@spirit@boost@@@spirit@boost@@V?$scanner@PBDU?$scanner_policies@Uiteration_policy@spirit@boost@@Umatch_policy@23@Uaction_policy@23@@spirit@boost@@@23@V?$match@Unil_t@spirit@boost@@@23@@impl@spirit@boost@@UAE@XZ 0040fcd8 f i Core:ConsoleCommandLineParser.obj
 0001:0000ecf2       ??_G?$concrete_parser@U?$contiguous@V?$action@U?$real_parser@NU?$strict_real_parser_policies@N@spirit@boost@@@spirit@boost@@VAddFloatToArgs@@@spirit@boost@@@spirit@boost@@V?$scanner@PBDU?$scanner_policies@Uiteration_policy@spirit@boost@@Umatch_policy@23@Uaction_policy@23@@spirit@boost@@@23@V?$match@Unil_t@spirit@boost@@@23@@impl@spirit@boost@@UAEPAXI@Z 0040fcf2 f i Core:ConsoleCommandLineParser.obj
 0001:0000ecf2       ??_E?$concrete_parser@U?$contiguous@V?$action@U?$real_parser@NU?$strict_real_parser_policies@N@spirit@boost@@@spirit@boost@@VAddFloatToArgs@@@spirit@boost@@@spirit@boost@@V?$scanner@PBDU?$scanner_policies@Uiteration_policy@spirit@boost@@Umatch_policy@23@Uaction_policy@23@@spirit@boost@@@23@V?$match@Unil_t@spirit@boost@@@23@@impl@spirit@boost@@UAEPAXI@Z 0040fcf2 f i Core:ConsoleCommandLineParser.obj
 0001:0000ed1b       ??1?$concrete_parser@U?$contiguous@V?$action@U?$real_parser@NU?$strict_real_parser_policies@N@spirit@boost@@@spirit@boost@@VAddFloatToArgs@@@spirit@boost@@@spirit@boost@@V?$scanner@PBDU?$scanner_policies@Uiteration_policy@spirit@boost@@Umatch_policy@23@Uaction_policy@23@@spirit@boost@@@23@V?$match@Unil_t@spirit@boost@@@23@@impl@spirit@boost@@UAE@XZ 0040fd1b f i Core:ConsoleCommandLineParser.obj
 0001:0000ed35       ??_E?$concrete_parser@U?$alternative@U?$sequence@U?$sequence@U?$chlit@D@spirit@boost@@U?$kleene_star@U?$negated_char_parser@U?$chlit@D@spirit@boost@@@spirit@boost@@@23@@spirit@boost@@U?$chlit@D@23@@spirit@boost@@U?$kleene_star@U?$difference@U?$negated_char_parser@U?$chlit@D@spirit@boost@@@spirit@boost@@Uspace_parser@23@@spirit@boost@@@23@@spirit@boost@@V?$scanner@PBDU?$scanner_policies@Uiteration_policy@spirit@boost@@Umatch_policy@23@Uaction_policy@23@@spirit@boost@@@23@V?$match@Unil_t@spirit@boost@@@23@@impl@spirit@boost@@UAEPAXI@Z 0040fd35 f i Core:ConsoleCommandLineParser.obj
 0001:0000ed35       ??_G?$concrete_parser@U?$alternative@U?$sequence@U?$sequence@U?$chlit@D@spirit@boost@@U?$kleene_star@U?$negated_char_parser@U?$chlit@D@spirit@boost@@@spirit@boost@@@23@@spirit@boost@@U?$chlit@D@23@@spirit@boost@@U?$kleene_star@U?$difference@U?$negated_char_parser@U?$chlit@D@spirit@boost@@@spirit@boost@@Uspace_parser@23@@spirit@boost@@@23@@spirit@boost@@V?$scanner@PBDU?$scanner_policies@Uiteration_policy@spirit@boost@@Umatch_policy@23@Uaction_policy@23@@spirit@boost@@@23@V?$match@Unil_t@spirit@boost@@@23@@impl@spirit@boost@@UAEPAXI@Z 0040fd35 f i Core:ConsoleCommandLineParser.obj
 0001:0000ed5e       ??1?$concrete_parser@U?$alternative@U?$sequence@U?$sequence@U?$chlit@D@spirit@boost@@U?$kleene_star@U?$negated_char_parser@U?$chlit@D@spirit@boost@@@spirit@boost@@@23@@spirit@boost@@U?$chlit@D@23@@spirit@boost@@U?$kleene_star@U?$difference@U?$negated_char_parser@U?$chlit@D@spirit@boost@@@spirit@boost@@Uspace_parser@23@@spirit@boost@@@23@@spirit@boost@@V?$scanner@PBDU?$scanner_policies@Uiteration_policy@spirit@boost@@Umatch_policy@23@Uaction_policy@23@@spirit@boost@@@23@V?$match@Unil_t@spirit@boost@@@23@@impl@spirit@boost@@UAE@XZ 0040fd5e f i Core:ConsoleCommandLineParser.obj
 0001:0000ed78       ??_G?$concrete_parser@U?$alternative@V?$strlit@PBD@spirit@boost@@V123@@spirit@boost@@V?$scanner@PBDU?$scanner_policies@Uiteration_policy@spirit@boost@@Umatch_policy@23@Uaction_policy@23@@spirit@boost@@@23@V?$match@Unil_t@spirit@boost@@@23@@impl@spirit@boost@@UAEPAXI@Z 0040fd78 f i Core:ConsoleCommandLineParser.obj
 0001:0000ed78       ??_E?$concrete_parser@U?$alternative@V?$strlit@PBD@spirit@boost@@V123@@spirit@boost@@V?$scanner@PBDU?$scanner_policies@Uiteration_policy@spirit@boost@@Umatch_policy@23@Uaction_policy@23@@spirit@boost@@@23@V?$match@Unil_t@spirit@boost@@@23@@impl@spirit@boost@@UAEPAXI@Z 0040fd78 f i Core:ConsoleCommandLineParser.obj
 0001:0000eda1       ??1?$concrete_parser@U?$alternative@V?$strlit@PBD@spirit@boost@@V123@@spirit@boost@@V?$scanner@PBDU?$scanner_policies@Uiteration_policy@spirit@boost@@Umatch_policy@23@Uaction_policy@23@@spirit@boost@@@23@V?$match@Unil_t@spirit@boost@@@23@@impl@spirit@boost@@UAE@XZ 0040fda1 f i Core:ConsoleCommandLineParser.obj
 0001:0000edbb       ??_G?$concrete_parser@U?$sequence@U?$alternative@U?$chlit@D@spirit@boost@@V?$strlit@PBD@23@@spirit@boost@@U?$kleene_star@Uanychar_parser@spirit@boost@@@23@@spirit@boost@@V?$scanner@PBDU?$scanner_policies@Uiteration_policy@spirit@boost@@Umatch_policy@23@Uaction_policy@23@@spirit@boost@@@23@V?$match@Unil_t@spirit@boost@@@23@@impl@spirit@boost@@UAEPAXI@Z 0040fdbb f i Core:ConsoleCommandLineParser.obj
 0001:0000edbb       ??_E?$concrete_parser@U?$sequence@U?$alternative@U?$chlit@D@spirit@boost@@V?$strlit@PBD@23@@spirit@boost@@U?$kleene_star@Uanychar_parser@spirit@boost@@@23@@spirit@boost@@V?$scanner@PBDU?$scanner_policies@Uiteration_policy@spirit@boost@@Umatch_policy@23@Uaction_policy@23@@spirit@boost@@@23@V?$match@Unil_t@spirit@boost@@@23@@impl@spirit@boost@@UAEPAXI@Z 0040fdbb f i Core:ConsoleCommandLineParser.obj
 0001:0000ede4       ??1?$concrete_parser@U?$sequence@U?$alternative@U?$chlit@D@spirit@boost@@V?$strlit@PBD@23@@spirit@boost@@U?$kleene_star@Uanychar_parser@spirit@boost@@@23@@spirit@boost@@V?$scanner@PBDU?$scanner_policies@Uiteration_policy@spirit@boost@@Umatch_policy@23@Uaction_policy@23@@spirit@boost@@@23@V?$match@Unil_t@spirit@boost@@@23@@impl@spirit@boost@@UAE@XZ 0040fde4 f i Core:ConsoleCommandLineParser.obj
 0001:0000edfe       ?expired@?$weak_ptr@U?$grammar_helper@U?$grammar@VConsoleGrammar@@Uparser_context@spirit@boost@@@spirit@boost@@VConsoleGrammar@@V?$scanner@PBDU?$scanner_policies@Uiteration_policy@spirit@boost@@Umatch_policy@23@Uaction_policy@23@@spirit@boost@@@23@@impl@spirit@boost@@@boost@@QBE_NXZ 0040fdfe f i Core:ConsoleCommandLineParser.obj
 0001:0000ee17       ?use_count@weak_count@detail@boost@@QBEJXZ 0040fe17 f i Core:ConsoleCommandLineParser.obj
 0001:0000ee3f       ?use_count@sp_counted_base@detail@boost@@QBEJXZ 0040fe3f f i Core:ConsoleCommandLineParser.obj
 0001:0000ee6d       ??0?$unary@V?$rule@V?$scanner@PBDU?$scanner_policies@Uiteration_policy@spirit@boost@@Umatch_policy@23@Uaction_policy@23@@spirit@boost@@@spirit@boost@@Uparser_context@23@Uparser_address_tag@23@@spirit@boost@@U?$parser@V?$action@V?$rule@V?$scanner@PBDU?$scanner_policies@Uiteration_policy@spirit@boost@@Umatch_policy@23@Uaction_policy@23@@spirit@boost@@@spirit@boost@@Uparser_context@23@Uparser_address_tag@23@@spirit@boost@@VAddString@@@spirit@boost@@@23@@spirit@boost@@QAE@ABV?$rule@V?$scanner@PBDU?$scanner_policies@Uiteration_policy@spirit@boost@@Umatch_policy@23@Uaction_policy@23@@spirit@boost@@@spirit@boost@@Uparser_context@23@Uparser_address_tag@23@@12@@Z 0040fe6d f i Core:ConsoleCommandLineParser.obj
 0001:0000ee6d       ??0?$unary@V?$rule@V?$scanner@PBDU?$scanner_policies@Uiteration_policy@spirit@boost@@Umatch_policy@23@Uaction_policy@23@@spirit@boost@@@spirit@boost@@Uparser_context@23@Uparser_address_tag@23@@spirit@boost@@U?$parser@V?$action@V?$rule@V?$scanner@PBDU?$scanner_policies@Uiteration_policy@spirit@boost@@Umatch_policy@23@Uaction_policy@23@@spirit@boost@@@spirit@boost@@Uparser_context@23@Uparser_address_tag@23@@spirit@boost@@VAddBooleanToArgs@@@spirit@boost@@@23@@spirit@boost@@QAE@ABV?$rule@V?$scanner@PBDU?$scanner_policies@Uiteration_policy@spirit@boost@@Umatch_policy@23@Uaction_policy@23@@spirit@boost@@@spirit@boost@@Uparser_context@23@Uparser_address_tag@23@@12@@Z 0040fe6d f i Core:ConsoleCommandLineParser.obj
 0001:0000ee6d       ??0?$unary@V?$rule@V?$scanner@PBDU?$scanner_policies@Uiteration_policy@spirit@boost@@Umatch_policy@23@Uaction_policy@23@@spirit@boost@@@spirit@boost@@Uparser_context@23@Uparser_address_tag@23@@spirit@boost@@U?$parser@V?$action@V?$rule@V?$scanner@PBDU?$scanner_policies@Uiteration_policy@spirit@boost@@Umatch_policy@23@Uaction_policy@23@@spirit@boost@@@spirit@boost@@Uparser_context@23@Uparser_address_tag@23@@spirit@boost@@V?$assign_actor@V?$basic_string@DV?$char_traits@D@_STL@@V?$allocator@D@2@@_STL@@@23@@spirit@boost@@@23@@spirit@boost@@QAE@ABV?$rule@V?$scanner@PBDU?$scanner_policies@Uiteration_policy@spirit@boost@@Umatch_policy@23@Uaction_policy@23@@spirit@boost@@@spirit@boost@@Uparser_context@23@Uparser_address_tag@23@@12@@Z 0040fe6d f i Core:ConsoleCommandLineParser.obj
 0001:0000ee86       ??0?$unary@U?$real_parser@NU?$strict_real_parser_policies@N@spirit@boost@@@spirit@boost@@U?$parser@V?$action@U?$real_parser@NU?$strict_real_parser_policies@N@spirit@boost@@@spirit@boost@@VAddFloatToArgs@@@spirit@boost@@@23@@spirit@boost@@QAE@ABU?$real_parser@NU?$strict_real_parser_policies@N@spirit@boost@@@12@@Z 0040fe86 f i Core:ConsoleCommandLineParser.obj
 0001:0000ee86       ??0?$unary@U?$uint_parser@I$09$00$0?0@spirit@boost@@U?$parser@V?$action@U?$uint_parser@I$09$00$0?0@spirit@boost@@VAddUnsignedIntegerToArgs@@@spirit@boost@@@23@@spirit@boost@@QAE@ABU?$uint_parser@I$09$00$0?0@12@@Z 0040fe86 f i Core:ConsoleCommandLineParser.obj
 0001:0000ee86       ??0?$unary@Uanychar_parser@spirit@boost@@U?$parser@U?$kleene_star@Uanychar_parser@spirit@boost@@@spirit@boost@@@23@@spirit@boost@@QAE@ABUanychar_parser@12@@Z 0040fe86 f i Core:ConsoleCommandLineParser.obj
 0001:0000ee86       ??0?$unary@U?$int_parser@H$09$00$0?0@spirit@boost@@U?$parser@V?$action@U?$int_parser@H$09$00$0?0@spirit@boost@@VAddIntegerToArgs@@@spirit@boost@@@23@@spirit@boost@@QAE@ABU?$int_parser@H$09$00$0?0@12@@Z 0040fe86 f i Core:ConsoleCommandLineParser.obj
 0001:0000ee86       ??0?$unary@Uspace_parser@spirit@boost@@U?$parser@U?$positive@Uspace_parser@spirit@boost@@@spirit@boost@@@23@@spirit@boost@@QAE@ABUspace_parser@12@@Z 0040fe86 f i Core:ConsoleCommandLineParser.obj
 0001:0000ee9f       ??0?$binary@U?$positive@Uspace_parser@spirit@boost@@@spirit@boost@@V?$rule@V?$scanner@PBDU?$scanner_policies@Uiteration_policy@spirit@boost@@Umatch_policy@23@Uaction_policy@23@@spirit@boost@@@spirit@boost@@Uparser_context@23@Uparser_address_tag@23@@23@U?$parser@U?$sequence@U?$positive@Uspace_parser@spirit@boost@@@spirit@boost@@V?$rule@V?$scanner@PBDU?$scanner_policies@Uiteration_policy@spirit@boost@@Umatch_policy@23@Uaction_policy@23@@spirit@boost@@@spirit@boost@@Uparser_context@23@Uparser_address_tag@23@@23@@spirit@boost@@@23@@spirit@boost@@QAE@ABU?$positive@Uspace_parser@spirit@boost@@@12@ABV?$rule@V?$scanner@PBDU?$scanner_policies@Uiteration_policy@spirit@boost@@Umatch_policy@23@Uaction_policy@23@@spirit@boost@@@spirit@boost@@Uparser_context@23@Uparser_address_tag@23@@12@@Z 0040fe9f f i Core:ConsoleCommandLineParser.obj
 0001:0000eec5       ??0?$unary@V?$action@U?$uint_parser@I$09$00$0?0@spirit@boost@@VAddUnsignedIntegerToArgs@@@spirit@boost@@U?$parser@U?$contiguous@V?$action@U?$uint_parser@I$09$00$0?0@spirit@boost@@VAddUnsignedIntegerToArgs@@@spirit@boost@@@spirit@boost@@@23@@spirit@boost@@QAE@ABV?$action@U?$uint_parser@I$09$00$0?0@spirit@boost@@VAddUnsignedIntegerToArgs@@@12@@Z 0040fec5 f i Core:ConsoleCommandLineParser.obj
 0001:0000eec5       ??0?$unary@U?$sequence@U?$positive@Uspace_parser@spirit@boost@@@spirit@boost@@V?$rule@V?$scanner@PBDU?$scanner_policies@Uiteration_policy@spirit@boost@@Umatch_policy@23@Uaction_policy@23@@spirit@boost@@@spirit@boost@@Uparser_context@23@Uparser_address_tag@23@@23@@spirit@boost@@U?$parser@U?$kleene_star@U?$sequence@U?$positive@Uspace_parser@spirit@boost@@@spirit@boost@@V?$rule@V?$scanner@PBDU?$scanner_policies@Uiteration_policy@spirit@boost@@Umatch_policy@23@Uaction_policy@23@@spirit@boost@@@spirit@boost@@Uparser_context@23@Uparser_address_tag@23@@23@@spirit@boost@@@spirit@boost@@@23@@spirit@boost@@QAE@ABU?$sequence@U?$positive@Uspace_parser@spirit@boost@@@spirit@boost@@V?$rule@V?$scanner@PBDU?$scanner_policies@Uiteration_policy@spirit@boost@@Umatch_policy@23@Uaction_policy@23@@spirit@boost@@@spirit@boost@@Uparser_context@23@Uparser_address_tag@23@@23@@12@@Z 0040fec5 f i Core:ConsoleCommandLineParser.obj
 0001:0000eec5       ??0?$unary@V?$action@U?$real_parser@NU?$strict_real_parser_policies@N@spirit@boost@@@spirit@boost@@VAddFloatToArgs@@@spirit@boost@@U?$parser@U?$contiguous@V?$action@U?$real_parser@NU?$strict_real_parser_policies@N@spirit@boost@@@spirit@boost@@VAddFloatToArgs@@@spirit@boost@@@spirit@boost@@@23@@spirit@boost@@QAE@ABV?$action@U?$real_parser@NU?$strict_real_parser_policies@N@spirit@boost@@@spirit@boost@@VAddFloatToArgs@@@12@@Z 0040fec5 f i Core:ConsoleCommandLineParser.obj
 0001:0000eec5       ??0?$unary@V?$action@U?$int_parser@H$09$00$0?0@spirit@boost@@VAddIntegerToArgs@@@spirit@boost@@U?$parser@U?$contiguous@V?$action@U?$int_parser@H$09$00$0?0@spirit@boost@@VAddIntegerToArgs@@@spirit@boost@@@spirit@boost@@@23@@spirit@boost@@QAE@ABV?$action@U?$int_parser@H$09$00$0?0@spirit@boost@@VAddIntegerToArgs@@@12@@Z 0040fec5 f i Core:ConsoleCommandLineParser.obj
 0001:0000eede       ??0?$binary@V?$action@V?$rule@V?$scanner@PBDU?$scanner_policies@Uiteration_policy@spirit@boost@@Umatch_policy@23@Uaction_policy@23@@spirit@boost@@@spirit@boost@@Uparser_context@23@Uparser_address_tag@23@@spirit@boost@@V?$assign_actor@V?$basic_string@DV?$char_traits@D@_STL@@V?$allocator@D@2@@_STL@@@23@@spirit@boost@@U?$kleene_star@U?$sequence@U?$positive@Uspace_parser@spirit@boost@@@spirit@boost@@V?$rule@V?$scanner@PBDU?$scanner_policies@Uiteration_policy@spirit@boost@@Umatch_policy@23@Uaction_policy@23@@spirit@boost@@@spirit@boost@@Uparser_context@23@Uparser_address_tag@23@@23@@spirit@boost@@@23@U?$parser@U?$sequence@V?$action@V?$rule@V?$scanner@PBDU?$scanner_policies@Uiteration_policy@spirit@boost@@Umatch_policy@23@Uaction_policy@23@@spirit@boost@@@spirit@boost@@Uparser_context@23@Uparser_address_tag@23@@spirit@boost@@V?$assign_actor@V?$basic_string@DV?$char_traits@D@_STL@@V?$allocator@D@2@@_STL@@@23@@spirit@boost@@U?$kleene_star@U?$sequence@U?$positive@Uspace_parser@spirit@boost@@@spirit@boost@@V?$rule@V?$scanner@PBDU?$scanner_policies@Uiteration_policy@spirit@boost@@Umatch_policy@23@Uaction_policy@23@@spirit@boost@@@spirit@boost@@Uparser_context@23@Uparser_address_tag@23@@23@@spirit@boost@@@23@@spirit@boost@@@23@@spirit@boost@@QAE@ABV?$action@V?$rule@V?$scanner@PBDU?$scanner_policies@Uiteration_policy@spirit@boost@@Umatch_policy@23@Uaction_policy@23@@spirit@boost@@@spirit@boost@@Uparser_context@23@Uparser_address_tag@23@@spirit@boost@@V?$assign_actor@V?$basic_string@DV?$char_traits@D@_STL@@V?$allocator@D@2@@_STL@@@23@@12@ABU?$kleene_star@U?$sequence@U?$positive@Uspace_parser@spirit@boost@@@spirit@boost@@V?$rule@V?$scanner@PBDU?$scanner_policies@Uiteration_policy@spirit@boost@@Umatch_policy@23@Uaction_policy@23@@spirit@boost@@@spirit@boost@@Uparser_context@23@Uparser_address_tag@23@@23@@spirit@boost@@@12@@Z 0040fede f i Core:ConsoleCommandLineParser.obj
 0001:0000ef04       ??0?$binary@V?$rule@V?$scanner@PBDU?$scanner_policies@Uiteration_policy@spirit@boost@@Umatch_policy@23@Uaction_policy@23@@spirit@boost@@@spirit@boost@@Uparser_context@23@Uparser_address_tag@23@@spirit@boost@@U?$sequence@V?$action@V?$rule@V?$scanner@PBDU?$scanner_policies@Uiteration_policy@spirit@boost@@Umatch_policy@23@Uaction_policy@23@@spirit@boost@@@spirit@boost@@Uparser_context@23@Uparser_address_tag@23@@spirit@boost@@V?$assign_actor@V?$basic_string@DV?$char_traits@D@_STL@@V?$allocator@D@2@@_STL@@@23@@spirit@boost@@U?$kleene_star@U?$sequence@U?$positive@Uspace_parser@spirit@boost@@@spirit@boost@@V?$rule@V?$scanner@PBDU?$scanner_policies@Uiteration_policy@spirit@boost@@Umatch_policy@23@Uaction_policy@23@@spirit@boost@@@spirit@boost@@Uparser_context@23@Uparser_address_tag@23@@23@@spirit@boost@@@23@@23@U?$parser@U?$alternative@V?$rule@V?$scanner@PBDU?$scanner_policies@Uiteration_policy@spirit@boost@@Umatch_policy@23@Uaction_policy@23@@spirit@boost@@@spirit@boost@@Uparser_context@23@Uparser_address_tag@23@@spirit@boost@@U?$sequence@V?$action@V?$rule@V?$scanner@PBDU?$scanner_policies@Uiteration_policy@spirit@boost@@Umatch_policy@23@Uaction_policy@23@@spirit@boost@@@spirit@boost@@Uparser_context@23@Uparser_address_tag@23@@spirit@boost@@V?$assign_actor@V?$basic_string@DV?$char_traits@D@_STL@@V?$allocator@D@2@@_STL@@@23@@spirit@boost@@U?$kleene_star@U?$sequence@U?$positive@Uspace_parser@spirit@boost@@@spirit@boost@@V?$rule@V?$scanner@PBDU?$scanner_policies@Uiteration_policy@spirit@boost@@Umatch_policy@23@Uaction_policy@23@@spirit@boost@@@spirit@boost@@Uparser_context@23@Uparser_address_tag@23@@23@@spirit@boost@@@23@@23@@spirit@boost@@@23@@spirit@boost@@QAE@ABV?$rule@V?$scanner@PBDU?$scanner_policies@Uiteration_policy@spirit@boost@@Umatch_policy@23@Uaction_policy@23@@spirit@boost@@@spirit@boost@@Uparser_context@23@Uparser_address_tag@23@@12@ABU?$sequence@V?$action@V?$rule@V?$scanner@PBDU?$scanner_policies@Uiteration_policy@spirit@boost@@Umatch_policy@23@Uaction_policy@23@@spirit@boost@@@spirit@boost@@Uparser_context@23@Uparser_address_tag@23@@spirit@boost@@V?$assign_actor@V?$basic_string@DV?$char_traits@D@_STL@@V?$allocator@D@2@@_STL@@@23@@spirit@boost@@U?$kleene_star@U?$sequence@U?$positive@Uspace_parser@spirit@boost@@@spirit@boost@@V?$rule@V?$scanner@PBDU?$scanner_policies@Uiteration_policy@spirit@boost@@Umatch_policy@23@Uaction_policy@23@@spirit@boost@@@spirit@boost@@Uparser_context@23@Uparser_address_tag@23@@23@@spirit@boost@@@23@@12@@Z 0040ff04 f i Core:ConsoleCommandLineParser.obj
 0001:0000ef2b       ??0?$binary@V?$rule@V?$scanner@PBDU?$scanner_policies@Uiteration_policy@spirit@boost@@Umatch_policy@23@Uaction_policy@23@@spirit@boost@@@spirit@boost@@Uparser_context@23@Uparser_address_tag@23@@spirit@boost@@V123@U?$parser@U?$alternative@V?$rule@V?$scanner@PBDU?$scanner_policies@Uiteration_policy@spirit@boost@@Umatch_policy@23@Uaction_policy@23@@spirit@boost@@@spirit@boost@@Uparser_context@23@Uparser_address_tag@23@@spirit@boost@@V123@@spirit@boost@@@23@@spirit@boost@@QAE@ABV?$rule@V?$scanner@PBDU?$scanner_policies@Uiteration_policy@spirit@boost@@Umatch_policy@23@Uaction_policy@23@@spirit@boost@@@spirit@boost@@Uparser_context@23@Uparser_address_tag@23@@12@0@Z 0040ff2b f i Core:ConsoleCommandLineParser.obj
 0001:0000ef51       ??0?$binary@U?$alternative@V?$rule@V?$scanner@PBDU?$scanner_policies@Uiteration_policy@spirit@boost@@Umatch_policy@23@Uaction_policy@23@@spirit@boost@@@spirit@boost@@Uparser_context@23@Uparser_address_tag@23@@spirit@boost@@V123@@spirit@boost@@V?$rule@V?$scanner@PBDU?$scanner_policies@Uiteration_policy@spirit@boost@@Umatch_policy@23@Uaction_policy@23@@spirit@boost@@@spirit@boost@@Uparser_context@23@Uparser_address_tag@23@@23@U?$parser@U?$alternative@U?$alternative@V?$rule@V?$scanner@PBDU?$scanner_policies@Uiteration_policy@spirit@boost@@Umatch_policy@23@Uaction_policy@23@@spirit@boost@@@spirit@boost@@Uparser_context@23@Uparser_address_tag@23@@spirit@boost@@V123@@spirit@boost@@V?$rule@V?$scanner@PBDU?$scanner_policies@Uiteration_policy@spirit@boost@@Umatch_policy@23@Uaction_policy@23@@spirit@boost@@@spirit@boost@@Uparser_context@23@Uparser_address_tag@23@@23@@spirit@boost@@@23@@spirit@boost@@QAE@ABU?$alternative@V?$rule@V?$scanner@PBDU?$scanner_policies@Uiteration_policy@spirit@boost@@Umatch_policy@23@Uaction_policy@23@@spirit@boost@@@spirit@boost@@Uparser_context@23@Uparser_address_tag@23@@spirit@boost@@V123@@12@ABV?$rule@V?$scanner@PBDU?$scanner_policies@Uiteration_policy@spirit@boost@@Umatch_policy@23@Uaction_policy@23@@spirit@boost@@@spirit@boost@@Uparser_context@23@Uparser_address_tag@23@@12@@Z 0040ff51 f i Core:ConsoleCommandLineParser.obj
 0001:0000ef77       ??0?$binary@U?$alternative@U?$alternative@V?$rule@V?$scanner@PBDU?$scanner_policies@Uiteration_policy@spirit@boost@@Umatch_policy@23@Uaction_policy@23@@spirit@boost@@@spirit@boost@@Uparser_context@23@Uparser_address_tag@23@@spirit@boost@@V123@@spirit@boost@@V?$rule@V?$scanner@PBDU?$scanner_policies@Uiteration_policy@spirit@boost@@Umatch_policy@23@Uaction_policy@23@@spirit@boost@@@spirit@boost@@Uparser_context@23@Uparser_address_tag@23@@23@@spirit@boost@@V?$action@V?$rule@V?$scanner@PBDU?$scanner_policies@Uiteration_policy@spirit@boost@@Umatch_policy@23@Uaction_policy@23@@spirit@boost@@@spirit@boost@@Uparser_context@23@Uparser_address_tag@23@@spirit@boost@@VAddBooleanToArgs@@@23@U?$parser@U?$alternative@U?$alternative@U?$alternative@V?$rule@V?$scanner@PBDU?$scanner_policies@Uiteration_policy@spirit@boost@@Umatch_policy@23@Uaction_policy@23@@spirit@boost@@@spirit@boost@@Uparser_context@23@Uparser_address_tag@23@@spirit@boost@@V123@@spirit@boost@@V?$rule@V?$scanner@PBDU?$scanner_policies@Uiteration_policy@spirit@boost@@Umatch_policy@23@Uaction_policy@23@@spirit@boost@@@spirit@boost@@Uparser_context@23@Uparser_address_tag@23@@23@@spirit@boost@@V?$action@V?$rule@V?$scanner@PBDU?$scanner_policies@Uiteration_policy@spirit@boost@@Umatch_policy@23@Uaction_policy@23@@spirit@boost@@@spirit@boost@@Uparser_context@23@Uparser_address_tag@23@@spirit@boost@@VAddBooleanToArgs@@@23@@spirit@boost@@@23@@spirit@boost@@QAE@ABU?$alternative@U?$alternative@V?$rule@V?$scanner@PBDU?$scanner_policies@Uiteration_policy@spirit@boost@@Umatch_policy@23@Uaction_policy@23@@spirit@boost@@@spirit@boost@@Uparser_context@23@Uparser_address_tag@23@@spirit@boost@@V123@@spirit@boost@@V?$rule@V?$scanner@PBDU?$scanner_policies@Uiteration_policy@spirit@boost@@Umatch_policy@23@Uaction_policy@23@@spirit@boost@@@spirit@boost@@Uparser_context@23@Uparser_address_tag@23@@23@@12@ABV?$action@V?$rule@V?$scanner@PBDU?$scanner_policies@Uiteration_policy@spirit@boost@@Umatch_policy@23@Uaction_policy@23@@spirit@boost@@@spirit@boost@@Uparser_context@23@Uparser_address_tag@23@@spirit@boost@@VAddBooleanToArgs@@@12@@Z 0040ff77 f i Core:ConsoleCommandLineParser.obj
 0001:0000ef9e       ??0?$binary@U?$alternative@U?$alternative@U?$alternative@V?$rule@V?$scanner@PBDU?$scanner_policies@Uiteration_policy@spirit@boost@@Umatch_policy@23@Uaction_policy@23@@spirit@boost@@@spirit@boost@@Uparser_context@23@Uparser_address_tag@23@@spirit@boost@@V123@@spirit@boost@@V?$rule@V?$scanner@PBDU?$scanner_policies@Uiteration_policy@spirit@boost@@Umatch_policy@23@Uaction_policy@23@@spirit@boost@@@spirit@boost@@Uparser_context@23@Uparser_address_tag@23@@23@@spirit@boost@@V?$action@V?$rule@V?$scanner@PBDU?$scanner_policies@Uiteration_policy@spirit@boost@@Umatch_policy@23@Uaction_policy@23@@spirit@boost@@@spirit@boost@@Uparser_context@23@Uparser_address_tag@23@@spirit@boost@@VAddBooleanToArgs@@@23@@spirit@boost@@V?$action@V?$rule@V?$scanner@PBDU?$scanner_policies@Uiteration_policy@spirit@boost@@Umatch_policy@23@Uaction_policy@23@@spirit@boost@@@spirit@boost@@Uparser_context@23@Uparser_address_tag@23@@spirit@boost@@VAddString@@@23@U?$parser@U?$alternative@U?$alternative@U?$alternative@U?$alternative@V?$rule@V?$scanner@PBDU?$scanner_policies@Uiteration_policy@spirit@boost@@Umatch_policy@23@Uaction_policy@23@@spirit@boost@@@spirit@boost@@Uparser_context@23@Uparser_address_tag@23@@spirit@boost@@V123@@spirit@boost@@V?$rule@V?$scanner@PBDU?$scanner_policies@Uiteration_policy@spirit@boost@@Umatch_policy@23@Uaction_policy@23@@spirit@boost@@@spirit@boost@@Uparser_context@23@Uparser_address_tag@23@@23@@spirit@boost@@V?$action@V?$rule@V?$scanner@PBDU?$scanner_policies@Uiteration_policy@spirit@boost@@Umatch_policy@23@Uaction_policy@23@@spirit@boost@@@spirit@boost@@Uparser_context@23@Uparser_address_tag@23@@spirit@boost@@VAddBooleanToArgs@@@23@@spirit@boost@@V?$action@V?$rule@V?$scanner@PBDU?$scanner_policies@Uiteration_policy@spirit@boost@@Umatch_policy@23@Uaction_policy@23@@spirit@boost@@@spirit@boost@@Uparser_context@23@Uparser_address_tag@23@@spirit@boost@@VAddString@@@23@@spirit@boost@@@23@@spirit@boost@@QAE@ABU?$alternative@U?$alternative@U?$alternative@V?$rule@V?$scanner@PBDU?$scanner_policies@Uiteration_policy@spirit@boost@@Umatch_policy@23@Uaction_policy@23@@spirit@boost@@@spirit@boost@@Uparser_context@23@Uparser_address_tag@23@@spirit@boost@@V123@@spirit@boost@@V?$rule@V?$scanner@PBDU?$scanner_policies@Uiteration_policy@spirit@boost@@Umatch_policy@23@Uaction_policy@23@@spirit@boost@@@spirit@boost@@Uparser_context@23@Uparser_address_tag@23@@23@@spirit@boost@@V?$action@V?$rule@V?$scanner@PBDU?$scanner_policies@Uiteration_policy@spirit@boost@@Umatch_policy@23@Uaction_policy@23@@spirit@boost@@@spirit@boost@@Uparser_context@23@Uparser_address_tag@23@@spirit@boost@@VAddBooleanToArgs@@@23@@12@ABV?$action@V?$rule@V?$scanner@PBDU?$scanner_policies@Uiteration_policy@spirit@boost@@Umatch_policy@23@Uaction_policy@23@@spirit@boost@@@spirit@boost@@Uparser_context@23@Uparser_address_tag@23@@spirit@boost@@VAddString@@@12@@Z 0040ff9e f i Core:ConsoleCommandLineParser.obj
 0001:0000efc5       ??0?$binary@Ualnum_parser@spirit@boost@@U?$chlit@D@23@U?$parser@U?$alternative@Ualnum_parser@spirit@boost@@U?$chlit@D@23@@spirit@boost@@@23@@spirit@boost@@QAE@ABUalnum_parser@12@ABU?$chlit@D@12@@Z 0040ffc5 f i Core:ConsoleCommandLineParser.obj
 0001:0000efc5       ??0?$binary@Ualpha_parser@spirit@boost@@U?$chlit@D@23@U?$parser@U?$alternative@Ualpha_parser@spirit@boost@@U?$chlit@D@23@@spirit@boost@@@23@@spirit@boost@@QAE@ABUalpha_parser@12@ABU?$chlit@D@12@@Z 0040ffc5 f i Core:ConsoleCommandLineParser.obj
 0001:0000efeb       ??0?$unary@U?$sequence@U?$positive@U?$alternative@Ualpha_parser@spirit@boost@@U?$chlit@D@23@@spirit@boost@@@spirit@boost@@U?$kleene_star@U?$alternative@Ualnum_parser@spirit@boost@@U?$chlit@D@23@@spirit@boost@@@23@@spirit@boost@@U?$parser@U?$contiguous@U?$sequence@U?$positive@U?$alternative@Ualpha_parser@spirit@boost@@U?$chlit@D@23@@spirit@boost@@@spirit@boost@@U?$kleene_star@U?$alternative@Ualnum_parser@spirit@boost@@U?$chlit@D@23@@spirit@boost@@@23@@spirit@boost@@@spirit@boost@@@23@@spirit@boost@@QAE@ABU?$sequence@U?$positive@U?$alternative@Ualpha_parser@spirit@boost@@U?$chlit@D@23@@spirit@boost@@@spirit@boost@@U?$kleene_star@U?$alternative@Ualnum_parser@spirit@boost@@U?$chlit@D@23@@spirit@boost@@@23@@12@@Z 0040ffeb f i Core:ConsoleCommandLineParser.obj
 0001:0000f004       ??0?$binary@U?$chlit@D@spirit@boost@@U?$kleene_star@U?$negated_char_parser@U?$chlit@D@spirit@boost@@@spirit@boost@@@23@U?$parser@U?$sequence@U?$chlit@D@spirit@boost@@U?$kleene_star@U?$negated_char_parser@U?$chlit@D@spirit@boost@@@spirit@boost@@@23@@spirit@boost@@@23@@spirit@boost@@QAE@ABU?$chlit@D@12@ABU?$kleene_star@U?$negated_char_parser@U?$chlit@D@spirit@boost@@@spirit@boost@@@12@@Z 00410004 f i Core:ConsoleCommandLineParser.obj
 0001:0000f004       ??0?$binary@U?$positive@U?$alternative@Ualpha_parser@spirit@boost@@U?$chlit@D@23@@spirit@boost@@@spirit@boost@@U?$kleene_star@U?$alternative@Ualnum_parser@spirit@boost@@U?$chlit@D@23@@spirit@boost@@@23@U?$parser@U?$sequence@U?$positive@U?$alternative@Ualpha_parser@spirit@boost@@U?$chlit@D@23@@spirit@boost@@@spirit@boost@@U?$kleene_star@U?$alternative@Ualnum_parser@spirit@boost@@U?$chlit@D@23@@spirit@boost@@@23@@spirit@boost@@@23@@spirit@boost@@QAE@ABU?$positive@U?$alternative@Ualpha_parser@spirit@boost@@U?$chlit@D@23@@spirit@boost@@@12@ABU?$kleene_star@U?$alternative@Ualnum_parser@spirit@boost@@U?$chlit@D@23@@spirit@boost@@@12@@Z 00410004 f i Core:ConsoleCommandLineParser.obj
 0001:0000f02a       ??0?$binary@U?$sequence@U?$chlit@D@spirit@boost@@U?$kleene_star@U?$negated_char_parser@U?$chlit@D@spirit@boost@@@spirit@boost@@@23@@spirit@boost@@U?$chlit@D@23@U?$parser@U?$sequence@U?$sequence@U?$chlit@D@spirit@boost@@U?$kleene_star@U?$negated_char_parser@U?$chlit@D@spirit@boost@@@spirit@boost@@@23@@spirit@boost@@U?$chlit@D@23@@spirit@boost@@@23@@spirit@boost@@QAE@ABU?$sequence@U?$chlit@D@spirit@boost@@U?$kleene_star@U?$negated_char_parser@U?$chlit@D@spirit@boost@@@spirit@boost@@@23@@12@ABU?$chlit@D@12@@Z 0041002a f i Core:ConsoleCommandLineParser.obj
 0001:0000f050       ??0?$binary@U?$negated_char_parser@U?$chlit@D@spirit@boost@@@spirit@boost@@Uspace_parser@23@U?$parser@U?$difference@U?$negated_char_parser@U?$chlit@D@spirit@boost@@@spirit@boost@@Uspace_parser@23@@spirit@boost@@@23@@spirit@boost@@QAE@ABU?$negated_char_parser@U?$chlit@D@spirit@boost@@@12@ABUspace_parser@12@@Z 00410050 f i Core:ConsoleCommandLineParser.obj
 0001:0000f076       ??0?$unary@U?$alternative@Ualpha_parser@spirit@boost@@U?$chlit@D@23@@spirit@boost@@U?$parser@U?$positive@U?$alternative@Ualpha_parser@spirit@boost@@U?$chlit@D@23@@spirit@boost@@@spirit@boost@@@23@@spirit@boost@@QAE@ABU?$alternative@Ualpha_parser@spirit@boost@@U?$chlit@D@23@@12@@Z 00410076 f i Core:ConsoleCommandLineParser.obj
 0001:0000f076       ??0?$unary@U?$negated_char_parser@U?$chlit@D@spirit@boost@@@spirit@boost@@U?$parser@U?$kleene_star@U?$negated_char_parser@U?$chlit@D@spirit@boost@@@spirit@boost@@@spirit@boost@@@23@@spirit@boost@@QAE@ABU?$negated_char_parser@U?$chlit@D@spirit@boost@@@12@@Z 00410076 f i Core:ConsoleCommandLineParser.obj
 0001:0000f076       ??0?$unary@U?$chlit@D@spirit@boost@@U?$parser@U?$inhibit_case@U?$chlit@D@spirit@boost@@@spirit@boost@@@23@@spirit@boost@@QAE@ABU?$chlit@D@12@@Z 00410076 f i Core:ConsoleCommandLineParser.obj
 0001:0000f076       ??0?$unary@U?$alternative@Ualnum_parser@spirit@boost@@U?$chlit@D@23@@spirit@boost@@U?$parser@U?$kleene_star@U?$alternative@Ualnum_parser@spirit@boost@@U?$chlit@D@23@@spirit@boost@@@spirit@boost@@@23@@spirit@boost@@QAE@ABU?$alternative@Ualnum_parser@spirit@boost@@U?$chlit@D@23@@12@@Z 00410076 f i Core:ConsoleCommandLineParser.obj
 0001:0000f076       ??0?$unary@U?$difference@U?$negated_char_parser@U?$chlit@D@spirit@boost@@@spirit@boost@@Uspace_parser@23@@spirit@boost@@U?$parser@U?$kleene_star@U?$difference@U?$negated_char_parser@U?$chlit@D@spirit@boost@@@spirit@boost@@Uspace_parser@23@@spirit@boost@@@spirit@boost@@@23@@spirit@boost@@QAE@ABU?$difference@U?$negated_char_parser@U?$chlit@D@spirit@boost@@@spirit@boost@@Uspace_parser@23@@12@@Z 00410076 f i Core:ConsoleCommandLineParser.obj
 0001:0000f08f       ??0?$binary@U?$sequence@U?$sequence@U?$chlit@D@spirit@boost@@U?$kleene_star@U?$negated_char_parser@U?$chlit@D@spirit@boost@@@spirit@boost@@@23@@spirit@boost@@U?$chlit@D@23@@spirit@boost@@U?$kleene_star@U?$difference@U?$negated_char_parser@U?$chlit@D@spirit@boost@@@spirit@boost@@Uspace_parser@23@@spirit@boost@@@23@U?$parser@U?$alternative@U?$sequence@U?$sequence@U?$chlit@D@spirit@boost@@U?$kleene_star@U?$negated_char_parser@U?$chlit@D@spirit@boost@@@spirit@boost@@@23@@spirit@boost@@U?$chlit@D@23@@spirit@boost@@U?$kleene_star@U?$difference@U?$negated_char_parser@U?$chlit@D@spirit@boost@@@spirit@boost@@Uspace_parser@23@@spirit@boost@@@23@@spirit@boost@@@23@@spirit@boost@@QAE@ABU?$sequence@U?$sequence@U?$chlit@D@spirit@boost@@U?$kleene_star@U?$negated_char_parser@U?$chlit@D@spirit@boost@@@spirit@boost@@@23@@spirit@boost@@U?$chlit@D@23@@12@ABU?$kleene_star@U?$difference@U?$negated_char_parser@U?$chlit@D@spirit@boost@@@spirit@boost@@Uspace_parser@23@@spirit@boost@@@12@@Z 0041008f f i Core:ConsoleCommandLineParser.obj
 0001:0000f0b5       ??0?$binary@V?$strlit@PBD@spirit@boost@@V123@U?$parser@U?$alternative@V?$strlit@PBD@spirit@boost@@V123@@spirit@boost@@@23@@spirit@boost@@QAE@ABV?$strlit@PBD@12@0@Z 004100b5 f i Core:ConsoleCommandLineParser.obj
 0001:0000f0dc       ??0?$binary@U?$chlit@D@spirit@boost@@V?$strlit@PBD@23@U?$parser@U?$alternative@U?$chlit@D@spirit@boost@@V?$strlit@PBD@23@@spirit@boost@@@23@@spirit@boost@@QAE@ABU?$chlit@D@12@ABV?$strlit@PBD@12@@Z 004100dc f i Core:ConsoleCommandLineParser.obj
 0001:0000f103       ??0?$binary@U?$alternative@U?$chlit@D@spirit@boost@@V?$strlit@PBD@23@@spirit@boost@@U?$kleene_star@Uanychar_parser@spirit@boost@@@23@U?$parser@U?$sequence@U?$alternative@U?$chlit@D@spirit@boost@@V?$strlit@PBD@23@@spirit@boost@@U?$kleene_star@Uanychar_parser@spirit@boost@@@23@@spirit@boost@@@23@@spirit@boost@@QAE@ABU?$alternative@U?$chlit@D@spirit@boost@@V?$strlit@PBD@23@@12@ABU?$kleene_star@Uanychar_parser@spirit@boost@@@12@@Z 00410103 f i Core:ConsoleCommandLineParser.obj
 0001:0000f129       ??0?$abstract_parser@V?$scanner@PBDU?$scanner_policies@Uiteration_policy@spirit@boost@@Umatch_policy@23@Uaction_policy@23@@spirit@boost@@@spirit@boost@@V?$match@Unil_t@spirit@boost@@@23@@impl@spirit@boost@@QAE@XZ 00410129 f i Core:ConsoleCommandLineParser.obj
 0001:0000f13e       ??0?$left_subject@U?$positive@Uspace_parser@spirit@boost@@@spirit@boost@@U?$right_subject@ABV?$rule@V?$scanner@PBDU?$scanner_policies@Uiteration_policy@spirit@boost@@Umatch_policy@23@Uaction_policy@23@@spirit@boost@@@spirit@boost@@Uparser_context@23@Uparser_address_tag@23@@spirit@boost@@U?$parser@U?$sequence@U?$positive@Uspace_parser@spirit@boost@@@spirit@boost@@V?$rule@V?$scanner@PBDU?$scanner_policies@Uiteration_policy@spirit@boost@@Umatch_policy@23@Uaction_policy@23@@spirit@boost@@@spirit@boost@@Uparser_context@23@Uparser_address_tag@23@@23@@spirit@boost@@@23@@impl@23@@impl@spirit@boost@@QAE@ABU?$right_subject@ABV?$rule@V?$scanner@PBDU?$scanner_policies@Uiteration_policy@spirit@boost@@Umatch_policy@23@Uaction_policy@23@@spirit@boost@@@spirit@boost@@Uparser_context@23@Uparser_address_tag@23@@spirit@boost@@U?$parser@U?$sequence@U?$positive@Uspace_parser@spirit@boost@@@spirit@boost@@V?$rule@V?$scanner@PBDU?$scanner_policies@Uiteration_policy@spirit@boost@@Umatch_policy@23@Uaction_policy@23@@spirit@boost@@@spirit@boost@@Uparser_context@23@Uparser_address_tag@23@@23@@spirit@boost@@@23@@123@ABU?$positive@Uspace_parser@spirit@boost@@@23@@Z 0041013e f i Core:ConsoleCommandLineParser.obj
 0001:0000f15a       ??0?$right_subject@U?$kleene_star@U?$sequence@U?$positive@Uspace_parser@spirit@boost@@@spirit@boost@@V?$rule@V?$scanner@PBDU?$scanner_policies@Uiteration_policy@spirit@boost@@Umatch_policy@23@Uaction_policy@23@@spirit@boost@@@spirit@boost@@Uparser_context@23@Uparser_address_tag@23@@23@@spirit@boost@@@spirit@boost@@U?$parser@U?$sequence@V?$action@V?$rule@V?$scanner@PBDU?$scanner_policies@Uiteration_policy@spirit@boost@@Umatch_policy@23@Uaction_policy@23@@spirit@boost@@@spirit@boost@@Uparser_context@23@Uparser_address_tag@23@@spirit@boost@@V?$assign_actor@V?$basic_string@DV?$char_traits@D@_STL@@V?$allocator@D@2@@_STL@@@23@@spirit@boost@@U?$kleene_star@U?$sequence@U?$positive@Uspace_parser@spirit@boost@@@spirit@boost@@V?$rule@V?$scanner@PBDU?$scanner_policies@Uiteration_policy@spirit@boost@@Umatch_policy@23@Uaction_policy@23@@spirit@boost@@@spirit@boost@@Uparser_context@23@Uparser_address_tag@23@@23@@spirit@boost@@@23@@spirit@boost@@@23@@impl@spirit@boost@@QAE@ABU?$kleene_star@U?$sequence@U?$positive@Uspace_parser@spirit@boost@@@spirit@boost@@V?$rule@V?$scanner@PBDU?$scanner_policies@Uiteration_policy@spirit@boost@@Umatch_policy@23@Uaction_policy@23@@spirit@boost@@@spirit@boost@@Uparser_context@23@Uparser_address_tag@23@@23@@spirit@boost@@@23@@Z 0041015a f i Core:ConsoleCommandLineParser.obj
 0001:0000f15a       ??0?$subject@V?$action@U?$uint_parser@I$09$00$0?0@spirit@boost@@VAddUnsignedIntegerToArgs@@@spirit@boost@@U?$parser@U?$contiguous@V?$action@U?$uint_parser@I$09$00$0?0@spirit@boost@@VAddUnsignedIntegerToArgs@@@spirit@boost@@@spirit@boost@@@23@@impl@spirit@boost@@QAE@ABV?$action@U?$uint_parser@I$09$00$0?0@spirit@boost@@VAddUnsignedIntegerToArgs@@@23@@Z 0041015a f i Core:ConsoleCommandLineParser.obj
 0001:0000f15a       ??0?$subject@V?$action@U?$int_parser@H$09$00$0?0@spirit@boost@@VAddIntegerToArgs@@@spirit@boost@@U?$parser@U?$contiguous@V?$action@U?$int_parser@H$09$00$0?0@spirit@boost@@VAddIntegerToArgs@@@spirit@boost@@@spirit@boost@@@23@@impl@spirit@boost@@QAE@ABV?$action@U?$int_parser@H$09$00$0?0@spirit@boost@@VAddIntegerToArgs@@@23@@Z 0041015a f i Core:ConsoleCommandLineParser.obj
 0001:0000f15a       ??0?$subject@U?$sequence@U?$positive@Uspace_parser@spirit@boost@@@spirit@boost@@V?$rule@V?$scanner@PBDU?$scanner_policies@Uiteration_policy@spirit@boost@@Umatch_policy@23@Uaction_policy@23@@spirit@boost@@@spirit@boost@@Uparser_context@23@Uparser_address_tag@23@@23@@spirit@boost@@U?$parser@U?$kleene_star@U?$sequence@U?$positive@Uspace_parser@spirit@boost@@@spirit@boost@@V?$rule@V?$scanner@PBDU?$scanner_policies@Uiteration_policy@spirit@boost@@Umatch_policy@23@Uaction_policy@23@@spirit@boost@@@spirit@boost@@Uparser_context@23@Uparser_address_tag@23@@23@@spirit@boost@@@spirit@boost@@@23@@impl@spirit@boost@@QAE@ABU?$sequence@U?$positive@Uspace_parser@spirit@boost@@@spirit@boost@@V?$rule@V?$scanner@PBDU?$scanner_policies@Uiteration_policy@spirit@boost@@Umatch_policy@23@Uaction_policy@23@@spirit@boost@@@spirit@boost@@Uparser_context@23@Uparser_address_tag@23@@23@@23@@Z 0041015a f i Core:ConsoleCommandLineParser.obj
 0001:0000f15a       ??0?$subject@V?$action@U?$real_parser@NU?$strict_real_parser_policies@N@spirit@boost@@@spirit@boost@@VAddFloatToArgs@@@spirit@boost@@U?$parser@U?$contiguous@V?$action@U?$real_parser@NU?$strict_real_parser_policies@N@spirit@boost@@@spirit@boost@@VAddFloatToArgs@@@spirit@boost@@@spirit@boost@@@23@@impl@spirit@boost@@QAE@ABV?$action@U?$real_parser@NU?$strict_real_parser_policies@N@spirit@boost@@@spirit@boost@@VAddFloatToArgs@@@23@@Z 0041015a f i Core:ConsoleCommandLineParser.obj
 0001:0000f173       ??0?$left_subject@ABV?$rule@V?$scanner@PBDU?$scanner_policies@Uiteration_policy@spirit@boost@@Umatch_policy@23@Uaction_policy@23@@spirit@boost@@@spirit@boost@@Uparser_context@23@Uparser_address_tag@23@@spirit@boost@@U?$right_subject@U?$sequence@V?$action@V?$rule@V?$scanner@PBDU?$scanner_policies@Uiteration_policy@spirit@boost@@Umatch_policy@23@Uaction_policy@23@@spirit@boost@@@spirit@boost@@Uparser_context@23@Uparser_address_tag@23@@spirit@boost@@V?$assign_actor@V?$basic_string@DV?$char_traits@D@_STL@@V?$allocator@D@2@@_STL@@@23@@spirit@boost@@U?$kleene_star@U?$sequence@U?$positive@Uspace_parser@spirit@boost@@@spirit@boost@@V?$rule@V?$scanner@PBDU?$scanner_policies@Uiteration_policy@spirit@boost@@Umatch_policy@23@Uaction_policy@23@@spirit@boost@@@spirit@boost@@Uparser_context@23@Uparser_address_tag@23@@23@@spirit@boost@@@23@@spirit@boost@@U?$parser@U?$alternative@V?$rule@V?$scanner@PBDU?$scanner_policies@Uiteration_policy@spirit@boost@@Umatch_policy@23@Uaction_policy@23@@spirit@boost@@@spirit@boost@@Uparser_context@23@Uparser_address_tag@23@@spirit@boost@@U?$sequence@V?$action@V?$rule@V?$scanner@PBDU?$scanner_policies@Uiteration_policy@spirit@boost@@Umatch_policy@23@Uaction_policy@23@@spirit@boost@@@spirit@boost@@Uparser_context@23@Uparser_address_tag@23@@spirit@boost@@V?$assign_actor@V?$basic_string@DV?$char_traits@D@_STL@@V?$allocator@D@2@@_STL@@@23@@spirit@boost@@U?$kleene_star@U?$sequence@U?$positive@Uspace_parser@spirit@boost@@@spirit@boost@@V?$rule@V?$scanner@PBDU?$scanner_policies@Uiteration_policy@spirit@boost@@Umatch_policy@23@Uaction_policy@23@@spirit@boost@@@spirit@boost@@Uparser_context@23@Uparser_address_tag@23@@23@@spirit@boost@@@23@@23@@spirit@boost@@@23@@impl@23@@impl@spirit@boost@@QAE@ABU?$right_subject@U?$sequence@V?$action@V?$rule@V?$scanner@PBDU?$scanner_policies@Uiteration_policy@spirit@boost@@Umatch_policy@23@Uaction_policy@23@@spirit@boost@@@spirit@boost@@Uparser_context@23@Uparser_address_tag@23@@spirit@boost@@V?$assign_actor@V?$basic_string@DV?$char_traits@D@_STL@@V?$allocator@D@2@@_STL@@@23@@spirit@boost@@U?$kleene_star@U?$sequence@U?$positive@Uspace_parser@spirit@boost@@@spirit@boost@@V?$rule@V?$scanner@PBDU?$scanner_policies@Uiteration_policy@spirit@boost@@Umatch_policy@23@Uaction_policy@23@@spirit@boost@@@spirit@boost@@Uparser_context@23@Uparser_address_tag@23@@23@@spirit@boost@@@23@@spirit@boost@@U?$parser@U?$alternative@V?$rule@V?$scanner@PBDU?$scanner_policies@Uiteration_policy@spirit@boost@@Umatch_policy@23@Uaction_policy@23@@spirit@boost@@@spirit@boost@@Uparser_context@23@Uparser_address_tag@23@@spirit@boost@@U?$sequence@V?$action@V?$rule@V?$scanner@PBDU?$scanner_policies@Uiteration_policy@spirit@boost@@Umatch_policy@23@Uaction_policy@23@@spirit@boost@@@spirit@boost@@Uparser_context@23@Uparser_address_tag@23@@spirit@boost@@V?$assign_actor@V?$basic_string@DV?$char_traits@D@_STL@@V?$allocator@D@2@@_STL@@@23@@spirit@boost@@U?$kleene_star@U?$sequence@U?$positive@Uspace_parser@spirit@boost@@@spirit@boost@@V?$rule@V?$scanner@PBDU?$scanner_policies@Uiteration_policy@spirit@boost@@Umatch_policy@23@Uaction_policy@23@@spirit@boost@@@spirit@boost@@Uparser_context@23@Uparser_address_tag@23@@23@@spirit@boost@@@23@@23@@spirit@boost@@@23@@123@ABV?$rule@V?$scanner@PBDU?$scanner_policies@Uiteration_policy@spirit@boost@@Umatch_policy@23@Uaction_policy@23@@spirit@boost@@@spirit@boost@@Uparser_context@23@Uparser_address_tag@23@@23@@Z 00410173 f i Core:ConsoleCommandLineParser.obj
 0001:0000f18f       ??0?$right_subject@U?$sequence@V?$action@V?$rule@V?$scanner@PBDU?$scanner_policies@Uiteration_policy@spirit@boost@@Umatch_policy@23@Uaction_policy@23@@spirit@boost@@@spirit@boost@@Uparser_context@23@Uparser_address_tag@23@@spirit@boost@@V?$assign_actor@V?$basic_string@DV?$char_traits@D@_STL@@V?$allocator@D@2@@_STL@@@23@@spirit@boost@@U?$kleene_star@U?$sequence@U?$positive@Uspace_parser@spirit@boost@@@spirit@boost@@V?$rule@V?$scanner@PBDU?$scanner_policies@Uiteration_policy@spirit@boost@@Umatch_policy@23@Uaction_policy@23@@spirit@boost@@@spirit@boost@@Uparser_context@23@Uparser_address_tag@23@@23@@spirit@boost@@@23@@spirit@boost@@U?$parser@U?$alternative@V?$rule@V?$scanner@PBDU?$scanner_policies@Uiteration_policy@spirit@boost@@Umatch_policy@23@Uaction_policy@23@@spirit@boost@@@spirit@boost@@Uparser_context@23@Uparser_address_tag@23@@spirit@boost@@U?$sequence@V?$action@V?$rule@V?$scanner@PBDU?$scanner_policies@Uiteration_policy@spirit@boost@@Umatch_policy@23@Uaction_policy@23@@spirit@boost@@@spirit@boost@@Uparser_context@23@Uparser_address_tag@23@@spirit@boost@@V?$assign_actor@V?$basic_string@DV?$char_traits@D@_STL@@V?$allocator@D@2@@_STL@@@23@@spirit@boost@@U?$kleene_star@U?$sequence@U?$positive@Uspace_parser@spirit@boost@@@spirit@boost@@V?$rule@V?$scanner@PBDU?$scanner_policies@Uiteration_policy@spirit@boost@@Umatch_policy@23@Uaction_policy@23@@spirit@boost@@@spirit@boost@@Uparser_context@23@Uparser_address_tag@23@@23@@spirit@boost@@@23@@23@@spirit@boost@@@23@@impl@spirit@boost@@QAE@ABU?$sequence@V?$action@V?$rule@V?$scanner@PBDU?$scanner_policies@Uiteration_policy@spirit@boost@@Umatch_policy@23@Uaction_policy@23@@spirit@boost@@@spirit@boost@@Uparser_context@23@Uparser_address_tag@23@@spirit@boost@@V?$assign_actor@V?$basic_string@DV?$char_traits@D@_STL@@V?$allocator@D@2@@_STL@@@23@@spirit@boost@@U?$kleene_star@U?$sequence@U?$positive@Uspace_parser@spirit@boost@@@spirit@boost@@V?$rule@V?$scanner@PBDU?$scanner_policies@Uiteration_policy@spirit@boost@@Umatch_policy@23@Uaction_policy@23@@spirit@boost@@@spirit@boost@@Uparser_context@23@Uparser_address_tag@23@@23@@spirit@boost@@@23@@23@@Z 0041018f f i Core:ConsoleCommandLineParser.obj
 0001:0000f1a8       ??0?$left_subject@ABV?$rule@V?$scanner@PBDU?$scanner_policies@Uiteration_policy@spirit@boost@@Umatch_policy@23@Uaction_policy@23@@spirit@boost@@@spirit@boost@@Uparser_context@23@Uparser_address_tag@23@@spirit@boost@@U?$right_subject@ABV?$rule@V?$scanner@PBDU?$scanner_policies@Uiteration_policy@spirit@boost@@Umatch_policy@23@Uaction_policy@23@@spirit@boost@@@spirit@boost@@Uparser_context@23@Uparser_address_tag@23@@spirit@boost@@U?$parser@U?$alternative@V?$rule@V?$scanner@PBDU?$scanner_policies@Uiteration_policy@spirit@boost@@Umatch_policy@23@Uaction_policy@23@@spirit@boost@@@spirit@boost@@Uparser_context@23@Uparser_address_tag@23@@spirit@boost@@V123@@spirit@boost@@@23@@impl@23@@impl@spirit@boost@@QAE@ABU?$right_subject@ABV?$rule@V?$scanner@PBDU?$scanner_policies@Uiteration_policy@spirit@boost@@Umatch_policy@23@Uaction_policy@23@@spirit@boost@@@spirit@boost@@Uparser_context@23@Uparser_address_tag@23@@spirit@boost@@U?$parser@U?$alternative@V?$rule@V?$scanner@PBDU?$scanner_policies@Uiteration_policy@spirit@boost@@Umatch_policy@23@Uaction_policy@23@@spirit@boost@@@spirit@boost@@Uparser_context@23@Uparser_address_tag@23@@spirit@boost@@V123@@spirit@boost@@@23@@123@ABV?$rule@V?$scanner@PBDU?$scanner_policies@Uiteration_policy@spirit@boost@@Umatch_policy@23@Uaction_policy@23@@spirit@boost@@@spirit@boost@@Uparser_context@23@Uparser_address_tag@23@@23@@Z 004101a8 f i Core:ConsoleCommandLineParser.obj
 0001:0000f1c4       ??0?$right_subject@ABV?$rule@V?$scanner@PBDU?$scanner_policies@Uiteration_policy@spirit@boost@@Umatch_policy@23@Uaction_policy@23@@spirit@boost@@@spirit@boost@@Uparser_context@23@Uparser_address_tag@23@@spirit@boost@@U?$parser@U?$alternative@V?$rule@V?$scanner@PBDU?$scanner_policies@Uiteration_policy@spirit@boost@@Umatch_policy@23@Uaction_policy@23@@spirit@boost@@@spirit@boost@@Uparser_context@23@Uparser_address_tag@23@@spirit@boost@@V123@@spirit@boost@@@23@@impl@spirit@boost@@QAE@ABV?$rule@V?$scanner@PBDU?$scanner_policies@Uiteration_policy@spirit@boost@@Umatch_policy@23@Uaction_policy@23@@spirit@boost@@@spirit@boost@@Uparser_context@23@Uparser_address_tag@23@@23@@Z 004101c4 f i Core:ConsoleCommandLineParser.obj
 0001:0000f1c4       ??0?$subject@ABV?$rule@V?$scanner@PBDU?$scanner_policies@Uiteration_policy@spirit@boost@@Umatch_policy@23@Uaction_policy@23@@spirit@boost@@@spirit@boost@@Uparser_context@23@Uparser_address_tag@23@@spirit@boost@@U?$parser@V?$action@V?$rule@V?$scanner@PBDU?$scanner_policies@Uiteration_policy@spirit@boost@@Umatch_policy@23@Uaction_policy@23@@spirit@boost@@@spirit@boost@@Uparser_context@23@Uparser_address_tag@23@@spirit@boost@@VAddString@@@spirit@boost@@@23@@impl@spirit@boost@@QAE@ABV?$rule@V?$scanner@PBDU?$scanner_policies@Uiteration_policy@spirit@boost@@Umatch_policy@23@Uaction_policy@23@@spirit@boost@@@spirit@boost@@Uparser_context@23@Uparser_address_tag@23@@23@@Z 004101c4 f i Core:ConsoleCommandLineParser.obj
 0001:0000f1c4       ??0?$right_subject@ABV?$rule@V?$scanner@PBDU?$scanner_policies@Uiteration_policy@spirit@boost@@Umatch_policy@23@Uaction_policy@23@@spirit@boost@@@spirit@boost@@Uparser_context@23@Uparser_address_tag@23@@spirit@boost@@U?$parser@U?$alternative@U?$alternative@V?$rule@V?$scanner@PBDU?$scanner_policies@Uiteration_policy@spirit@boost@@Umatch_policy@23@Uaction_policy@23@@spirit@boost@@@spirit@boost@@Uparser_context@23@Uparser_address_tag@23@@spirit@boost@@V123@@spirit@boost@@V?$rule@V?$scanner@PBDU?$scanner_policies@Uiteration_policy@spirit@boost@@Umatch_policy@23@Uaction_policy@23@@spirit@boost@@@spirit@boost@@Uparser_context@23@Uparser_address_tag@23@@23@@spirit@boost@@@23@@impl@spirit@boost@@QAE@ABV?$rule@V?$scanner@PBDU?$scanner_policies@Uiteration_policy@spirit@boost@@Umatch_policy@23@Uaction_policy@23@@spirit@boost@@@spirit@boost@@Uparser_context@23@Uparser_address_tag@23@@23@@Z 004101c4 f i Core:ConsoleCommandLineParser.obj
 0001:0000f1c4       ??0?$right_subject@ABV?$rule@V?$scanner@PBDU?$scanner_policies@Uiteration_policy@spirit@boost@@Umatch_policy@23@Uaction_policy@23@@spirit@boost@@@spirit@boost@@Uparser_context@23@Uparser_address_tag@23@@spirit@boost@@U?$parser@U?$sequence@U?$positive@Uspace_parser@spirit@boost@@@spirit@boost@@V?$rule@V?$scanner@PBDU?$scanner_policies@Uiteration_policy@spirit@boost@@Umatch_policy@23@Uaction_policy@23@@spirit@boost@@@spirit@boost@@Uparser_context@23@Uparser_address_tag@23@@23@@spirit@boost@@@23@@impl@spirit@boost@@QAE@ABV?$rule@V?$scanner@PBDU?$scanner_policies@Uiteration_policy@spirit@boost@@Umatch_policy@23@Uaction_policy@23@@spirit@boost@@@spirit@boost@@Uparser_context@23@Uparser_address_tag@23@@23@@Z 004101c4 f i Core:ConsoleCommandLineParser.obj
 0001:0000f1c4       ??0?$subject@ABV?$rule@V?$scanner@PBDU?$scanner_policies@Uiteration_policy@spirit@boost@@Umatch_policy@23@Uaction_policy@23@@spirit@boost@@@spirit@boost@@Uparser_context@23@Uparser_address_tag@23@@spirit@boost@@U?$parser@V?$action@V?$rule@V?$scanner@PBDU?$scanner_policies@Uiteration_policy@spirit@boost@@Umatch_policy@23@Uaction_policy@23@@spirit@boost@@@spirit@boost@@Uparser_context@23@Uparser_address_tag@23@@spirit@boost@@VAddBooleanToArgs@@@spirit@boost@@@23@@impl@spirit@boost@@QAE@ABV?$rule@V?$scanner@PBDU?$scanner_policies@Uiteration_policy@spirit@boost@@Umatch_policy@23@Uaction_policy@23@@spirit@boost@@@spirit@boost@@Uparser_context@23@Uparser_address_tag@23@@23@@Z 004101c4 f i Core:ConsoleCommandLineParser.obj
 0001:0000f1c4       ??0?$subject@ABV?$rule@V?$scanner@PBDU?$scanner_policies@Uiteration_policy@spirit@boost@@Umatch_policy@23@Uaction_policy@23@@spirit@boost@@@spirit@boost@@Uparser_context@23@Uparser_address_tag@23@@spirit@boost@@U?$parser@V?$action@V?$rule@V?$scanner@PBDU?$scanner_policies@Uiteration_policy@spirit@boost@@Umatch_policy@23@Uaction_policy@23@@spirit@boost@@@spirit@boost@@Uparser_context@23@Uparser_address_tag@23@@spirit@boost@@V?$assign_actor@V?$basic_string@DV?$char_traits@D@_STL@@V?$allocator@D@2@@_STL@@@23@@spirit@boost@@@23@@impl@spirit@boost@@QAE@ABV?$rule@V?$scanner@PBDU?$scanner_policies@Uiteration_policy@spirit@boost@@Umatch_policy@23@Uaction_policy@23@@spirit@boost@@@spirit@boost@@Uparser_context@23@Uparser_address_tag@23@@23@@Z 004101c4 f i Core:ConsoleCommandLineParser.obj
 0001:0000f1dd       ??0?$left_subject@V?$action@V?$rule@V?$scanner@PBDU?$scanner_policies@Uiteration_policy@spirit@boost@@Umatch_policy@23@Uaction_policy@23@@spirit@boost@@@spirit@boost@@Uparser_context@23@Uparser_address_tag@23@@spirit@boost@@V?$assign_actor@V?$basic_string@DV?$char_traits@D@_STL@@V?$allocator@D@2@@_STL@@@23@@spirit@boost@@U?$right_subject@U?$kleene_star@U?$sequence@U?$positive@Uspace_parser@spirit@boost@@@spirit@boost@@V?$rule@V?$scanner@PBDU?$scanner_policies@Uiteration_policy@spirit@boost@@Umatch_policy@23@Uaction_policy@23@@spirit@boost@@@spirit@boost@@Uparser_context@23@Uparser_address_tag@23@@23@@spirit@boost@@@spirit@boost@@U?$parser@U?$sequence@V?$action@V?$rule@V?$scanner@PBDU?$scanner_policies@Uiteration_policy@spirit@boost@@Umatch_policy@23@Uaction_policy@23@@spirit@boost@@@spirit@boost@@Uparser_context@23@Uparser_address_tag@23@@spirit@boost@@V?$assign_actor@V?$basic_string@DV?$char_traits@D@_STL@@V?$allocator@D@2@@_STL@@@23@@spirit@boost@@U?$kleene_star@U?$sequence@U?$positive@Uspace_parser@spirit@boost@@@spirit@boost@@V?$rule@V?$scanner@PBDU?$scanner_policies@Uiteration_policy@spirit@boost@@Umatch_policy@23@Uaction_policy@23@@spirit@boost@@@spirit@boost@@Uparser_context@23@Uparser_address_tag@23@@23@@spirit@boost@@@23@@spirit@boost@@@23@@impl@23@@impl@spirit@boost@@QAE@ABU?$right_subject@U?$kleene_star@U?$sequence@U?$positive@Uspace_parser@spirit@boost@@@spirit@boost@@V?$rule@V?$scanner@PBDU?$scanner_policies@Uiteration_policy@spirit@boost@@Umatch_policy@23@Uaction_policy@23@@spirit@boost@@@spirit@boost@@Uparser_context@23@Uparser_address_tag@23@@23@@spirit@boost@@@spirit@boost@@U?$parser@U?$sequence@V?$action@V?$rule@V?$scanner@PBDU?$scanner_policies@Uiteration_policy@spirit@boost@@Umatch_policy@23@Uaction_policy@23@@spirit@boost@@@spirit@boost@@Uparser_context@23@Uparser_address_tag@23@@spirit@boost@@V?$assign_actor@V?$basic_string@DV?$char_traits@D@_STL@@V?$allocator@D@2@@_STL@@@23@@spirit@boost@@U?$kleene_star@U?$sequence@U?$positive@Uspace_parser@spirit@boost@@@spirit@boost@@V?$rule@V?$scanner@PBDU?$scanner_policies@Uiteration_policy@spirit@boost@@Umatch_policy@23@Uaction_policy@23@@spirit@boost@@@spirit@boost@@Uparser_context@23@Uparser_address_tag@23@@23@@spirit@boost@@@23@@spirit@boost@@@23@@123@ABV?$action@V?$rule@V?$scanner@PBDU?$scanner_policies@Uiteration_policy@spirit@boost@@Umatch_policy@23@Uaction_policy@23@@spirit@boost@@@spirit@boost@@Uparser_context@23@Uparser_address_tag@23@@spirit@boost@@V?$assign_actor@V?$basic_string@DV?$char_traits@D@_STL@@V?$allocator@D@2@@_STL@@@23@@23@@Z 004101dd f i Core:ConsoleCommandLineParser.obj
 0001:0000f1dd       ??0?$left_subject@U?$alternative@V?$rule@V?$scanner@PBDU?$scanner_policies@Uiteration_policy@spirit@boost@@Umatch_policy@23@Uaction_policy@23@@spirit@boost@@@spirit@boost@@Uparser_context@23@Uparser_address_tag@23@@spirit@boost@@V123@@spirit@boost@@U?$right_subject@ABV?$rule@V?$scanner@PBDU?$scanner_policies@Uiteration_policy@spirit@boost@@Umatch_policy@23@Uaction_policy@23@@spirit@boost@@@spirit@boost@@Uparser_context@23@Uparser_address_tag@23@@spirit@boost@@U?$parser@U?$alternative@U?$alternative@V?$rule@V?$scanner@PBDU?$scanner_policies@Uiteration_policy@spirit@boost@@Umatch_policy@23@Uaction_policy@23@@spirit@boost@@@spirit@boost@@Uparser_context@23@Uparser_address_tag@23@@spirit@boost@@V123@@spirit@boost@@V?$rule@V?$scanner@PBDU?$scanner_policies@Uiteration_policy@spirit@boost@@Umatch_policy@23@Uaction_policy@23@@spirit@boost@@@spirit@boost@@Uparser_context@23@Uparser_address_tag@23@@23@@spirit@boost@@@23@@impl@23@@impl@spirit@boost@@QAE@ABU?$right_subject@ABV?$rule@V?$scanner@PBDU?$scanner_policies@Uiteration_policy@spirit@boost@@Umatch_policy@23@Uaction_policy@23@@spirit@boost@@@spirit@boost@@Uparser_context@23@Uparser_address_tag@23@@spirit@boost@@U?$parser@U?$alternative@U?$alternative@V?$rule@V?$scanner@PBDU?$scanner_policies@Uiteration_policy@spirit@boost@@Umatch_policy@23@Uaction_policy@23@@spirit@boost@@@spirit@boost@@Uparser_context@23@Uparser_address_tag@23@@spirit@boost@@V123@@spirit@boost@@V?$rule@V?$scanner@PBDU?$scanner_policies@Uiteration_policy@spirit@boost@@Umatch_policy@23@Uaction_policy@23@@spirit@boost@@@spirit@boost@@Uparser_context@23@Uparser_address_tag@23@@23@@spirit@boost@@@23@@123@ABU?$alternative@V?$rule@V?$scanner@PBDU?$scanner_policies@Uiteration_policy@spirit@boost@@Umatch_policy@23@Uaction_policy@23@@spirit@boost@@@spirit@boost@@Uparser_context@23@Uparser_address_tag@23@@spirit@boost@@V123@@23@@Z 004101dd f i Core:ConsoleCommandLineParser.obj
 0001:0000f1f9       ??0?$left_subject@U?$alternative@U?$alternative@V?$rule@V?$scanner@PBDU?$scanner_policies@Uiteration_policy@spirit@boost@@Umatch_policy@23@Uaction_policy@23@@spirit@boost@@@spirit@boost@@Uparser_context@23@Uparser_address_tag@23@@spirit@boost@@V123@@spirit@boost@@V?$rule@V?$scanner@PBDU?$scanner_policies@Uiteration_policy@spirit@boost@@Umatch_policy@23@Uaction_policy@23@@spirit@boost@@@spirit@boost@@Uparser_context@23@Uparser_address_tag@23@@23@@spirit@boost@@U?$right_subject@V?$action@V?$rule@V?$scanner@PBDU?$scanner_policies@Uiteration_policy@spirit@boost@@Umatch_policy@23@Uaction_policy@23@@spirit@boost@@@spirit@boost@@Uparser_context@23@Uparser_address_tag@23@@spirit@boost@@VAddBooleanToArgs@@@spirit@boost@@U?$parser@U?$alternative@U?$alternative@U?$alternative@V?$rule@V?$scanner@PBDU?$scanner_policies@Uiteration_policy@spirit@boost@@Umatch_policy@23@Uaction_policy@23@@spirit@boost@@@spirit@boost@@Uparser_context@23@Uparser_address_tag@23@@spirit@boost@@V123@@spirit@boost@@V?$rule@V?$scanner@PBDU?$scanner_policies@Uiteration_policy@spirit@boost@@Umatch_policy@23@Uaction_policy@23@@spirit@boost@@@spirit@boost@@Uparser_context@23@Uparser_address_tag@23@@23@@spirit@boost@@V?$action@V?$rule@V?$scanner@PBDU?$scanner_policies@Uiteration_policy@spirit@boost@@Umatch_policy@23@Uaction_policy@23@@spirit@boost@@@spirit@boost@@Uparser_context@23@Uparser_address_tag@23@@spirit@boost@@VAddBooleanToArgs@@@23@@spirit@boost@@@23@@impl@23@@impl@spirit@boost@@QAE@ABU?$right_subject@V?$action@V?$rule@V?$scanner@PBDU?$scanner_policies@Uiteration_policy@spirit@boost@@Umatch_policy@23@Uaction_policy@23@@spirit@boost@@@spirit@boost@@Uparser_context@23@Uparser_address_tag@23@@spirit@boost@@VAddBooleanToArgs@@@spirit@boost@@U?$parser@U?$alternative@U?$alternative@U?$alternative@V?$rule@V?$scanner@PBDU?$scanner_policies@Uiteration_policy@spirit@boost@@Umatch_policy@23@Uaction_policy@23@@spirit@boost@@@spirit@boost@@Uparser_context@23@Uparser_address_tag@23@@spirit@boost@@V123@@spirit@boost@@V?$rule@V?$scanner@PBDU?$scanner_policies@Uiteration_policy@spirit@boost@@Umatch_policy@23@Uaction_policy@23@@spirit@boost@@@spirit@boost@@Uparser_context@23@Uparser_address_tag@23@@23@@spirit@boost@@V?$action@V?$rule@V?$scanner@PBDU?$scanner_policies@Uiteration_policy@spirit@boost@@Umatch_policy@23@Uaction_policy@23@@spirit@boost@@@spirit@boost@@Uparser_context@23@Uparser_address_tag@23@@spirit@boost@@VAddBooleanToArgs@@@23@@spirit@boost@@@23@@123@ABU?$alternative@U?$alternative@V?$rule@V?$scanner@PBDU?$scanner_policies@Uiteration_policy@spirit@boost@@Umatch_policy@23@Uaction_policy@23@@spirit@boost@@@spirit@boost@@Uparser_context@23@Uparser_address_tag@23@@spirit@boost@@V123@@spirit@boost@@V?$rule@V?$scanner@PBDU?$scanner_policies@Uiteration_policy@spirit@boost@@Umatch_policy@23@Uaction_policy@23@@spirit@boost@@@spirit@boost@@Uparser_context@23@Uparser_address_tag@23@@23@@23@@Z 004101f9 f i Core:ConsoleCommandLineParser.obj
 0001:0000f215       ??0?$left_subject@U?$alternative@U?$alternative@U?$alternative@V?$rule@V?$scanner@PBDU?$scanner_policies@Uiteration_policy@spirit@boost@@Umatch_policy@23@Uaction_policy@23@@spirit@boost@@@spirit@boost@@Uparser_context@23@Uparser_address_tag@23@@spirit@boost@@V123@@spirit@boost@@V?$rule@V?$scanner@PBDU?$scanner_policies@Uiteration_policy@spirit@boost@@Umatch_policy@23@Uaction_policy@23@@spirit@boost@@@spirit@boost@@Uparser_context@23@Uparser_address_tag@23@@23@@spirit@boost@@V?$action@V?$rule@V?$scanner@PBDU?$scanner_policies@Uiteration_policy@spirit@boost@@Umatch_policy@23@Uaction_policy@23@@spirit@boost@@@spirit@boost@@Uparser_context@23@Uparser_address_tag@23@@spirit@boost@@VAddBooleanToArgs@@@23@@spirit@boost@@U?$right_subject@V?$action@V?$rule@V?$scanner@PBDU?$scanner_policies@Uiteration_policy@spirit@boost@@Umatch_policy@23@Uaction_policy@23@@spirit@boost@@@spirit@boost@@Uparser_context@23@Uparser_address_tag@23@@spirit@boost@@VAddString@@@spirit@boost@@U?$parser@U?$alternative@U?$alternative@U?$alternative@U?$alternative@V?$rule@V?$scanner@PBDU?$scanner_policies@Uiteration_policy@spirit@boost@@Umatch_policy@23@Uaction_policy@23@@spirit@boost@@@spirit@boost@@Uparser_context@23@Uparser_address_tag@23@@spirit@boost@@V123@@spirit@boost@@V?$rule@V?$scanner@PBDU?$scanner_policies@Uiteration_policy@spirit@boost@@Umatch_policy@23@Uaction_policy@23@@spirit@boost@@@spirit@boost@@Uparser_context@23@Uparser_address_tag@23@@23@@spirit@boost@@V?$action@V?$rule@V?$scanner@PBDU?$scanner_policies@Uiteration_policy@spirit@boost@@Umatch_policy@23@Uaction_policy@23@@spirit@boost@@@spirit@boost@@Uparser_context@23@Uparser_address_tag@23@@spirit@boost@@VAddBooleanToArgs@@@23@@spirit@boost@@V?$action@V?$rule@V?$scanner@PBDU?$scanner_policies@Uiteration_policy@spirit@boost@@Umatch_policy@23@Uaction_policy@23@@spirit@boost@@@spirit@boost@@Uparser_context@23@Uparser_address_tag@23@@spirit@boost@@VAddString@@@23@@spirit@boost@@@23@@impl@23@@impl@spirit@boost@@QAE@ABU?$right_subject@V?$action@V?$rule@V?$scanner@PBDU?$scanner_policies@Uiteration_policy@spirit@boost@@Umatch_policy@23@Uaction_policy@23@@spirit@boost@@@spirit@boost@@Uparser_context@23@Uparser_address_tag@23@@spirit@boost@@VAddString@@@spirit@boost@@U?$parser@U?$alternative@U?$alternative@U?$alternative@U?$alternative@V?$rule@V?$scanner@PBDU?$scanner_policies@Uiteration_policy@spirit@boost@@Umatch_policy@23@Uaction_policy@23@@spirit@boost@@@spirit@boost@@Uparser_context@23@Uparser_address_tag@23@@spirit@boost@@V123@@spirit@boost@@V?$rule@V?$scanner@PBDU?$scanner_policies@Uiteration_policy@spirit@boost@@Umatch_policy@23@Uaction_policy@23@@spirit@boost@@@spirit@boost@@Uparser_context@23@Uparser_address_tag@23@@23@@spirit@boost@@V?$action@V?$rule@V?$scanner@PBDU?$scanner_policies@Uiteration_policy@spirit@boost@@Umatch_policy@23@Uaction_policy@23@@spirit@boost@@@spirit@boost@@Uparser_context@23@Uparser_address_tag@23@@spirit@boost@@VAddBooleanToArgs@@@23@@spirit@boost@@V?$action@V?$rule@V?$scanner@PBDU?$scanner_policies@Uiteration_policy@spirit@boost@@Umatch_policy@23@Uaction_policy@23@@spirit@boost@@@spirit@boost@@Uparser_context@23@Uparser_address_tag@23@@spirit@boost@@VAddString@@@23@@spirit@boost@@@23@@123@ABU?$alternative@U?$alternative@U?$alternative@V?$rule@V?$scanner@PBDU?$scanner_policies@Uiteration_policy@spirit@boost@@Umatch_policy@23@Uaction_policy@23@@spirit@boost@@@spirit@boost@@Uparser_context@23@Uparser_address_tag@23@@spirit@boost@@V123@@spirit@boost@@V?$rule@V?$scanner@PBDU?$scanner_policies@Uiteration_policy@spirit@boost@@Umatch_policy@23@Uaction_policy@23@@spirit@boost@@@spirit@boost@@Uparser_context@23@Uparser_address_tag@23@@23@@spirit@boost@@V?$action@V?$rule@V?$scanner@PBDU?$scanner_policies@Uiteration_policy@spirit@boost@@Umatch_policy@23@Uaction_policy@23@@spirit@boost@@@spirit@boost@@Uparser_context@23@Uparser_address_tag@23@@spirit@boost@@VAddBooleanToArgs@@@23@@23@@Z 00410215 f i Core:ConsoleCommandLineParser.obj
 0001:0000f231       ??0?$left_subject@Ualnum_parser@spirit@boost@@U?$right_subject@U?$chlit@D@spirit@boost@@U?$parser@U?$alternative@Ualnum_parser@spirit@boost@@U?$chlit@D@23@@spirit@boost@@@23@@impl@23@@impl@spirit@boost@@QAE@ABU?$right_subject@U?$chlit@D@spirit@boost@@U?$parser@U?$alternative@Ualnum_parser@spirit@boost@@U?$chlit@D@23@@spirit@boost@@@23@@123@ABUalnum_parser@23@@Z 00410231 f i Core:ConsoleCommandLineParser.obj
 0001:0000f231       ??0?$left_subject@Ualpha_parser@spirit@boost@@U?$right_subject@U?$chlit@D@spirit@boost@@U?$parser@U?$alternative@Ualpha_parser@spirit@boost@@U?$chlit@D@23@@spirit@boost@@@23@@impl@23@@impl@spirit@boost@@QAE@ABU?$right_subject@U?$chlit@D@spirit@boost@@U?$parser@U?$alternative@Ualpha_parser@spirit@boost@@U?$chlit@D@23@@spirit@boost@@@23@@123@ABUalpha_parser@23@@Z 00410231 f i Core:ConsoleCommandLineParser.obj
 0001:0000f24d       ??0?$subject@U?$sequence@U?$positive@U?$alternative@Ualpha_parser@spirit@boost@@U?$chlit@D@23@@spirit@boost@@@spirit@boost@@U?$kleene_star@U?$alternative@Ualnum_parser@spirit@boost@@U?$chlit@D@23@@spirit@boost@@@23@@spirit@boost@@U?$parser@U?$contiguous@U?$sequence@U?$positive@U?$alternative@Ualpha_parser@spirit@boost@@U?$chlit@D@23@@spirit@boost@@@spirit@boost@@U?$kleene_star@U?$alternative@Ualnum_parser@spirit@boost@@U?$chlit@D@23@@spirit@boost@@@23@@spirit@boost@@@spirit@boost@@@23@@impl@spirit@boost@@QAE@ABU?$sequence@U?$positive@U?$alternative@Ualpha_parser@spirit@boost@@U?$chlit@D@23@@spirit@boost@@@spirit@boost@@U?$kleene_star@U?$alternative@Ualnum_parser@spirit@boost@@U?$chlit@D@23@@spirit@boost@@@23@@23@@Z 0041024d f i Core:ConsoleCommandLineParser.obj
 0001:0000f266       ??0?$left_subject@U?$positive@U?$alternative@Ualpha_parser@spirit@boost@@U?$chlit@D@23@@spirit@boost@@@spirit@boost@@U?$right_subject@U?$kleene_star@U?$alternative@Ualnum_parser@spirit@boost@@U?$chlit@D@23@@spirit@boost@@@spirit@boost@@U?$parser@U?$sequence@U?$positive@U?$alternative@Ualpha_parser@spirit@boost@@U?$chlit@D@23@@spirit@boost@@@spirit@boost@@U?$kleene_star@U?$alternative@Ualnum_parser@spirit@boost@@U?$chlit@D@23@@spirit@boost@@@23@@spirit@boost@@@23@@impl@23@@impl@spirit@boost@@QAE@ABU?$right_subject@U?$kleene_star@U?$alternative@Ualnum_parser@spirit@boost@@U?$chlit@D@23@@spirit@boost@@@spirit@boost@@U?$parser@U?$sequence@U?$positive@U?$alternative@Ualpha_parser@spirit@boost@@U?$chlit@D@23@@spirit@boost@@@spirit@boost@@U?$kleene_star@U?$alternative@Ualnum_parser@spirit@boost@@U?$chlit@D@23@@spirit@boost@@@23@@spirit@boost@@@23@@123@ABU?$positive@U?$alternative@Ualpha_parser@spirit@boost@@U?$chlit@D@23@@spirit@boost@@@23@@Z 00410266 f i Core:ConsoleCommandLineParser.obj
 0001:0000f266       ??0?$left_subject@U?$chlit@D@spirit@boost@@U?$right_subject@U?$kleene_star@U?$negated_char_parser@U?$chlit@D@spirit@boost@@@spirit@boost@@@spirit@boost@@U?$parser@U?$sequence@U?$chlit@D@spirit@boost@@U?$kleene_star@U?$negated_char_parser@U?$chlit@D@spirit@boost@@@spirit@boost@@@23@@spirit@boost@@@23@@impl@23@@impl@spirit@boost@@QAE@ABU?$right_subject@U?$kleene_star@U?$negated_char_parser@U?$chlit@D@spirit@boost@@@spirit@boost@@@spirit@boost@@U?$parser@U?$sequence@U?$chlit@D@spirit@boost@@U?$kleene_star@U?$negated_char_parser@U?$chlit@D@spirit@boost@@@spirit@boost@@@23@@spirit@boost@@@23@@123@ABU?$chlit@D@23@@Z 00410266 f i Core:ConsoleCommandLineParser.obj
 0001:0000f282       ??0?$left_subject@U?$sequence@U?$chlit@D@spirit@boost@@U?$kleene_star@U?$negated_char_parser@U?$chlit@D@spirit@boost@@@spirit@boost@@@23@@spirit@boost@@U?$right_subject@U?$chlit@D@spirit@boost@@U?$parser@U?$sequence@U?$sequence@U?$chlit@D@spirit@boost@@U?$kleene_star@U?$negated_char_parser@U?$chlit@D@spirit@boost@@@spirit@boost@@@23@@spirit@boost@@U?$chlit@D@23@@spirit@boost@@@23@@impl@23@@impl@spirit@boost@@QAE@ABU?$right_subject@U?$chlit@D@spirit@boost@@U?$parser@U?$sequence@U?$sequence@U?$chlit@D@spirit@boost@@U?$kleene_star@U?$negated_char_parser@U?$chlit@D@spirit@boost@@@spirit@boost@@@23@@spirit@boost@@U?$chlit@D@23@@spirit@boost@@@23@@123@ABU?$sequence@U?$chlit@D@spirit@boost@@U?$kleene_star@U?$negated_char_parser@U?$chlit@D@spirit@boost@@@spirit@boost@@@23@@23@@Z 00410282 f i Core:ConsoleCommandLineParser.obj
 0001:0000f29e       ??0?$left_subject@U?$negated_char_parser@U?$chlit@D@spirit@boost@@@spirit@boost@@U?$right_subject@Uspace_parser@spirit@boost@@U?$parser@U?$difference@U?$negated_char_parser@U?$chlit@D@spirit@boost@@@spirit@boost@@Uspace_parser@23@@spirit@boost@@@23@@impl@23@@impl@spirit@boost@@QAE@ABU?$right_subject@Uspace_parser@spirit@boost@@U?$parser@U?$difference@U?$negated_char_parser@U?$chlit@D@spirit@boost@@@spirit@boost@@Uspace_parser@23@@spirit@boost@@@23@@123@ABU?$negated_char_parser@U?$chlit@D@spirit@boost@@@23@@Z 0041029e f i Core:ConsoleCommandLineParser.obj
 0001:0000f2ba       ??0?$left_subject@U?$sequence@U?$sequence@U?$chlit@D@spirit@boost@@U?$kleene_star@U?$negated_char_parser@U?$chlit@D@spirit@boost@@@spirit@boost@@@23@@spirit@boost@@U?$chlit@D@23@@spirit@boost@@U?$right_subject@U?$kleene_star@U?$difference@U?$negated_char_parser@U?$chlit@D@spirit@boost@@@spirit@boost@@Uspace_parser@23@@spirit@boost@@@spirit@boost@@U?$parser@U?$alternative@U?$sequence@U?$sequence@U?$chlit@D@spirit@boost@@U?$kleene_star@U?$negated_char_parser@U?$chlit@D@spirit@boost@@@spirit@boost@@@23@@spirit@boost@@U?$chlit@D@23@@spirit@boost@@U?$kleene_star@U?$difference@U?$negated_char_parser@U?$chlit@D@spirit@boost@@@spirit@boost@@Uspace_parser@23@@spirit@boost@@@23@@spirit@boost@@@23@@impl@23@@impl@spirit@boost@@QAE@ABU?$right_subject@U?$kleene_star@U?$difference@U?$negated_char_parser@U?$chlit@D@spirit@boost@@@spirit@boost@@Uspace_parser@23@@spirit@boost@@@spirit@boost@@U?$parser@U?$alternative@U?$sequence@U?$sequence@U?$chlit@D@spirit@boost@@U?$kleene_star@U?$negated_char_parser@U?$chlit@D@spirit@boost@@@spirit@boost@@@23@@spirit@boost@@U?$chlit@D@23@@spirit@boost@@U?$kleene_star@U?$difference@U?$negated_char_parser@U?$chlit@D@spirit@boost@@@spirit@boost@@Uspace_parser@23@@spirit@boost@@@23@@spirit@boost@@@23@@123@ABU?$sequence@U?$sequence@U?$chlit@D@spirit@boost@@U?$kleene_star@U?$negated_char_parser@U?$chlit@D@spirit@boost@@@spirit@boost@@@23@@spirit@boost@@U?$chlit@D@23@@23@@Z 004102ba f i Core:ConsoleCommandLineParser.obj
 0001:0000f2d6       ??0?$subject@U?$difference@U?$negated_char_parser@U?$chlit@D@spirit@boost@@@spirit@boost@@Uspace_parser@23@@spirit@boost@@U?$parser@U?$kleene_star@U?$difference@U?$negated_char_parser@U?$chlit@D@spirit@boost@@@spirit@boost@@Uspace_parser@23@@spirit@boost@@@spirit@boost@@@23@@impl@spirit@boost@@QAE@ABU?$difference@U?$negated_char_parser@U?$chlit@D@spirit@boost@@@spirit@boost@@Uspace_parser@23@@23@@Z 004102d6 f i Core:ConsoleCommandLineParser.obj
 0001:0000f2d6       ??0?$subject@U?$chlit@D@spirit@boost@@U?$parser@U?$inhibit_case@U?$chlit@D@spirit@boost@@@spirit@boost@@@23@@impl@spirit@boost@@QAE@ABU?$chlit@D@23@@Z 004102d6 f i Core:ConsoleCommandLineParser.obj
 0001:0000f2d6       ??0?$right_subject@U?$chlit@D@spirit@boost@@U?$parser@U?$alternative@Ualpha_parser@spirit@boost@@U?$chlit@D@23@@spirit@boost@@@23@@impl@spirit@boost@@QAE@ABU?$chlit@D@23@@Z 004102d6 f i Core:ConsoleCommandLineParser.obj
 0001:0000f2d6       ??0?$right_subject@U?$chlit@D@spirit@boost@@U?$parser@U?$alternative@Ualnum_parser@spirit@boost@@U?$chlit@D@23@@spirit@boost@@@23@@impl@spirit@boost@@QAE@ABU?$chlit@D@23@@Z 004102d6 f i Core:ConsoleCommandLineParser.obj
 0001:0000f2d6       ??0?$subject@U?$alternative@Ualnum_parser@spirit@boost@@U?$chlit@D@23@@spirit@boost@@U?$parser@U?$kleene_star@U?$alternative@Ualnum_parser@spirit@boost@@U?$chlit@D@23@@spirit@boost@@@spirit@boost@@@23@@impl@spirit@boost@@QAE@ABU?$alternative@Ualnum_parser@spirit@boost@@U?$chlit@D@23@@23@@Z 004102d6 f i Core:ConsoleCommandLineParser.obj
 0001:0000f2d6       ??0?$right_subject@U?$kleene_star@U?$difference@U?$negated_char_parser@U?$chlit@D@spirit@boost@@@spirit@boost@@Uspace_parser@23@@spirit@boost@@@spirit@boost@@U?$parser@U?$alternative@U?$sequence@U?$sequence@U?$chlit@D@spirit@boost@@U?$kleene_star@U?$negated_char_parser@U?$chlit@D@spirit@boost@@@spirit@boost@@@23@@spirit@boost@@U?$chlit@D@23@@spirit@boost@@U?$kleene_star@U?$difference@U?$negated_char_parser@U?$chlit@D@spirit@boost@@@spirit@boost@@Uspace_parser@23@@spirit@boost@@@23@@spirit@boost@@@23@@impl@spirit@boost@@QAE@ABU?$kleene_star@U?$difference@U?$negated_char_parser@U?$chlit@D@spirit@boost@@@spirit@boost@@Uspace_parser@23@@spirit@boost@@@23@@Z 004102d6 f i Core:ConsoleCommandLineParser.obj
 0001:0000f2d6       ??0?$subject@U?$alternative@Ualpha_parser@spirit@boost@@U?$chlit@D@23@@spirit@boost@@U?$parser@U?$positive@U?$alternative@Ualpha_parser@spirit@boost@@U?$chlit@D@23@@spirit@boost@@@spirit@boost@@@23@@impl@spirit@boost@@QAE@ABU?$alternative@Ualpha_parser@spirit@boost@@U?$chlit@D@23@@23@@Z 004102d6 f i Core:ConsoleCommandLineParser.obj
 0001:0000f2d6       ??0?$right_subject@U?$chlit@D@spirit@boost@@U?$parser@U?$sequence@U?$sequence@U?$chlit@D@spirit@boost@@U?$kleene_star@U?$negated_char_parser@U?$chlit@D@spirit@boost@@@spirit@boost@@@23@@spirit@boost@@U?$chlit@D@23@@spirit@boost@@@23@@impl@spirit@boost@@QAE@ABU?$chlit@D@23@@Z 004102d6 f i Core:ConsoleCommandLineParser.obj
 0001:0000f2d6       ??0?$right_subject@U?$kleene_star@U?$alternative@Ualnum_parser@spirit@boost@@U?$chlit@D@23@@spirit@boost@@@spirit@boost@@U?$parser@U?$sequence@U?$positive@U?$alternative@Ualpha_parser@spirit@boost@@U?$chlit@D@23@@spirit@boost@@@spirit@boost@@U?$kleene_star@U?$alternative@Ualnum_parser@spirit@boost@@U?$chlit@D@23@@spirit@boost@@@23@@spirit@boost@@@23@@impl@spirit@boost@@QAE@ABU?$kleene_star@U?$alternative@Ualnum_parser@spirit@boost@@U?$chlit@D@23@@spirit@boost@@@23@@Z 004102d6 f i Core:ConsoleCommandLineParser.obj
 0001:0000f2d6       ??0?$subject@U?$negated_char_parser@U?$chlit@D@spirit@boost@@@spirit@boost@@U?$parser@U?$kleene_star@U?$negated_char_parser@U?$chlit@D@spirit@boost@@@spirit@boost@@@spirit@boost@@@23@@impl@spirit@boost@@QAE@ABU?$negated_char_parser@U?$chlit@D@spirit@boost@@@23@@Z 004102d6 f i Core:ConsoleCommandLineParser.obj
 0001:0000f2d6       ??0?$right_subject@U?$kleene_star@U?$negated_char_parser@U?$chlit@D@spirit@boost@@@spirit@boost@@@spirit@boost@@U?$parser@U?$sequence@U?$chlit@D@spirit@boost@@U?$kleene_star@U?$negated_char_parser@U?$chlit@D@spirit@boost@@@spirit@boost@@@23@@spirit@boost@@@23@@impl@spirit@boost@@QAE@ABU?$kleene_star@U?$negated_char_parser@U?$chlit@D@spirit@boost@@@spirit@boost@@@23@@Z 004102d6 f i Core:ConsoleCommandLineParser.obj
 0001:0000f2ef       ??0?$left_subject@V?$strlit@PBD@spirit@boost@@U?$right_subject@V?$strlit@PBD@spirit@boost@@U?$parser@U?$alternative@V?$strlit@PBD@spirit@boost@@V123@@spirit@boost@@@23@@impl@23@@impl@spirit@boost@@QAE@ABU?$right_subject@V?$strlit@PBD@spirit@boost@@U?$parser@U?$alternative@V?$strlit@PBD@spirit@boost@@V123@@spirit@boost@@@23@@123@ABV?$strlit@PBD@23@@Z 004102ef f i Core:ConsoleCommandLineParser.obj
 0001:0000f30b       ??0?$left_subject@U?$chlit@D@spirit@boost@@U?$right_subject@V?$strlit@PBD@spirit@boost@@U?$parser@U?$alternative@U?$chlit@D@spirit@boost@@V?$strlit@PBD@23@@spirit@boost@@@23@@impl@23@@impl@spirit@boost@@QAE@ABU?$right_subject@V?$strlit@PBD@spirit@boost@@U?$parser@U?$alternative@U?$chlit@D@spirit@boost@@V?$strlit@PBD@23@@spirit@boost@@@23@@123@ABU?$chlit@D@23@@Z 0041030b f i Core:ConsoleCommandLineParser.obj
 0001:0000f327       ??0?$right_subject@V?$strlit@PBD@spirit@boost@@U?$parser@U?$alternative@V?$strlit@PBD@spirit@boost@@V123@@spirit@boost@@@23@@impl@spirit@boost@@QAE@ABV?$strlit@PBD@23@@Z 00410327 f i Core:ConsoleCommandLineParser.obj
 0001:0000f327       ??0?$right_subject@V?$action@V?$rule@V?$scanner@PBDU?$scanner_policies@Uiteration_policy@spirit@boost@@Umatch_policy@23@Uaction_policy@23@@spirit@boost@@@spirit@boost@@Uparser_context@23@Uparser_address_tag@23@@spirit@boost@@VAddString@@@spirit@boost@@U?$parser@U?$alternative@U?$alternative@U?$alternative@U?$alternative@V?$rule@V?$scanner@PBDU?$scanner_policies@Uiteration_policy@spirit@boost@@Umatch_policy@23@Uaction_policy@23@@spirit@boost@@@spirit@boost@@Uparser_context@23@Uparser_address_tag@23@@spirit@boost@@V123@@spirit@boost@@V?$rule@V?$scanner@PBDU?$scanner_policies@Uiteration_policy@spirit@boost@@Umatch_policy@23@Uaction_policy@23@@spirit@boost@@@spirit@boost@@Uparser_context@23@Uparser_address_tag@23@@23@@spirit@boost@@V?$action@V?$rule@V?$scanner@PBDU?$scanner_policies@Uiteration_policy@spirit@boost@@Umatch_policy@23@Uaction_policy@23@@spirit@boost@@@spirit@boost@@Uparser_context@23@Uparser_address_tag@23@@spirit@boost@@VAddBooleanToArgs@@@23@@spirit@boost@@V?$action@V?$rule@V?$scanner@PBDU?$scanner_policies@Uiteration_policy@spirit@boost@@Umatch_policy@23@Uaction_policy@23@@spirit@boost@@@spirit@boost@@Uparser_context@23@Uparser_address_tag@23@@spirit@boost@@VAddString@@@23@@spirit@boost@@@23@@impl@spirit@boost@@QAE@ABV?$action@V?$rule@V?$scanner@PBDU?$scanner_policies@Uiteration_policy@spirit@boost@@Umatch_policy@23@Uaction_policy@23@@spirit@boost@@@spirit@boost@@Uparser_context@23@Uparser_address_tag@23@@spirit@boost@@VAddString@@@23@@Z 00410327 f i Core:ConsoleCommandLineParser.obj
 0001:0000f327       ??0?$right_subject@V?$strlit@PBD@spirit@boost@@U?$parser@U?$alternative@U?$chlit@D@spirit@boost@@V?$strlit@PBD@23@@spirit@boost@@@23@@impl@spirit@boost@@QAE@ABV?$strlit@PBD@23@@Z 00410327 f i Core:ConsoleCommandLineParser.obj
 0001:0000f327       ??0?$right_subject@V?$action@V?$rule@V?$scanner@PBDU?$scanner_policies@Uiteration_policy@spirit@boost@@Umatch_policy@23@Uaction_policy@23@@spirit@boost@@@spirit@boost@@Uparser_context@23@Uparser_address_tag@23@@spirit@boost@@VAddBooleanToArgs@@@spirit@boost@@U?$parser@U?$alternative@U?$alternative@U?$alternative@V?$rule@V?$scanner@PBDU?$scanner_policies@Uiteration_policy@spirit@boost@@Umatch_policy@23@Uaction_policy@23@@spirit@boost@@@spirit@boost@@Uparser_context@23@Uparser_address_tag@23@@spirit@boost@@V123@@spirit@boost@@V?$rule@V?$scanner@PBDU?$scanner_policies@Uiteration_policy@spirit@boost@@Umatch_policy@23@Uaction_policy@23@@spirit@boost@@@spirit@boost@@Uparser_context@23@Uparser_address_tag@23@@23@@spirit@boost@@V?$action@V?$rule@V?$scanner@PBDU?$scanner_policies@Uiteration_policy@spirit@boost@@Umatch_policy@23@Uaction_policy@23@@spirit@boost@@@spirit@boost@@Uparser_context@23@Uparser_address_tag@23@@spirit@boost@@VAddBooleanToArgs@@@23@@spirit@boost@@@23@@impl@spirit@boost@@QAE@ABV?$action@V?$rule@V?$scanner@PBDU?$scanner_policies@Uiteration_policy@spirit@boost@@Umatch_policy@23@Uaction_policy@23@@spirit@boost@@@spirit@boost@@Uparser_context@23@Uparser_address_tag@23@@spirit@boost@@VAddBooleanToArgs@@@23@@Z 00410327 f i Core:ConsoleCommandLineParser.obj
 0001:0000f340       ??0?$left_subject@U?$alternative@U?$chlit@D@spirit@boost@@V?$strlit@PBD@23@@spirit@boost@@U?$right_subject@U?$kleene_star@Uanychar_parser@spirit@boost@@@spirit@boost@@U?$parser@U?$sequence@U?$alternative@U?$chlit@D@spirit@boost@@V?$strlit@PBD@23@@spirit@boost@@U?$kleene_star@Uanychar_parser@spirit@boost@@@23@@spirit@boost@@@23@@impl@23@@impl@spirit@boost@@QAE@ABU?$right_subject@U?$kleene_star@Uanychar_parser@spirit@boost@@@spirit@boost@@U?$parser@U?$sequence@U?$alternative@U?$chlit@D@spirit@boost@@V?$strlit@PBD@23@@spirit@boost@@U?$kleene_star@Uanychar_parser@spirit@boost@@@23@@spirit@boost@@@23@@123@ABU?$alternative@U?$chlit@D@spirit@boost@@V?$strlit@PBD@23@@23@@Z 00410340 f i Core:ConsoleCommandLineParser.obj
 0001:0000f35c       ??0?$empty_subject@U?$positive@Uspace_parser@spirit@boost@@@spirit@boost@@U?$right_subject@ABV?$rule@V?$scanner@PBDU?$scanner_policies@Uiteration_policy@spirit@boost@@Umatch_policy@23@Uaction_policy@23@@spirit@boost@@@spirit@boost@@Uparser_context@23@Uparser_address_tag@23@@spirit@boost@@U?$parser@U?$sequence@U?$positive@Uspace_parser@spirit@boost@@@spirit@boost@@V?$rule@V?$scanner@PBDU?$scanner_policies@Uiteration_policy@spirit@boost@@Umatch_policy@23@Uaction_policy@23@@spirit@boost@@@spirit@boost@@Uparser_context@23@Uparser_address_tag@23@@23@@spirit@boost@@@23@@impl@23@@impl@spirit@boost@@QAE@ABU?$right_subject@ABV?$rule@V?$scanner@PBDU?$scanner_policies@Uiteration_policy@spirit@boost@@Umatch_policy@23@Uaction_policy@23@@spirit@boost@@@spirit@boost@@Uparser_context@23@Uparser_address_tag@23@@spirit@boost@@U?$parser@U?$sequence@U?$positive@Uspace_parser@spirit@boost@@@spirit@boost@@V?$rule@V?$scanner@PBDU?$scanner_policies@Uiteration_policy@spirit@boost@@Umatch_policy@23@Uaction_policy@23@@spirit@boost@@@spirit@boost@@Uparser_context@23@Uparser_address_tag@23@@23@@spirit@boost@@@23@@123@ABU?$positive@Uspace_parser@spirit@boost@@@23@@Z 0041035c f i Core:ConsoleCommandLineParser.obj
 0001:0000f374       ??0?$non_empty_subject@U?$alternative@V?$rule@V?$scanner@PBDU?$scanner_policies@Uiteration_policy@spirit@boost@@Umatch_policy@23@Uaction_policy@23@@spirit@boost@@@spirit@boost@@Uparser_context@23@Uparser_address_tag@23@@spirit@boost@@V123@@spirit@boost@@U?$right_subject@ABV?$rule@V?$scanner@PBDU?$scanner_policies@Uiteration_policy@spirit@boost@@Umatch_policy@23@Uaction_policy@23@@spirit@boost@@@spirit@boost@@Uparser_context@23@Uparser_address_tag@23@@spirit@boost@@U?$parser@U?$alternative@U?$alternative@V?$rule@V?$scanner@PBDU?$scanner_policies@Uiteration_policy@spirit@boost@@Umatch_policy@23@Uaction_policy@23@@spirit@boost@@@spirit@boost@@Uparser_context@23@Uparser_address_tag@23@@spirit@boost@@V123@@spirit@boost@@V?$rule@V?$scanner@PBDU?$scanner_policies@Uiteration_policy@spirit@boost@@Umatch_policy@23@Uaction_policy@23@@spirit@boost@@@spirit@boost@@Uparser_context@23@Uparser_address_tag@23@@23@@spirit@boost@@@23@@impl@23@@impl@spirit@boost@@QAE@ABU?$right_subject@ABV?$rule@V?$scanner@PBDU?$scanner_policies@Uiteration_policy@spirit@boost@@Umatch_policy@23@Uaction_policy@23@@spirit@boost@@@spirit@boost@@Uparser_context@23@Uparser_address_tag@23@@spirit@boost@@U?$parser@U?$alternative@U?$alternative@V?$rule@V?$scanner@PBDU?$scanner_policies@Uiteration_policy@spirit@boost@@Umatch_policy@23@Uaction_policy@23@@spirit@boost@@@spirit@boost@@Uparser_context@23@Uparser_address_tag@23@@spirit@boost@@V123@@spirit@boost@@V?$rule@V?$scanner@PBDU?$scanner_policies@Uiteration_policy@spirit@boost@@Umatch_policy@23@Uaction_policy@23@@spirit@boost@@@spirit@boost@@Uparser_context@23@Uparser_address_tag@23@@23@@spirit@boost@@@23@@123@ABU?$alternative@V?$rule@V?$scanner@PBDU?$scanner_policies@Uiteration_policy@spirit@boost@@Umatch_policy@23@Uaction_policy@23@@spirit@boost@@@spirit@boost@@Uparser_context@23@Uparser_address_tag@23@@spirit@boost@@V123@@23@@Z 00410374 f i Core:ConsoleCommandLineParser.obj
 0001:0000f374       ??0?$non_empty_subject@V?$action@V?$rule@V?$scanner@PBDU?$scanner_policies@Uiteration_policy@spirit@boost@@Umatch_policy@23@Uaction_policy@23@@spirit@boost@@@spirit@boost@@Uparser_context@23@Uparser_address_tag@23@@spirit@boost@@V?$assign_actor@V?$basic_string@DV?$char_traits@D@_STL@@V?$allocator@D@2@@_STL@@@23@@spirit@boost@@U?$right_subject@U?$kleene_star@U?$sequence@U?$positive@Uspace_parser@spirit@boost@@@spirit@boost@@V?$rule@V?$scanner@PBDU?$scanner_policies@Uiteration_policy@spirit@boost@@Umatch_policy@23@Uaction_policy@23@@spirit@boost@@@spirit@boost@@Uparser_context@23@Uparser_address_tag@23@@23@@spirit@boost@@@spirit@boost@@U?$parser@U?$sequence@V?$action@V?$rule@V?$scanner@PBDU?$scanner_policies@Uiteration_policy@spirit@boost@@Umatch_policy@23@Uaction_policy@23@@spirit@boost@@@spirit@boost@@Uparser_context@23@Uparser_address_tag@23@@spirit@boost@@V?$assign_actor@V?$basic_string@DV?$char_traits@D@_STL@@V?$allocator@D@2@@_STL@@@23@@spirit@boost@@U?$kleene_star@U?$sequence@U?$positive@Uspace_parser@spirit@boost@@@spirit@boost@@V?$rule@V?$scanner@PBDU?$scanner_policies@Uiteration_policy@spirit@boost@@Umatch_policy@23@Uaction_policy@23@@spirit@boost@@@spirit@boost@@Uparser_context@23@Uparser_address_tag@23@@23@@spirit@boost@@@23@@spirit@boost@@@23@@impl@23@@impl@spirit@boost@@QAE@ABU?$right_subject@U?$kleene_star@U?$sequence@U?$positive@Uspace_parser@spirit@boost@@@spirit@boost@@V?$rule@V?$scanner@PBDU?$scanner_policies@Uiteration_policy@spirit@boost@@Umatch_policy@23@Uaction_policy@23@@spirit@boost@@@spirit@boost@@Uparser_context@23@Uparser_address_tag@23@@23@@spirit@boost@@@spirit@boost@@U?$parser@U?$sequence@V?$action@V?$rule@V?$scanner@PBDU?$scanner_policies@Uiteration_policy@spirit@boost@@Umatch_policy@23@Uaction_policy@23@@spirit@boost@@@spirit@boost@@Uparser_context@23@Uparser_address_tag@23@@spirit@boost@@V?$assign_actor@V?$basic_string@DV?$char_traits@D@_STL@@V?$allocator@D@2@@_STL@@@23@@spirit@boost@@U?$kleene_star@U?$sequence@U?$positive@Uspace_parser@spirit@boost@@@spirit@boost@@V?$rule@V?$scanner@PBDU?$scanner_policies@Uiteration_policy@spirit@boost@@Umatch_policy@23@Uaction_policy@23@@spirit@boost@@@spirit@boost@@Uparser_context@23@Uparser_address_tag@23@@23@@spirit@boost@@@23@@spirit@boost@@@23@@123@ABV?$action@V?$rule@V?$scanner@PBDU?$scanner_policies@Uiteration_policy@spirit@boost@@Umatch_policy@23@Uaction_policy@23@@spirit@boost@@@spirit@boost@@Uparser_context@23@Uparser_address_tag@23@@spirit@boost@@V?$assign_actor@V?$basic_string@DV?$char_traits@D@_STL@@V?$allocator@D@2@@_STL@@@23@@23@@Z 00410374 f i Core:ConsoleCommandLineParser.obj
 0001:0000f39d       ??0?$non_empty_subject@ABV?$rule@V?$scanner@PBDU?$scanner_policies@Uiteration_policy@spirit@boost@@Umatch_policy@23@Uaction_policy@23@@spirit@boost@@@spirit@boost@@Uparser_context@23@Uparser_address_tag@23@@spirit@boost@@U?$right_subject@U?$sequence@V?$action@V?$rule@V?$scanner@PBDU?$scanner_policies@Uiteration_policy@spirit@boost@@Umatch_policy@23@Uaction_policy@23@@spirit@boost@@@spirit@boost@@Uparser_context@23@Uparser_address_tag@23@@spirit@boost@@V?$assign_actor@V?$basic_string@DV?$char_traits@D@_STL@@V?$allocator@D@2@@_STL@@@23@@spirit@boost@@U?$kleene_star@U?$sequence@U?$positive@Uspace_parser@spirit@boost@@@spirit@boost@@V?$rule@V?$scanner@PBDU?$scanner_policies@Uiteration_policy@spirit@boost@@Umatch_policy@23@Uaction_policy@23@@spirit@boost@@@spirit@boost@@Uparser_context@23@Uparser_address_tag@23@@23@@spirit@boost@@@23@@spirit@boost@@U?$parser@U?$alternative@V?$rule@V?$scanner@PBDU?$scanner_policies@Uiteration_policy@spirit@boost@@Umatch_policy@23@Uaction_policy@23@@spirit@boost@@@spirit@boost@@Uparser_context@23@Uparser_address_tag@23@@spirit@boost@@U?$sequence@V?$action@V?$rule@V?$scanner@PBDU?$scanner_policies@Uiteration_policy@spirit@boost@@Umatch_policy@23@Uaction_policy@23@@spirit@boost@@@spirit@boost@@Uparser_context@23@Uparser_address_tag@23@@spirit@boost@@V?$assign_actor@V?$basic_string@DV?$char_traits@D@_STL@@V?$allocator@D@2@@_STL@@@23@@spirit@boost@@U?$kleene_star@U?$sequence@U?$positive@Uspace_parser@spirit@boost@@@spirit@boost@@V?$rule@V?$scanner@PBDU?$scanner_policies@Uiteration_policy@spirit@boost@@Umatch_policy@23@Uaction_policy@23@@spirit@boost@@@spirit@boost@@Uparser_context@23@Uparser_address_tag@23@@23@@spirit@boost@@@23@@23@@spirit@boost@@@23@@impl@23@@impl@spirit@boost@@QAE@ABU?$right_subject@U?$sequence@V?$action@V?$rule@V?$scanner@PBDU?$scanner_policies@Uiteration_policy@spirit@boost@@Umatch_policy@23@Uaction_policy@23@@spirit@boost@@@spirit@boost@@Uparser_context@23@Uparser_address_tag@23@@spirit@boost@@V?$assign_actor@V?$basic_string@DV?$char_traits@D@_STL@@V?$allocator@D@2@@_STL@@@23@@spirit@boost@@U?$kleene_star@U?$sequence@U?$positive@Uspace_parser@spirit@boost@@@spirit@boost@@V?$rule@V?$scanner@PBDU?$scanner_policies@Uiteration_policy@spirit@boost@@Umatch_policy@23@Uaction_policy@23@@spirit@boost@@@spirit@boost@@Uparser_context@23@Uparser_address_tag@23@@23@@spirit@boost@@@23@@spirit@boost@@U?$parser@U?$alternative@V?$rule@V?$scanner@PBDU?$scanner_policies@Uiteration_policy@spirit@boost@@Umatch_policy@23@Uaction_policy@23@@spirit@boost@@@spirit@boost@@Uparser_context@23@Uparser_address_tag@23@@spirit@boost@@U?$sequence@V?$action@V?$rule@V?$scanner@PBDU?$scanner_policies@Uiteration_policy@spirit@boost@@Umatch_policy@23@Uaction_policy@23@@spirit@boost@@@spirit@boost@@Uparser_context@23@Uparser_address_tag@23@@spirit@boost@@V?$assign_actor@V?$basic_string@DV?$char_traits@D@_STL@@V?$allocator@D@2@@_STL@@@23@@spirit@boost@@U?$kleene_star@U?$sequence@U?$positive@Uspace_parser@spirit@boost@@@spirit@boost@@V?$rule@V?$scanner@PBDU?$scanner_policies@Uiteration_policy@spirit@boost@@Umatch_policy@23@Uaction_policy@23@@spirit@boost@@@spirit@boost@@Uparser_context@23@Uparser_address_tag@23@@23@@spirit@boost@@@23@@23@@spirit@boost@@@23@@123@ABV?$rule@V?$scanner@PBDU?$scanner_policies@Uiteration_policy@spirit@boost@@Umatch_policy@23@Uaction_policy@23@@spirit@boost@@@spirit@boost@@Uparser_context@23@Uparser_address_tag@23@@23@@Z 0041039d f i Core:ConsoleCommandLineParser.obj
 0001:0000f3c1       ??0?$non_empty_subject@U?$sequence@V?$action@V?$rule@V?$scanner@PBDU?$scanner_policies@Uiteration_policy@spirit@boost@@Umatch_policy@23@Uaction_policy@23@@spirit@boost@@@spirit@boost@@Uparser_context@23@Uparser_address_tag@23@@spirit@boost@@V?$assign_actor@V?$basic_string@DV?$char_traits@D@_STL@@V?$allocator@D@2@@_STL@@@23@@spirit@boost@@U?$kleene_star@U?$sequence@U?$positive@Uspace_parser@spirit@boost@@@spirit@boost@@V?$rule@V?$scanner@PBDU?$scanner_policies@Uiteration_policy@spirit@boost@@Umatch_policy@23@Uaction_policy@23@@spirit@boost@@@spirit@boost@@Uparser_context@23@Uparser_address_tag@23@@23@@spirit@boost@@@23@@spirit@boost@@U?$parser@U?$alternative@V?$rule@V?$scanner@PBDU?$scanner_policies@Uiteration_policy@spirit@boost@@Umatch_policy@23@Uaction_policy@23@@spirit@boost@@@spirit@boost@@Uparser_context@23@Uparser_address_tag@23@@spirit@boost@@U?$sequence@V?$action@V?$rule@V?$scanner@PBDU?$scanner_policies@Uiteration_policy@spirit@boost@@Umatch_policy@23@Uaction_policy@23@@spirit@boost@@@spirit@boost@@Uparser_context@23@Uparser_address_tag@23@@spirit@boost@@V?$assign_actor@V?$basic_string@DV?$char_traits@D@_STL@@V?$allocator@D@2@@_STL@@@23@@spirit@boost@@U?$kleene_star@U?$sequence@U?$positive@Uspace_parser@spirit@boost@@@spirit@boost@@V?$rule@V?$scanner@PBDU?$scanner_policies@Uiteration_policy@spirit@boost@@Umatch_policy@23@Uaction_policy@23@@spirit@boost@@@spirit@boost@@Uparser_context@23@Uparser_address_tag@23@@23@@spirit@boost@@@23@@23@@spirit@boost@@@23@@impl@spirit@boost@@QAE@ABU?$sequence@V?$action@V?$rule@V?$scanner@PBDU?$scanner_policies@Uiteration_policy@spirit@boost@@Umatch_policy@23@Uaction_policy@23@@spirit@boost@@@spirit@boost@@Uparser_context@23@Uparser_address_tag@23@@spirit@boost@@V?$assign_actor@V?$basic_string@DV?$char_traits@D@_STL@@V?$allocator@D@2@@_STL@@@23@@spirit@boost@@U?$kleene_star@U?$sequence@U?$positive@Uspace_parser@spirit@boost@@@spirit@boost@@V?$rule@V?$scanner@PBDU?$scanner_policies@Uiteration_policy@spirit@boost@@Umatch_policy@23@Uaction_policy@23@@spirit@boost@@@spirit@boost@@Uparser_context@23@Uparser_address_tag@23@@23@@spirit@boost@@@23@@23@@Z 004103c1 f i Core:ConsoleCommandLineParser.obj
 0001:0000f3dc       ??0?$non_empty_subject@ABV?$rule@V?$scanner@PBDU?$scanner_policies@Uiteration_policy@spirit@boost@@Umatch_policy@23@Uaction_policy@23@@spirit@boost@@@spirit@boost@@Uparser_context@23@Uparser_address_tag@23@@spirit@boost@@U?$right_subject@ABV?$rule@V?$scanner@PBDU?$scanner_policies@Uiteration_policy@spirit@boost@@Umatch_policy@23@Uaction_policy@23@@spirit@boost@@@spirit@boost@@Uparser_context@23@Uparser_address_tag@23@@spirit@boost@@U?$parser@U?$alternative@V?$rule@V?$scanner@PBDU?$scanner_policies@Uiteration_policy@spirit@boost@@Umatch_policy@23@Uaction_policy@23@@spirit@boost@@@spirit@boost@@Uparser_context@23@Uparser_address_tag@23@@spirit@boost@@V123@@spirit@boost@@@23@@impl@23@@impl@spirit@boost@@QAE@ABU?$right_subject@ABV?$rule@V?$scanner@PBDU?$scanner_policies@Uiteration_policy@spirit@boost@@Umatch_policy@23@Uaction_policy@23@@spirit@boost@@@spirit@boost@@Uparser_context@23@Uparser_address_tag@23@@spirit@boost@@U?$parser@U?$alternative@V?$rule@V?$scanner@PBDU?$scanner_policies@Uiteration_policy@spirit@boost@@Umatch_policy@23@Uaction_policy@23@@spirit@boost@@@spirit@boost@@Uparser_context@23@Uparser_address_tag@23@@spirit@boost@@V123@@spirit@boost@@@23@@123@ABV?$rule@V?$scanner@PBDU?$scanner_policies@Uiteration_policy@spirit@boost@@Umatch_policy@23@Uaction_policy@23@@spirit@boost@@@spirit@boost@@Uparser_context@23@Uparser_address_tag@23@@23@@Z 004103dc f i Core:ConsoleCommandLineParser.obj
 0001:0000f3fd       ??0?$_Rb_tree_iterator@U?$pair@$$CBIV?$shared_ptr@VRendererCreator@Renderer@@@boost@@@_STL@@U?$_Const_traits@U?$pair@$$CBIV?$shared_ptr@VRendererCreator@Renderer@@@boost@@@_STL@@@2@@_STL@@QAE@PAU?$_Rb_tree_node@U?$pair@$$CBIV?$shared_ptr@VRendererCreator@Renderer@@@boost@@@_STL@@@1@@Z 004103fd f i Renderer:RendererFactory.obj
 0001:0000f3fd       ??0?$assign_actor@V?$basic_string@DV?$char_traits@D@_STL@@V?$allocator@D@2@@_STL@@@spirit@boost@@QAE@AAV?$basic_string@DV?$char_traits@D@_STL@@V?$allocator@D@2@@_STL@@@Z 004103fd f i Core:ConsoleCommandLineParser.obj
 0001:0000f3fd       ??0?$scoped_ptr@U?$abstract_parser@V?$scanner@PBDU?$scanner_policies@Uiteration_policy@spirit@boost@@Umatch_policy@23@Uaction_policy@23@@spirit@boost@@@spirit@boost@@V?$match@Unil_t@spirit@boost@@@23@@impl@spirit@boost@@@boost@@QAE@PAU?$abstract_parser@V?$scanner@PBDU?$scanner_policies@Uiteration_policy@spirit@boost@@Umatch_policy@23@Uaction_policy@23@@spirit@boost@@@spirit@boost@@V?$match@Unil_t@spirit@boost@@@23@@impl@spirit@1@@Z 004103fd f i Core:ConsoleCommandLineParser.obj
 0001:0000f3fd       ??0?$reverse_iterator@PAKKAAKPAKH@_STL@@QAE@PAK@Z 004103fd f i Core:ConsoleCommandLineParser.obj
 0001:0000f3fd       ??0?$_Rb_tree_iterator@U?$pair@$$CBIV?$shared_ptr@VConsoleVariable@Core@@@boost@@@_STL@@U?$_Nonconst_traits@U?$pair@$$CBIV?$shared_ptr@VConsoleVariable@Core@@@boost@@@_STL@@@2@@_STL@@QAE@PAU?$_Rb_tree_node@U?$pair@$$CBIV?$shared_ptr@VConsoleVariable@Core@@@boost@@@_STL@@@1@@Z 004103fd f i Core:Console.obj
 0001:0000f3fd       ??0?$non_empty_subject@ABV?$rule@V?$scanner@PBDU?$scanner_policies@Uiteration_policy@spirit@boost@@Umatch_policy@23@Uaction_policy@23@@spirit@boost@@@spirit@boost@@Uparser_context@23@Uparser_address_tag@23@@spirit@boost@@U?$parser@V?$action@V?$rule@V?$scanner@PBDU?$scanner_policies@Uiteration_policy@spirit@boost@@Umatch_policy@23@Uaction_policy@23@@spirit@boost@@@spirit@boost@@Uparser_context@23@Uparser_address_tag@23@@spirit@boost@@VAddBooleanToArgs@@@spirit@boost@@@23@@impl@spirit@boost@@QAE@ABV?$rule@V?$scanner@PBDU?$scanner_policies@Uiteration_policy@spirit@boost@@Umatch_policy@23@Uaction_policy@23@@spirit@boost@@@spirit@boost@@Uparser_context@23@Uparser_address_tag@23@@23@@Z 004103fd f i Core:ConsoleCommandLineParser.obj
 0001:0000f3fd       ??0?$non_empty_subject@ABV?$rule@V?$scanner@PBDU?$scanner_policies@Uiteration_policy@spirit@boost@@Umatch_policy@23@Uaction_policy@23@@spirit@boost@@@spirit@boost@@Uparser_context@23@Uparser_address_tag@23@@spirit@boost@@U?$parser@U?$alternative@V?$rule@V?$scanner@PBDU?$scanner_policies@Uiteration_policy@spirit@boost@@Umatch_policy@23@Uaction_policy@23@@spirit@boost@@@spirit@boost@@Uparser_context@23@Uparser_address_tag@23@@spirit@boost@@V123@@spirit@boost@@@23@@impl@spirit@boost@@QAE@ABV?$rule@V?$scanner@PBDU?$scanner_policies@Uiteration_policy@spirit@boost@@Umatch_policy@23@Uaction_policy@23@@spirit@boost@@@spirit@boost@@Uparser_context@23@Uparser_address_tag@23@@23@@Z 004103fd f i Core:ConsoleCommandLineParser.obj
 0001:0000f3fd       ??0?$non_empty_subject@ABV?$rule@V?$scanner@PBDU?$scanner_policies@Uiteration_policy@spirit@boost@@Umatch_policy@23@Uaction_policy@23@@spirit@boost@@@spirit@boost@@Uparser_context@23@Uparser_address_tag@23@@spirit@boost@@U?$parser@V?$action@V?$rule@V?$scanner@PBDU?$scanner_policies@Uiteration_policy@spirit@boost@@Umatch_policy@23@Uaction_policy@23@@spirit@boost@@@spirit@boost@@Uparser_context@23@Uparser_address_tag@23@@spirit@boost@@V?$assign_actor@V?$basic_string@DV?$char_traits@D@_STL@@V?$allocator@D@2@@_STL@@@23@@spirit@boost@@@23@@impl@spirit@boost@@QAE@ABV?$rule@V?$scanner@PBDU?$scanner_policies@Uiteration_policy@spirit@boost@@Umatch_policy@23@Uaction_policy@23@@spirit@boost@@@spirit@boost@@Uparser_context@23@Uparser_address_tag@23@@23@@Z 004103fd f i Core:ConsoleCommandLineParser.obj
 0001:0000f3fd       ??0?$_Base_bitset@$00@_STL@@QAE@K@Z 004103fd f i Core:ConsoleVariableHelpers.obj
 0001:0000f3fd       ??0AddBooleanToArgs@@QAE@AAV?$vector@Vany@boost@@V?$allocator@Vany@boost@@@_STL@@@_STL@@@Z 004103fd f i Core:ConsoleCommandLineParser.obj
 0001:0000f3fd       ??0?$non_empty_subject@ABV?$rule@V?$scanner@PBDU?$scanner_policies@Uiteration_policy@spirit@boost@@Umatch_policy@23@Uaction_policy@23@@spirit@boost@@@spirit@boost@@Uparser_context@23@Uparser_address_tag@23@@spirit@boost@@U?$parser@U?$alternative@U?$alternative@V?$rule@V?$scanner@PBDU?$scanner_policies@Uiteration_policy@spirit@boost@@Umatch_policy@23@Uaction_policy@23@@spirit@boost@@@spirit@boost@@Uparser_context@23@Uparser_address_tag@23@@spirit@boost@@V123@@spirit@boost@@V?$rule@V?$scanner@PBDU?$scanner_policies@Uiteration_policy@spirit@boost@@Umatch_policy@23@Uaction_policy@23@@spirit@boost@@@spirit@boost@@Uparser_context@23@Uparser_address_tag@23@@23@@spirit@boost@@@23@@impl@spirit@boost@@QAE@ABV?$rule@V?$scanner@PBDU?$scanner_policies@Uiteration_policy@spirit@boost@@Umatch_policy@23@Uaction_policy@23@@spirit@boost@@@spirit@boost@@Uparser_context@23@Uparser_address_tag@23@@23@@Z 004103fd f i Core:ConsoleCommandLineParser.obj
 0001:0000f3fd       ??0parser_id@spirit@boost@@QAE@PBX@Z 004103fd f i Core:ConsoleCommandLineParser.obj
 0001:0000f3fd       ??0?$_Rb_tree_iterator@U?$pair@$$CBJV?$basic_string@DV?$char_traits@D@_STL@@V?$allocator@D@2@@_STL@@@_STL@@U?$_Nonconst_traits@U?$pair@$$CBJV?$basic_string@DV?$char_traits@D@_STL@@V?$allocator@D@2@@_STL@@@_STL@@@2@@_STL@@QAE@PAU?$_Rb_tree_node@U?$pair@$$CBJV?$basic_string@DV?$char_traits@D@_STL@@V?$allocator@D@2@@_STL@@@_STL@@@1@@Z 004103fd f i DirectX9Renderer:ErrorCodes.obj
 0001:0000f3fd       ??0AddUnsignedIntegerToArgs@@QAE@AAV?$vector@Vany@boost@@V?$allocator@Vany@boost@@@_STL@@@_STL@@@Z 004103fd f i Core:ConsoleCommandLineParser.obj
 0001:0000f3fd       ??0?$_Rb_tree_iterator@U?$pair@$$CBW4_D3DFORMAT@@V?$basic_string@DV?$char_traits@D@_STL@@V?$allocator@D@2@@_STL@@@_STL@@U?$_Nonconst_traits@U?$pair@$$CBW4_D3DFORMAT@@V?$basic_string@DV?$char_traits@D@_STL@@V?$allocator@D@2@@_STL@@@_STL@@@2@@_STL@@QAE@PAU?$_Rb_tree_node@U?$pair@$$CBW4_D3DFORMAT@@V?$basic_string@DV?$char_traits@D@_STL@@V?$allocator@D@2@@_STL@@@_STL@@@1@@Z 004103fd f i DirectX9Renderer:Formats.obj
 0001:0000f3fd       ??0?$_Rb_tree_iterator@U?$pair@$$CBIPAVConsoleCommand@Core@@@_STL@@U?$_Nonconst_traits@U?$pair@$$CBIPAVConsoleCommand@Core@@@_STL@@@2@@_STL@@QAE@PAU?$_Rb_tree_node@U?$pair@$$CBIPAVConsoleCommand@Core@@@_STL@@@1@@Z 004103fd f i Core:Console.obj
 0001:0000f3fd       ??0AddIntegerToArgs@@QAE@AAV?$vector@Vany@boost@@V?$allocator@Vany@boost@@@_STL@@@_STL@@@Z 004103fd f i Core:ConsoleCommandLineParser.obj
 0001:0000f3fd       ??0?$_Rb_tree_iterator@U?$pair@$$CBIV?$shared_ptr@VRendererCreator@Renderer@@@boost@@@_STL@@U?$_Nonconst_traits@U?$pair@$$CBIV?$shared_ptr@VRendererCreator@Renderer@@@boost@@@_STL@@@2@@_STL@@QAE@PAU?$_Rb_tree_node@U?$pair@$$CBIV?$shared_ptr@VRendererCreator@Renderer@@@boost@@@_STL@@@1@@Z 004103fd f i Renderer:RendererFactory.obj
 0001:0000f3fd       ??0?$reverse_iterator@PAPAU?$grammar_helper_base@U?$grammar@VConsoleGrammar@@Uparser_context@spirit@boost@@@spirit@boost@@@impl@spirit@boost@@PAU1234@AAPAU1234@PAPAU1234@H@_STL@@QAE@PAPAU?$grammar_helper_base@U?$grammar@VConsoleGrammar@@Uparser_context@spirit@boost@@@spirit@boost@@@impl@spirit@boost@@@Z 004103fd f i Core:ConsoleCommandLineParser.obj
 0001:0000f3fd       ??0?$non_empty_subject@ABV?$rule@V?$scanner@PBDU?$scanner_policies@Uiteration_policy@spirit@boost@@Umatch_policy@23@Uaction_policy@23@@spirit@boost@@@spirit@boost@@Uparser_context@23@Uparser_address_tag@23@@spirit@boost@@U?$parser@U?$sequence@U?$positive@Uspace_parser@spirit@boost@@@spirit@boost@@V?$rule@V?$scanner@PBDU?$scanner_policies@Uiteration_policy@spirit@boost@@Umatch_policy@23@Uaction_policy@23@@spirit@boost@@@spirit@boost@@Uparser_context@23@Uparser_address_tag@23@@23@@spirit@boost@@@23@@impl@spirit@boost@@QAE@ABV?$rule@V?$scanner@PBDU?$scanner_policies@Uiteration_policy@spirit@boost@@Umatch_policy@23@Uaction_policy@23@@spirit@boost@@@spirit@boost@@Uparser_context@23@Uparser_address_tag@23@@23@@Z 004103fd f i Core:ConsoleCommandLineParser.obj
 0001:0000f3fd       ??0AddFloatToArgs@@QAE@AAV?$vector@Vany@boost@@V?$allocator@Vany@boost@@@_STL@@@_STL@@@Z 004103fd f i Core:ConsoleCommandLineParser.obj
 0001:0000f3fd       ??0?$mem_fun1_t@HU?$grammar_helper_base@U?$grammar@VConsoleGrammar@@Uparser_context@spirit@boost@@@spirit@boost@@@impl@spirit@boost@@PAU?$grammar@VConsoleGrammar@@Uparser_context@spirit@boost@@@34@@_STL@@QAE@P8?$grammar_helper_base@U?$grammar@VConsoleGrammar@@Uparser_context@spirit@boost@@@spirit@boost@@@impl@spirit@boost@@AEHPAU?$grammar@VConsoleGrammar@@Uparser_context@spirit@boost@@@45@@Z@Z 004103fd f i Core:ConsoleCommandLineParser.obj
 0001:0000f3fd       ??0AddString@@QAE@AAV?$vector@Vany@boost@@V?$allocator@Vany@boost@@@_STL@@@_STL@@@Z 004103fd f i Core:ConsoleCommandLineParser.obj
 0001:0000f3fd       ??0?$non_empty_subject@ABV?$rule@V?$scanner@PBDU?$scanner_policies@Uiteration_policy@spirit@boost@@Umatch_policy@23@Uaction_policy@23@@spirit@boost@@@spirit@boost@@Uparser_context@23@Uparser_address_tag@23@@spirit@boost@@U?$parser@V?$action@V?$rule@V?$scanner@PBDU?$scanner_policies@Uiteration_policy@spirit@boost@@Umatch_policy@23@Uaction_policy@23@@spirit@boost@@@spirit@boost@@Uparser_context@23@Uparser_address_tag@23@@spirit@boost@@VAddString@@@spirit@boost@@@23@@impl@spirit@boost@@QAE@ABV?$rule@V?$scanner@PBDU?$scanner_policies@Uiteration_policy@spirit@boost@@Umatch_policy@23@Uaction_policy@23@@spirit@boost@@@spirit@boost@@Uparser_context@23@Uparser_address_tag@23@@23@@Z 004103fd f i Core:ConsoleCommandLineParser.obj
 0001:0000f413       ??0?$non_empty_subject@U?$alternative@U?$alternative@V?$rule@V?$scanner@PBDU?$scanner_policies@Uiteration_policy@spirit@boost@@Umatch_policy@23@Uaction_policy@23@@spirit@boost@@@spirit@boost@@Uparser_context@23@Uparser_address_tag@23@@spirit@boost@@V123@@spirit@boost@@V?$rule@V?$scanner@PBDU?$scanner_policies@Uiteration_policy@spirit@boost@@Umatch_policy@23@Uaction_policy@23@@spirit@boost@@@spirit@boost@@Uparser_context@23@Uparser_address_tag@23@@23@@spirit@boost@@U?$right_subject@V?$action@V?$rule@V?$scanner@PBDU?$scanner_policies@Uiteration_policy@spirit@boost@@Umatch_policy@23@Uaction_policy@23@@spirit@boost@@@spirit@boost@@Uparser_context@23@Uparser_address_tag@23@@spirit@boost@@VAddBooleanToArgs@@@spirit@boost@@U?$parser@U?$alternative@U?$alternative@U?$alternative@V?$rule@V?$scanner@PBDU?$scanner_policies@Uiteration_policy@spirit@boost@@Umatch_policy@23@Uaction_policy@23@@spirit@boost@@@spirit@boost@@Uparser_context@23@Uparser_address_tag@23@@spirit@boost@@V123@@spirit@boost@@V?$rule@V?$scanner@PBDU?$scanner_policies@Uiteration_policy@spirit@boost@@Umatch_policy@23@Uaction_policy@23@@spirit@boost@@@spirit@boost@@Uparser_context@23@Uparser_address_tag@23@@23@@spirit@boost@@V?$action@V?$rule@V?$scanner@PBDU?$scanner_policies@Uiteration_policy@spirit@boost@@Umatch_policy@23@Uaction_policy@23@@spirit@boost@@@spirit@boost@@Uparser_context@23@Uparser_address_tag@23@@spirit@boost@@VAddBooleanToArgs@@@23@@spirit@boost@@@23@@impl@23@@impl@spirit@boost@@QAE@ABU?$right_subject@V?$action@V?$rule@V?$scanner@PBDU?$scanner_policies@Uiteration_policy@spirit@boost@@Umatch_policy@23@Uaction_policy@23@@spirit@boost@@@spirit@boost@@Uparser_context@23@Uparser_address_tag@23@@spirit@boost@@VAddBooleanToArgs@@@spirit@boost@@U?$parser@U?$alternative@U?$alternative@U?$alternative@V?$rule@V?$scanner@PBDU?$scanner_policies@Uiteration_policy@spirit@boost@@Umatch_policy@23@Uaction_policy@23@@spirit@boost@@@spirit@boost@@Uparser_context@23@Uparser_address_tag@23@@spirit@boost@@V123@@spirit@boost@@V?$rule@V?$scanner@PBDU?$scanner_policies@Uiteration_policy@spirit@boost@@Umatch_policy@23@Uaction_policy@23@@spirit@boost@@@spirit@boost@@Uparser_context@23@Uparser_address_tag@23@@23@@spirit@boost@@V?$action@V?$rule@V?$scanner@PBDU?$scanner_policies@Uiteration_policy@spirit@boost@@Umatch_policy@23@Uaction_policy@23@@spirit@boost@@@spirit@boost@@Uparser_context@23@Uparser_address_tag@23@@spirit@boost@@VAddBooleanToArgs@@@23@@spirit@boost@@@23@@123@ABU?$alternative@U?$alternative@V?$rule@V?$scanner@PBDU?$scanner_policies@Uiteration_policy@spirit@boost@@Umatch_policy@23@Uaction_policy@23@@spirit@boost@@@spirit@boost@@Uparser_context@23@Uparser_address_tag@23@@spirit@boost@@V123@@spirit@boost@@V?$rule@V?$scanner@PBDU?$scanner_policies@Uiteration_policy@spirit@boost@@Umatch_policy@23@Uaction_policy@23@@spirit@boost@@@spirit@boost@@Uparser_context@23@Uparser_address_tag@23@@23@@23@@Z 00410413 f i Core:ConsoleCommandLineParser.obj
 0001:0000f441       ??0?$non_empty_subject@U?$alternative@U?$alternative@U?$alternative@V?$rule@V?$scanner@PBDU?$scanner_policies@Uiteration_policy@spirit@boost@@Umatch_policy@23@Uaction_policy@23@@spirit@boost@@@spirit@boost@@Uparser_context@23@Uparser_address_tag@23@@spirit@boost@@V123@@spirit@boost@@V?$rule@V?$scanner@PBDU?$scanner_policies@Uiteration_policy@spirit@boost@@Umatch_policy@23@Uaction_policy@23@@spirit@boost@@@spirit@boost@@Uparser_context@23@Uparser_address_tag@23@@23@@spirit@boost@@V?$action@V?$rule@V?$scanner@PBDU?$scanner_policies@Uiteration_policy@spirit@boost@@Umatch_policy@23@Uaction_policy@23@@spirit@boost@@@spirit@boost@@Uparser_context@23@Uparser_address_tag@23@@spirit@boost@@VAddBooleanToArgs@@@23@@spirit@boost@@U?$right_subject@V?$action@V?$rule@V?$scanner@PBDU?$scanner_policies@Uiteration_policy@spirit@boost@@Umatch_policy@23@Uaction_policy@23@@spirit@boost@@@spirit@boost@@Uparser_context@23@Uparser_address_tag@23@@spirit@boost@@VAddString@@@spirit@boost@@U?$parser@U?$alternative@U?$alternative@U?$alternative@U?$alternative@V?$rule@V?$scanner@PBDU?$scanner_policies@Uiteration_policy@spirit@boost@@Umatch_policy@23@Uaction_policy@23@@spirit@boost@@@spirit@boost@@Uparser_context@23@Uparser_address_tag@23@@spirit@boost@@V123@@spirit@boost@@V?$rule@V?$scanner@PBDU?$scanner_policies@Uiteration_policy@spirit@boost@@Umatch_policy@23@Uaction_policy@23@@spirit@boost@@@spirit@boost@@Uparser_context@23@Uparser_address_tag@23@@23@@spirit@boost@@V?$action@V?$rule@V?$scanner@PBDU?$scanner_policies@Uiteration_policy@spirit@boost@@Umatch_policy@23@Uaction_policy@23@@spirit@boost@@@spirit@boost@@Uparser_context@23@Uparser_address_tag@23@@spirit@boost@@VAddBooleanToArgs@@@23@@spirit@boost@@V?$action@V?$rule@V?$scanner@PBDU?$scanner_policies@Uiteration_policy@spirit@boost@@Umatch_policy@23@Uaction_policy@23@@spirit@boost@@@spirit@boost@@Uparser_context@23@Uparser_address_tag@23@@spirit@boost@@VAddString@@@23@@spirit@boost@@@23@@impl@23@@impl@spirit@boost@@QAE@ABU?$right_subject@V?$action@V?$rule@V?$scanner@PBDU?$scanner_policies@Uiteration_policy@spirit@boost@@Umatch_policy@23@Uaction_policy@23@@spirit@boost@@@spirit@boost@@Uparser_context@23@Uparser_address_tag@23@@spirit@boost@@VAddString@@@spirit@boost@@U?$parser@U?$alternative@U?$alternative@U?$alternative@U?$alternative@V?$rule@V?$scanner@PBDU?$scanner_policies@Uiteration_policy@spirit@boost@@Umatch_policy@23@Uaction_policy@23@@spirit@boost@@@spirit@boost@@Uparser_context@23@Uparser_address_tag@23@@spirit@boost@@V123@@spirit@boost@@V?$rule@V?$scanner@PBDU?$scanner_policies@Uiteration_policy@spirit@boost@@Umatch_policy@23@Uaction_policy@23@@spirit@boost@@@spirit@boost@@Uparser_context@23@Uparser_address_tag@23@@23@@spirit@boost@@V?$action@V?$rule@V?$scanner@PBDU?$scanner_policies@Uiteration_policy@spirit@boost@@Umatch_policy@23@Uaction_policy@23@@spirit@boost@@@spirit@boost@@Uparser_context@23@Uparser_address_tag@23@@spirit@boost@@VAddBooleanToArgs@@@23@@spirit@boost@@V?$action@V?$rule@V?$scanner@PBDU?$scanner_policies@Uiteration_policy@spirit@boost@@Umatch_policy@23@Uaction_policy@23@@spirit@boost@@@spirit@boost@@Uparser_context@23@Uparser_address_tag@23@@spirit@boost@@VAddString@@@23@@spirit@boost@@@23@@123@ABU?$alternative@U?$alternative@U?$alternative@V?$rule@V?$scanner@PBDU?$scanner_policies@Uiteration_policy@spirit@boost@@Umatch_policy@23@Uaction_policy@23@@spirit@boost@@@spirit@boost@@Uparser_context@23@Uparser_address_tag@23@@spirit@boost@@V123@@spirit@boost@@V?$rule@V?$scanner@PBDU?$scanner_policies@Uiteration_policy@spirit@boost@@Umatch_policy@23@Uaction_policy@23@@spirit@boost@@@spirit@boost@@Uparser_context@23@Uparser_address_tag@23@@23@@spirit@boost@@V?$action@V?$rule@V?$scanner@PBDU?$scanner_policies@Uiteration_policy@spirit@boost@@Umatch_policy@23@Uaction_policy@23@@spirit@boost@@@spirit@boost@@Uparser_context@23@Uparser_address_tag@23@@spirit@boost@@VAddBooleanToArgs@@@23@@23@@Z 00410441 f i Core:ConsoleCommandLineParser.obj
 0001:0000f471       ??0?$empty_subject@Ualnum_parser@spirit@boost@@U?$right_subject@U?$chlit@D@spirit@boost@@U?$parser@U?$alternative@Ualnum_parser@spirit@boost@@U?$chlit@D@23@@spirit@boost@@@23@@impl@23@@impl@spirit@boost@@QAE@ABU?$right_subject@U?$chlit@D@spirit@boost@@U?$parser@U?$alternative@Ualnum_parser@spirit@boost@@U?$chlit@D@23@@spirit@boost@@@23@@123@ABUalnum_parser@23@@Z 00410471 f i Core:ConsoleCommandLineParser.obj
 0001:0000f471       ??0?$empty_subject@Ualpha_parser@spirit@boost@@U?$right_subject@U?$chlit@D@spirit@boost@@U?$parser@U?$alternative@Ualpha_parser@spirit@boost@@U?$chlit@D@23@@spirit@boost@@@23@@impl@23@@impl@spirit@boost@@QAE@ABU?$right_subject@U?$chlit@D@spirit@boost@@U?$parser@U?$alternative@Ualpha_parser@spirit@boost@@U?$chlit@D@23@@spirit@boost@@@23@@123@ABUalpha_parser@23@@Z 00410471 f i Core:ConsoleCommandLineParser.obj
 0001:0000f489       ??0?$non_empty_subject@U?$positive@U?$alternative@Ualpha_parser@spirit@boost@@U?$chlit@D@23@@spirit@boost@@@spirit@boost@@U?$right_subject@U?$kleene_star@U?$alternative@Ualnum_parser@spirit@boost@@U?$chlit@D@23@@spirit@boost@@@spirit@boost@@U?$parser@U?$sequence@U?$positive@U?$alternative@Ualpha_parser@spirit@boost@@U?$chlit@D@23@@spirit@boost@@@spirit@boost@@U?$kleene_star@U?$alternative@Ualnum_parser@spirit@boost@@U?$chlit@D@23@@spirit@boost@@@23@@spirit@boost@@@23@@impl@23@@impl@spirit@boost@@QAE@ABU?$right_subject@U?$kleene_star@U?$alternative@Ualnum_parser@spirit@boost@@U?$chlit@D@23@@spirit@boost@@@spirit@boost@@U?$parser@U?$sequence@U?$positive@U?$alternative@Ualpha_parser@spirit@boost@@U?$chlit@D@23@@spirit@boost@@@spirit@boost@@U?$kleene_star@U?$alternative@Ualnum_parser@spirit@boost@@U?$chlit@D@23@@spirit@boost@@@23@@spirit@boost@@@23@@123@ABU?$positive@U?$alternative@Ualpha_parser@spirit@boost@@U?$chlit@D@23@@spirit@boost@@@23@@Z 00410489 f i Core:ConsoleCommandLineParser.obj
 0001:0000f489       ??0?$non_empty_subject@U?$chlit@D@spirit@boost@@U?$right_subject@U?$kleene_star@U?$negated_char_parser@U?$chlit@D@spirit@boost@@@spirit@boost@@@spirit@boost@@U?$parser@U?$sequence@U?$chlit@D@spirit@boost@@U?$kleene_star@U?$negated_char_parser@U?$chlit@D@spirit@boost@@@spirit@boost@@@23@@spirit@boost@@@23@@impl@23@@impl@spirit@boost@@QAE@ABU?$right_subject@U?$kleene_star@U?$negated_char_parser@U?$chlit@D@spirit@boost@@@spirit@boost@@@spirit@boost@@U?$parser@U?$sequence@U?$chlit@D@spirit@boost@@U?$kleene_star@U?$negated_char_parser@U?$chlit@D@spirit@boost@@@spirit@boost@@@23@@spirit@boost@@@23@@123@ABU?$chlit@D@23@@Z 00410489 f i Core:ConsoleCommandLineParser.obj
 0001:0000f4ac       ??0?$non_empty_subject@U?$sequence@U?$positive@U?$alternative@Ualpha_parser@spirit@boost@@U?$chlit@D@23@@spirit@boost@@@spirit@boost@@U?$kleene_star@U?$alternative@Ualnum_parser@spirit@boost@@U?$chlit@D@23@@spirit@boost@@@23@@spirit@boost@@U?$parser@U?$contiguous@U?$sequence@U?$positive@U?$alternative@Ualpha_parser@spirit@boost@@U?$chlit@D@23@@spirit@boost@@@spirit@boost@@U?$kleene_star@U?$alternative@Ualnum_parser@spirit@boost@@U?$chlit@D@23@@spirit@boost@@@23@@spirit@boost@@@spirit@boost@@@23@@impl@spirit@boost@@QAE@ABU?$sequence@U?$positive@U?$alternative@Ualpha_parser@spirit@boost@@U?$chlit@D@23@@spirit@boost@@@spirit@boost@@U?$kleene_star@U?$alternative@Ualnum_parser@spirit@boost@@U?$chlit@D@23@@spirit@boost@@@23@@23@@Z 004104ac f i Core:ConsoleCommandLineParser.obj
 0001:0000f4c6       ??0?$non_empty_subject@U?$sequence@U?$positive@Uspace_parser@spirit@boost@@@spirit@boost@@V?$rule@V?$scanner@PBDU?$scanner_policies@Uiteration_policy@spirit@boost@@Umatch_policy@23@Uaction_policy@23@@spirit@boost@@@spirit@boost@@Uparser_context@23@Uparser_address_tag@23@@23@@spirit@boost@@U?$parser@U?$kleene_star@U?$sequence@U?$positive@Uspace_parser@spirit@boost@@@spirit@boost@@V?$rule@V?$scanner@PBDU?$scanner_policies@Uiteration_policy@spirit@boost@@Umatch_policy@23@Uaction_policy@23@@spirit@boost@@@spirit@boost@@Uparser_context@23@Uparser_address_tag@23@@23@@spirit@boost@@@spirit@boost@@@23@@impl@spirit@boost@@QAE@ABU?$sequence@U?$positive@Uspace_parser@spirit@boost@@@spirit@boost@@V?$rule@V?$scanner@PBDU?$scanner_policies@Uiteration_policy@spirit@boost@@Umatch_policy@23@Uaction_policy@23@@spirit@boost@@@spirit@boost@@Uparser_context@23@Uparser_address_tag@23@@23@@23@@Z 004104c6 f i Core:ConsoleCommandLineParser.obj
 0001:0000f4c6       ??0?$non_empty_subject@V?$action@U?$real_parser@NU?$strict_real_parser_policies@N@spirit@boost@@@spirit@boost@@VAddFloatToArgs@@@spirit@boost@@U?$parser@U?$contiguous@V?$action@U?$real_parser@NU?$strict_real_parser_policies@N@spirit@boost@@@spirit@boost@@VAddFloatToArgs@@@spirit@boost@@@spirit@boost@@@23@@impl@spirit@boost@@QAE@ABV?$action@U?$real_parser@NU?$strict_real_parser_policies@N@spirit@boost@@@spirit@boost@@VAddFloatToArgs@@@23@@Z 004104c6 f i Core:ConsoleCommandLineParser.obj
 0001:0000f4c6       ??0?$non_empty_subject@V?$action@U?$uint_parser@I$09$00$0?0@spirit@boost@@VAddUnsignedIntegerToArgs@@@spirit@boost@@U?$parser@U?$contiguous@V?$action@U?$uint_parser@I$09$00$0?0@spirit@boost@@VAddUnsignedIntegerToArgs@@@spirit@boost@@@spirit@boost@@@23@@impl@spirit@boost@@QAE@ABV?$action@U?$uint_parser@I$09$00$0?0@spirit@boost@@VAddUnsignedIntegerToArgs@@@23@@Z 004104c6 f i Core:ConsoleCommandLineParser.obj
 0001:0000f4c6       ??0?$non_empty_subject@U?$kleene_star@U?$sequence@U?$positive@Uspace_parser@spirit@boost@@@spirit@boost@@V?$rule@V?$scanner@PBDU?$scanner_policies@Uiteration_policy@spirit@boost@@Umatch_policy@23@Uaction_policy@23@@spirit@boost@@@spirit@boost@@Uparser_context@23@Uparser_address_tag@23@@23@@spirit@boost@@@spirit@boost@@U?$parser@U?$sequence@V?$action@V?$rule@V?$scanner@PBDU?$scanner_policies@Uiteration_policy@spirit@boost@@Umatch_policy@23@Uaction_policy@23@@spirit@boost@@@spirit@boost@@Uparser_context@23@Uparser_address_tag@23@@spirit@boost@@V?$assign_actor@V?$basic_string@DV?$char_traits@D@_STL@@V?$allocator@D@2@@_STL@@@23@@spirit@boost@@U?$kleene_star@U?$sequence@U?$positive@Uspace_parser@spirit@boost@@@spirit@boost@@V?$rule@V?$scanner@PBDU?$scanner_policies@Uiteration_policy@spirit@boost@@Umatch_policy@23@Uaction_policy@23@@spirit@boost@@@spirit@boost@@Uparser_context@23@Uparser_address_tag@23@@23@@spirit@boost@@@23@@spirit@boost@@@23@@impl@spirit@boost@@QAE@ABU?$kleene_star@U?$sequence@U?$positive@Uspace_parser@spirit@boost@@@spirit@boost@@V?$rule@V?$scanner@PBDU?$scanner_policies@Uiteration_policy@spirit@boost@@Umatch_policy@23@Uaction_policy@23@@spirit@boost@@@spirit@boost@@Uparser_context@23@Uparser_address_tag@23@@23@@spirit@boost@@@23@@Z 004104c6 f i Core:ConsoleCommandLineParser.obj
 0001:0000f4c6       ??0?$non_empty_subject@V?$action@U?$int_parser@H$09$00$0?0@spirit@boost@@VAddIntegerToArgs@@@spirit@boost@@U?$parser@U?$contiguous@V?$action@U?$int_parser@H$09$00$0?0@spirit@boost@@VAddIntegerToArgs@@@spirit@boost@@@spirit@boost@@@23@@impl@spirit@boost@@QAE@ABV?$action@U?$int_parser@H$09$00$0?0@spirit@boost@@VAddIntegerToArgs@@@23@@Z 004104c6 f i Core:ConsoleCommandLineParser.obj
 0001:0000f4de       ??0?$non_empty_subject@U?$difference@U?$negated_char_parser@U?$chlit@D@spirit@boost@@@spirit@boost@@Uspace_parser@23@@spirit@boost@@U?$parser@U?$kleene_star@U?$difference@U?$negated_char_parser@U?$chlit@D@spirit@boost@@@spirit@boost@@Uspace_parser@23@@spirit@boost@@@spirit@boost@@@23@@impl@spirit@boost@@QAE@ABU?$difference@U?$negated_char_parser@U?$chlit@D@spirit@boost@@@spirit@boost@@Uspace_parser@23@@23@@Z 004104de f i Core:ConsoleCommandLineParser.obj
 0001:0000f4de       ??0?$non_empty_subject@U?$chlit@D@spirit@boost@@U?$parser@U?$inhibit_case@U?$chlit@D@spirit@boost@@@spirit@boost@@@23@@impl@spirit@boost@@QAE@ABU?$chlit@D@23@@Z 004104de f i Core:ConsoleCommandLineParser.obj
 0001:0000f4de       ??0?$inhibit_case_iteration_policy@Uiteration_policy@spirit@boost@@@spirit@boost@@QAE@ABV?$scanner@PBDU?$scanner_policies@Uiteration_policy@spirit@boost@@Umatch_policy@23@Uaction_policy@23@@spirit@boost@@@12@@Z 004104de f i Core:ConsoleCommandLineParser.obj
 0001:0000f4de       ??0?$non_empty_subject@U?$chlit@D@spirit@boost@@U?$parser@U?$alternative@Ualnum_parser@spirit@boost@@U?$chlit@D@23@@spirit@boost@@@23@@impl@spirit@boost@@QAE@ABU?$chlit@D@23@@Z 004104de f i Core:ConsoleCommandLineParser.obj
 0001:0000f4de       ??0?$non_empty_subject@U?$kleene_star@U?$difference@U?$negated_char_parser@U?$chlit@D@spirit@boost@@@spirit@boost@@Uspace_parser@23@@spirit@boost@@@spirit@boost@@U?$parser@U?$alternative@U?$sequence@U?$sequence@U?$chlit@D@spirit@boost@@U?$kleene_star@U?$negated_char_parser@U?$chlit@D@spirit@boost@@@spirit@boost@@@23@@spirit@boost@@U?$chlit@D@23@@spirit@boost@@U?$kleene_star@U?$difference@U?$negated_char_parser@U?$chlit@D@spirit@boost@@@spirit@boost@@Uspace_parser@23@@spirit@boost@@@23@@spirit@boost@@@23@@impl@spirit@boost@@QAE@ABU?$kleene_star@U?$difference@U?$negated_char_parser@U?$chlit@D@spirit@boost@@@spirit@boost@@Uspace_parser@23@@spirit@boost@@@23@@Z 004104de f i Core:ConsoleCommandLineParser.obj
 0001:0000f4de       ??0?$non_empty_subject@U?$kleene_star@U?$alternative@Ualnum_parser@spirit@boost@@U?$chlit@D@23@@spirit@boost@@@spirit@boost@@U?$parser@U?$sequence@U?$positive@U?$alternative@Ualpha_parser@spirit@boost@@U?$chlit@D@23@@spirit@boost@@@spirit@boost@@U?$kleene_star@U?$alternative@Ualnum_parser@spirit@boost@@U?$chlit@D@23@@spirit@boost@@@23@@spirit@boost@@@23@@impl@spirit@boost@@QAE@ABU?$kleene_star@U?$alternative@Ualnum_parser@spirit@boost@@U?$chlit@D@23@@spirit@boost@@@23@@Z 004104de f i Core:ConsoleCommandLineParser.obj
 0001:0000f4de       ??0?$non_empty_subject@U?$alternative@Ualnum_parser@spirit@boost@@U?$chlit@D@23@@spirit@boost@@U?$parser@U?$kleene_star@U?$alternative@Ualnum_parser@spirit@boost@@U?$chlit@D@23@@spirit@boost@@@spirit@boost@@@23@@impl@spirit@boost@@QAE@ABU?$alternative@Ualnum_parser@spirit@boost@@U?$chlit@D@23@@23@@Z 004104de f i Core:ConsoleCommandLineParser.obj
 0001:0000f4de       ??0?$non_empty_subject@U?$alternative@Ualpha_parser@spirit@boost@@U?$chlit@D@23@@spirit@boost@@U?$parser@U?$positive@U?$alternative@Ualpha_parser@spirit@boost@@U?$chlit@D@23@@spirit@boost@@@spirit@boost@@@23@@impl@spirit@boost@@QAE@ABU?$alternative@Ualpha_parser@spirit@boost@@U?$chlit@D@23@@23@@Z 004104de f i Core:ConsoleCommandLineParser.obj
 0001:0000f4de       ??0?$non_empty_subject@U?$chlit@D@spirit@boost@@U?$parser@U?$alternative@Ualpha_parser@spirit@boost@@U?$chlit@D@23@@spirit@boost@@@23@@impl@spirit@boost@@QAE@ABU?$chlit@D@23@@Z 004104de f i Core:ConsoleCommandLineParser.obj
 0001:0000f4de       ??0?$non_empty_subject@U?$negated_char_parser@U?$chlit@D@spirit@boost@@@spirit@boost@@U?$parser@U?$kleene_star@U?$negated_char_parser@U?$chlit@D@spirit@boost@@@spirit@boost@@@spirit@boost@@@23@@impl@spirit@boost@@QAE@ABU?$negated_char_parser@U?$chlit@D@spirit@boost@@@23@@Z 004104de f i Core:ConsoleCommandLineParser.obj
 0001:0000f4de       ??0?$non_empty_subject@U?$kleene_star@U?$negated_char_parser@U?$chlit@D@spirit@boost@@@spirit@boost@@@spirit@boost@@U?$parser@U?$sequence@U?$chlit@D@spirit@boost@@U?$kleene_star@U?$negated_char_parser@U?$chlit@D@spirit@boost@@@spirit@boost@@@23@@spirit@boost@@@23@@impl@spirit@boost@@QAE@ABU?$kleene_star@U?$negated_char_parser@U?$chlit@D@spirit@boost@@@spirit@boost@@@23@@Z 004104de f i Core:ConsoleCommandLineParser.obj
 0001:0000f4de       ??0?$non_empty_subject@U?$chlit@D@spirit@boost@@U?$parser@U?$sequence@U?$sequence@U?$chlit@D@spirit@boost@@U?$kleene_star@U?$negated_char_parser@U?$chlit@D@spirit@boost@@@spirit@boost@@@23@@spirit@boost@@U?$chlit@D@23@@spirit@boost@@@23@@impl@spirit@boost@@QAE@ABU?$chlit@D@23@@Z 004104de f i Core:ConsoleCommandLineParser.obj
 0001:0000f4f6       ??0?$non_empty_subject@U?$sequence@U?$chlit@D@spirit@boost@@U?$kleene_star@U?$negated_char_parser@U?$chlit@D@spirit@boost@@@spirit@boost@@@23@@spirit@boost@@U?$right_subject@U?$chlit@D@spirit@boost@@U?$parser@U?$sequence@U?$sequence@U?$chlit@D@spirit@boost@@U?$kleene_star@U?$negated_char_parser@U?$chlit@D@spirit@boost@@@spirit@boost@@@23@@spirit@boost@@U?$chlit@D@23@@spirit@boost@@@23@@impl@23@@impl@spirit@boost@@QAE@ABU?$right_subject@U?$chlit@D@spirit@boost@@U?$parser@U?$sequence@U?$sequence@U?$chlit@D@spirit@boost@@U?$kleene_star@U?$negated_char_parser@U?$chlit@D@spirit@boost@@@spirit@boost@@@23@@spirit@boost@@U?$chlit@D@23@@spirit@boost@@@23@@123@ABU?$sequence@U?$chlit@D@spirit@boost@@U?$kleene_star@U?$negated_char_parser@U?$chlit@D@spirit@boost@@@spirit@boost@@@23@@23@@Z 004104f6 f i Core:ConsoleCommandLineParser.obj
 0001:0000f51b       ??0?$non_empty_subject@U?$negated_char_parser@U?$chlit@D@spirit@boost@@@spirit@boost@@U?$right_subject@Uspace_parser@spirit@boost@@U?$parser@U?$difference@U?$negated_char_parser@U?$chlit@D@spirit@boost@@@spirit@boost@@Uspace_parser@23@@spirit@boost@@@23@@impl@23@@impl@spirit@boost@@QAE@ABU?$right_subject@Uspace_parser@spirit@boost@@U?$parser@U?$difference@U?$negated_char_parser@U?$chlit@D@spirit@boost@@@spirit@boost@@Uspace_parser@23@@spirit@boost@@@23@@123@ABU?$negated_char_parser@U?$chlit@D@spirit@boost@@@23@@Z 0041051b f i Core:ConsoleCommandLineParser.obj
 0001:0000f53d       ??0?$non_empty_subject@U?$sequence@U?$sequence@U?$chlit@D@spirit@boost@@U?$kleene_star@U?$negated_char_parser@U?$chlit@D@spirit@boost@@@spirit@boost@@@23@@spirit@boost@@U?$chlit@D@23@@spirit@boost@@U?$right_subject@U?$kleene_star@U?$difference@U?$negated_char_parser@U?$chlit@D@spirit@boost@@@spirit@boost@@Uspace_parser@23@@spirit@boost@@@spirit@boost@@U?$parser@U?$alternative@U?$sequence@U?$sequence@U?$chlit@D@spirit@boost@@U?$kleene_star@U?$negated_char_parser@U?$chlit@D@spirit@boost@@@spirit@boost@@@23@@spirit@boost@@U?$chlit@D@23@@spirit@boost@@U?$kleene_star@U?$difference@U?$negated_char_parser@U?$chlit@D@spirit@boost@@@spirit@boost@@Uspace_parser@23@@spirit@boost@@@23@@spirit@boost@@@23@@impl@23@@impl@spirit@boost@@QAE@ABU?$right_subject@U?$kleene_star@U?$difference@U?$negated_char_parser@U?$chlit@D@spirit@boost@@@spirit@boost@@Uspace_parser@23@@spirit@boost@@@spirit@boost@@U?$parser@U?$alternative@U?$sequence@U?$sequence@U?$chlit@D@spirit@boost@@U?$kleene_star@U?$negated_char_parser@U?$chlit@D@spirit@boost@@@spirit@boost@@@23@@spirit@boost@@U?$chlit@D@23@@spirit@boost@@U?$kleene_star@U?$difference@U?$negated_char_parser@U?$chlit@D@spirit@boost@@@spirit@boost@@Uspace_parser@23@@spirit@boost@@@23@@spirit@boost@@@23@@123@ABU?$sequence@U?$sequence@U?$chlit@D@spirit@boost@@U?$kleene_star@U?$negated_char_parser@U?$chlit@D@spirit@boost@@@spirit@boost@@@23@@spirit@boost@@U?$chlit@D@23@@23@@Z 0041053d f i Core:ConsoleCommandLineParser.obj
 0001:0000f563       ??0?$non_empty_subject@V?$strlit@PBD@spirit@boost@@U?$right_subject@V?$strlit@PBD@spirit@boost@@U?$parser@U?$alternative@V?$strlit@PBD@spirit@boost@@V123@@spirit@boost@@@23@@impl@23@@impl@spirit@boost@@QAE@ABU?$right_subject@V?$strlit@PBD@spirit@boost@@U?$parser@U?$alternative@V?$strlit@PBD@spirit@boost@@V123@@spirit@boost@@@23@@123@ABV?$strlit@PBD@23@@Z 00410563 f i Core:ConsoleCommandLineParser.obj
 0001:0000f592       ??0?$non_empty_subject@V?$action@V?$rule@V?$scanner@PBDU?$scanner_policies@Uiteration_policy@spirit@boost@@Umatch_policy@23@Uaction_policy@23@@spirit@boost@@@spirit@boost@@Uparser_context@23@Uparser_address_tag@23@@spirit@boost@@VAddBooleanToArgs@@@spirit@boost@@U?$parser@U?$alternative@U?$alternative@U?$alternative@V?$rule@V?$scanner@PBDU?$scanner_policies@Uiteration_policy@spirit@boost@@Umatch_policy@23@Uaction_policy@23@@spirit@boost@@@spirit@boost@@Uparser_context@23@Uparser_address_tag@23@@spirit@boost@@V123@@spirit@boost@@V?$rule@V?$scanner@PBDU?$scanner_policies@Uiteration_policy@spirit@boost@@Umatch_policy@23@Uaction_policy@23@@spirit@boost@@@spirit@boost@@Uparser_context@23@Uparser_address_tag@23@@23@@spirit@boost@@V?$action@V?$rule@V?$scanner@PBDU?$scanner_policies@Uiteration_policy@spirit@boost@@Umatch_policy@23@Uaction_policy@23@@spirit@boost@@@spirit@boost@@Uparser_context@23@Uparser_address_tag@23@@spirit@boost@@VAddBooleanToArgs@@@23@@spirit@boost@@@23@@impl@spirit@boost@@QAE@ABV?$action@V?$rule@V?$scanner@PBDU?$scanner_policies@Uiteration_policy@spirit@boost@@Umatch_policy@23@Uaction_policy@23@@spirit@boost@@@spirit@boost@@Uparser_context@23@Uparser_address_tag@23@@spirit@boost@@VAddBooleanToArgs@@@23@@Z 00410592 f i Core:ConsoleCommandLineParser.obj
 0001:0000f592       ??0?$non_empty_subject@V?$strlit@PBD@spirit@boost@@U?$parser@U?$alternative@U?$chlit@D@spirit@boost@@V?$strlit@PBD@23@@spirit@boost@@@23@@impl@spirit@boost@@QAE@ABV?$strlit@PBD@23@@Z 00410592 f i Core:ConsoleCommandLineParser.obj
 0001:0000f592       ??0?$non_empty_subject@V?$strlit@PBD@spirit@boost@@U?$parser@U?$alternative@V?$strlit@PBD@spirit@boost@@V123@@spirit@boost@@@23@@impl@spirit@boost@@QAE@ABV?$strlit@PBD@23@@Z 00410592 f i Core:ConsoleCommandLineParser.obj
 0001:0000f592       ??0?$non_empty_subject@V?$action@V?$rule@V?$scanner@PBDU?$scanner_policies@Uiteration_policy@spirit@boost@@Umatch_policy@23@Uaction_policy@23@@spirit@boost@@@spirit@boost@@Uparser_context@23@Uparser_address_tag@23@@spirit@boost@@VAddString@@@spirit@boost@@U?$parser@U?$alternative@U?$alternative@U?$alternative@U?$alternative@V?$rule@V?$scanner@PBDU?$scanner_policies@Uiteration_policy@spirit@boost@@Umatch_policy@23@Uaction_policy@23@@spirit@boost@@@spirit@boost@@Uparser_context@23@Uparser_address_tag@23@@spirit@boost@@V123@@spirit@boost@@V?$rule@V?$scanner@PBDU?$scanner_policies@Uiteration_policy@spirit@boost@@Umatch_policy@23@Uaction_policy@23@@spirit@boost@@@spirit@boost@@Uparser_context@23@Uparser_address_tag@23@@23@@spirit@boost@@V?$action@V?$rule@V?$scanner@PBDU?$scanner_policies@Uiteration_policy@spirit@boost@@Umatch_policy@23@Uaction_policy@23@@spirit@boost@@@spirit@boost@@Uparser_context@23@Uparser_address_tag@23@@spirit@boost@@VAddBooleanToArgs@@@23@@spirit@boost@@V?$action@V?$rule@V?$scanner@PBDU?$scanner_policies@Uiteration_policy@spirit@boost@@Umatch_policy@23@Uaction_policy@23@@spirit@boost@@@spirit@boost@@Uparser_context@23@Uparser_address_tag@23@@spirit@boost@@VAddString@@@23@@spirit@boost@@@23@@impl@spirit@boost@@QAE@ABV?$action@V?$rule@V?$scanner@PBDU?$scanner_policies@Uiteration_policy@spirit@boost@@Umatch_policy@23@Uaction_policy@23@@spirit@boost@@@spirit@boost@@Uparser_context@23@Uparser_address_tag@23@@spirit@boost@@VAddString@@@23@@Z 00410592 f i Core:ConsoleCommandLineParser.obj
 0001:0000f5b0       ??0?$non_empty_subject@U?$chlit@D@spirit@boost@@U?$right_subject@V?$strlit@PBD@spirit@boost@@U?$parser@U?$alternative@U?$chlit@D@spirit@boost@@V?$strlit@PBD@23@@spirit@boost@@@23@@impl@23@@impl@spirit@boost@@QAE@ABU?$right_subject@V?$strlit@PBD@spirit@boost@@U?$parser@U?$alternative@U?$chlit@D@spirit@boost@@V?$strlit@PBD@23@@spirit@boost@@@23@@123@ABU?$chlit@D@23@@Z 004105b0 f i Core:ConsoleCommandLineParser.obj
 0001:0000f5d9       ??0?$non_empty_subject@U?$alternative@U?$chlit@D@spirit@boost@@V?$strlit@PBD@23@@spirit@boost@@U?$right_subject@U?$kleene_star@Uanychar_parser@spirit@boost@@@spirit@boost@@U?$parser@U?$sequence@U?$alternative@U?$chlit@D@spirit@boost@@V?$strlit@PBD@23@@spirit@boost@@U?$kleene_star@Uanychar_parser@spirit@boost@@@23@@spirit@boost@@@23@@impl@23@@impl@spirit@boost@@QAE@ABU?$right_subject@U?$kleene_star@Uanychar_parser@spirit@boost@@@spirit@boost@@U?$parser@U?$sequence@U?$alternative@U?$chlit@D@spirit@boost@@V?$strlit@PBD@23@@spirit@boost@@U?$kleene_star@Uanychar_parser@spirit@boost@@@23@@spirit@boost@@@23@@123@ABU?$alternative@U?$chlit@D@spirit@boost@@V?$strlit@PBD@23@@23@@Z 004105d9 f i Core:ConsoleCommandLineParser.obj
 0001:0000f5fe       ??0?$allocator@U?$_Rb_tree_node@U?$pair@$$CBIV?$shared_ptr@VConsoleVariable@Core@@@boost@@@_STL@@@_STL@@@_STL@@QAE@ABV?$allocator@U?$pair@$$CBIV?$shared_ptr@VConsoleVariable@Core@@@boost@@@_STL@@@1@@Z 004105fe f i Core:ConsoleVariableManager.obj
 0001:0000f5fe       ??0?$empty_subject@Uspace_parser@spirit@boost@@U?$parser@U?$positive@Uspace_parser@spirit@boost@@@spirit@boost@@@23@@impl@spirit@boost@@QAE@ABUspace_parser@23@@Z 004105fe f i Core:ConsoleCommandLineParser.obj
 0001:0000f5fe       ??0?$empty_subject@U?$uint_parser@I$09$00$0?0@spirit@boost@@U?$parser@V?$action@U?$uint_parser@I$09$00$0?0@spirit@boost@@VAddUnsignedIntegerToArgs@@@spirit@boost@@@23@@impl@spirit@boost@@QAE@ABU?$uint_parser@I$09$00$0?0@23@@Z 004105fe f i Core:ConsoleCommandLineParser.obj
 0001:0000f5fe       ??0?$empty_subject@U?$real_parser@NU?$strict_real_parser_policies@N@spirit@boost@@@spirit@boost@@U?$parser@V?$action@U?$real_parser@NU?$strict_real_parser_policies@N@spirit@boost@@@spirit@boost@@VAddFloatToArgs@@@spirit@boost@@@23@@impl@spirit@boost@@QAE@ABU?$real_parser@NU?$strict_real_parser_policies@N@spirit@boost@@@23@@Z 004105fe f i Core:ConsoleCommandLineParser.obj
 0001:0000f5fe       ??0?$allocator@U?$_Rb_tree_node@U?$pair@$$CBIV?$shared_ptr@VConsoleVariable@Core@@@boost@@@_STL@@@_STL@@@_STL@@QAE@ABV01@@Z 004105fe f i Core:ConsoleVariableManager.obj
 0001:0000f5fe       ??0?$allocator@PAU?$definition@V?$scanner@PBDU?$scanner_policies@Uiteration_policy@spirit@boost@@Umatch_policy@23@Uaction_policy@23@@spirit@boost@@@spirit@boost@@@ConsoleGrammar@@@_STL@@QAE@ABV01@@Z 004105fe f i Core:ConsoleCommandLineParser.obj
 0001:0000f5fe       ??0?$empty_subject@U?$kleene_star@Uanychar_parser@spirit@boost@@@spirit@boost@@U?$parser@U?$sequence@U?$alternative@U?$chlit@D@spirit@boost@@V?$strlit@PBD@23@@spirit@boost@@U?$kleene_star@Uanychar_parser@spirit@boost@@@23@@spirit@boost@@@23@@impl@spirit@boost@@QAE@ABU?$kleene_star@Uanychar_parser@spirit@boost@@@23@@Z 004105fe f i Core:ConsoleCommandLineParser.obj
 0001:0000f5fe       ??0?$allocator@U?$_Rb_tree_node@U?$pair@$$CBJV?$basic_string@DV?$char_traits@D@_STL@@V?$allocator@D@2@@_STL@@@_STL@@@_STL@@@_STL@@QAE@ABV?$allocator@U?$pair@$$CBJV?$basic_string@DV?$char_traits@D@_STL@@V?$allocator@D@2@@_STL@@@_STL@@@1@@Z 004105fe f i DirectX9Renderer:ErrorCodes.obj
 0001:0000f5fe       ??0?$allocator@U?$_Rb_tree_node@U?$pair@$$CBIV?$shared_ptr@VRendererCreator@Renderer@@@boost@@@_STL@@@_STL@@@_STL@@QAE@ABV01@@Z 004105fe f i Renderer:RendererFactory.obj
 0001:0000f5fe       ??0?$allocator@V?$shared_ptr@VVertexBuffer@Renderer@@@boost@@@_STL@@QAE@ABV01@@Z 004105fe f i DirectX9Renderer:DirectX9Renderer.obj
 0001:0000f5fe       ??0?$allocator@U?$_Rb_tree_node@U?$pair@$$CBIPAVConsoleCommand@Core@@@_STL@@@_STL@@@_STL@@QAE@ABV01@@Z 004105fe f i Core:ConsoleCommandManager.obj
 0001:0000f5fe       ??0parser_context@spirit@boost@@QAE@ABV?$rule@V?$scanner@PBDU?$scanner_policies@Uiteration_policy@spirit@boost@@Umatch_policy@23@Uaction_policy@23@@spirit@boost@@@spirit@boost@@Uparser_context@23@Uparser_address_tag@23@@12@@Z 004105fe f i Core:ConsoleCommandLineParser.obj
 0001:0000f5fe       ??0?$allocator@PAU?$grammar_helper_base@U?$grammar@VConsoleGrammar@@Uparser_context@spirit@boost@@@spirit@boost@@@impl@spirit@boost@@@_STL@@QAE@ABV01@@Z 004105fe f i Core:ConsoleCommandLineParser.obj
 0001:0000f5fe       ??0?$allocator@V?$shared_ptr@VProxyType@?$Event@VResizeEventHandler@Core@@VIResizable@2@@Core@@@boost@@@_STL@@QAE@ABV01@@Z 004105fe f i Renderer:RendererWindow.obj
 0001:0000f5fe       ??0?$allocator@V?$shared_ptr@VConsoleOutputEventHandler@Core@@@boost@@@_STL@@QAE@ABV01@@Z 004105fe f i Core:Console.obj
 0001:0000f5fe       ??0?$empty_subject@U?$int_parser@H$09$00$0?0@spirit@boost@@U?$parser@V?$action@U?$int_parser@H$09$00$0?0@spirit@boost@@VAddIntegerToArgs@@@spirit@boost@@@23@@impl@spirit@boost@@QAE@ABU?$int_parser@H$09$00$0?0@23@@Z 004105fe f i Core:ConsoleCommandLineParser.obj
 0001:0000f5fe       ??0?$allocator@U?$_Rb_tree_node@U?$pair@$$CBIPAVConsoleCommand@Core@@@_STL@@@_STL@@@_STL@@QAE@ABV?$allocator@U?$pair@$$CBIPAVConsoleCommand@Core@@@_STL@@@1@@Z 004105fe f i Core:ConsoleCommandManager.obj
 0001:0000f5fe       ??0?$allocator@I@_STL@@QAE@ABV01@@Z 004105fe f i Core:Console.obj
 0001:0000f5fe       ??0?$allocator@V?$shared_ptr@VResizeEventHandler@Core@@@boost@@@_STL@@QAE@ABV01@@Z 004105fe f i Renderer:RendererWindow.obj
 0001:0000f5fe       ??0?$empty_subject@Uspace_parser@spirit@boost@@U?$parser@U?$difference@U?$negated_char_parser@U?$chlit@D@spirit@boost@@@spirit@boost@@Uspace_parser@23@@spirit@boost@@@23@@impl@spirit@boost@@QAE@ABUspace_parser@23@@Z 004105fe f i Core:ConsoleCommandLineParser.obj
 0001:0000f5fe       ??0?$allocator@V?$shared_ptr@VKeyboardEventHandler@Core@@@boost@@@_STL@@QAE@ABV01@@Z 004105fe f i Renderer:RendererWindow.obj
 0001:0000f5fe       ??0?$allocator@V?$basic_string@DV?$char_traits@D@_STL@@V?$allocator@D@2@@_STL@@@_STL@@QAE@ABV01@@Z 004105fe f i Main.obj
 0001:0000f5fe       ??0?$allocator@Vany@boost@@@_STL@@QAE@ABV01@@Z 004105fe f i Core:ConsoleCommandLineParser.obj
 0001:0000f5fe       ??0?$allocator@VDisplayMode@Renderer@@@_STL@@QAE@ABV01@@Z 004105fe f i DirectX9Renderer:DirectX9Renderer.obj
 0001:0000f5fe       ??0?$allocator@U?$_Rb_tree_node@U?$pair@$$CBW4_D3DFORMAT@@V?$basic_string@DV?$char_traits@D@_STL@@V?$allocator@D@2@@_STL@@@_STL@@@_STL@@@_STL@@QAE@ABV?$allocator@U?$pair@$$CBW4_D3DFORMAT@@V?$basic_string@DV?$char_traits@D@_STL@@V?$allocator@D@2@@_STL@@@_STL@@@1@@Z 004105fe f i DirectX9Renderer:Formats.obj
 0001:0000f5fe       ??0?$allocator@V?$shared_ptr@VProxyType@?$Event@VConsoleOutputEventHandler@Core@@VIConsoleOutputListener@2@@Core@@@boost@@@_STL@@QAE@ABV01@@Z 004105fe f i Core:Console.obj
 0001:0000f5fe       ??0?$allocator@V?$shared_ptr@VProxyType@?$Event@VKeyboardEventHandler@Core@@VIKeyboardSensitive@2@@Core@@@boost@@@_STL@@QAE@ABV01@@Z 004105fe f i Renderer:RendererWindow.obj
 0001:0000f5fe       ??0?$allocator@U?$_Rb_tree_node@U?$pair@$$CBW4_D3DFORMAT@@V?$basic_string@DV?$char_traits@D@_STL@@V?$allocator@D@2@@_STL@@@_STL@@@_STL@@@_STL@@QAE@ABV01@@Z 004105fe f i DirectX9Renderer:Formats.obj
 0001:0000f5fe       ??0?$allocator@K@_STL@@QAE@ABV01@@Z 004105fe f i Core:ConsoleCommandLineParser.obj
 0001:0000f5fe       ??0?$allocator@U?$_Rb_tree_node@U?$pair@$$CBJV?$basic_string@DV?$char_traits@D@_STL@@V?$allocator@D@2@@_STL@@@_STL@@@_STL@@@_STL@@QAE@ABV01@@Z 004105fe f i DirectX9Renderer:ErrorCodes.obj
 0001:0000f5fe       ??0?$allocator@U?$_Rb_tree_node@U?$pair@$$CBIV?$shared_ptr@VRendererCreator@Renderer@@@boost@@@_STL@@@_STL@@@_STL@@QAE@ABV?$allocator@U?$pair@$$CBIV?$shared_ptr@VRendererCreator@Renderer@@@boost@@@_STL@@@1@@Z 004105fe f i Renderer:RendererFactory.obj
 0001:0000f5fe       ??0?$allocator@PAI@_STL@@QAE@ABV01@@Z 004105fe f i DirectX9Renderer:DirectX9Renderer.obj
 0001:0000f5fe       ??0?$empty_subject@Uanychar_parser@spirit@boost@@U?$parser@U?$kleene_star@Uanychar_parser@spirit@boost@@@spirit@boost@@@23@@impl@spirit@boost@@QAE@ABUanychar_parser@23@@Z 004105fe f i Core:ConsoleCommandLineParser.obj
 0001:0000f5fe       ??0?$allocator@PAI@_STL@@QAE@ABV?$allocator@I@1@@Z 004105fe f i DirectX9Renderer:DirectX9Renderer.obj
 0001:0000f5fe       ??0parser_context@spirit@boost@@QAE@ABU?$grammar@VConsoleGrammar@@Uparser_context@spirit@boost@@@12@@Z 004105fe f i Core:ConsoleCommandLineParser.obj
 0001:0000f60c       ?copy@_STL@@YAPAPAIPAPAI00@Z 0041060c f i TerrainDemoApplication.obj
 0001:0000f60c       ?__uninitialized_copy@_STL@@YAPADPAD00ABU__true_type@1@@Z 0041060c f i Core:CommandLine.obj
 0001:0000f60c       ?__uninitialized_copy@_STL@@YAPAKPAK00ABU__true_type@1@@Z 0041060c f i Core:ConsoleCommandLineParser.obj
 0001:0000f60c       ?__uninitialized_copy@_STL@@YAPAPAU?$definition@V?$scanner@PBDU?$scanner_policies@Uiteration_policy@spirit@boost@@Umatch_policy@23@Uaction_policy@23@@spirit@boost@@@spirit@boost@@@ConsoleGrammar@@PAPAU23@00ABU__true_type@1@@Z 0041060c f i Core:ConsoleCommandLineParser.obj
 0001:0000f62f       ?__copy_backward_ptrs@_STL@@YAPAPAU?$definition@V?$scanner@PBDU?$scanner_policies@Uiteration_policy@spirit@boost@@Umatch_policy@23@Uaction_policy@23@@spirit@boost@@@spirit@boost@@@ConsoleGrammar@@PAPAU23@00ABU__true_type@1@@Z 0041062f f i Core:ConsoleCommandLineParser.obj
 0001:0000f62f       ?__copy_backward_ptrs@_STL@@YAPAPAIPAPAI00ABU__true_type@1@@Z 0041062f f i TerrainDemoApplication.obj
 0001:0000f645       ?fill@_STL@@YAXPAPAU?$definition@V?$scanner@PBDU?$scanner_policies@Uiteration_policy@spirit@boost@@Umatch_policy@23@Uaction_policy@23@@spirit@boost@@@spirit@boost@@@ConsoleGrammar@@0ABQAU23@@Z 00410645 f i Core:ConsoleCommandLineParser.obj
 0001:0000f669       ?uninitialized_fill_n@_STL@@YAPAPAU?$definition@V?$scanner@PBDU?$scanner_policies@Uiteration_policy@spirit@boost@@Umatch_policy@23@Uaction_policy@23@@spirit@boost@@@spirit@boost@@@ConsoleGrammar@@PAPAU23@IABQAU23@@Z 00410669 f i Core:ConsoleCommandLineParser.obj
 0001:0000f6a1       ?parse_main@?$rule@V?$scanner@PBDU?$scanner_policies@Uiteration_policy@spirit@boost@@Umatch_policy@23@Uaction_policy@23@@spirit@boost@@@spirit@boost@@Uparser_context@23@Uparser_address_tag@23@@spirit@boost@@QBE?AV?$match@Unil_t@spirit@boost@@@23@ABV?$scanner@PBDU?$scanner_policies@Uiteration_policy@spirit@boost@@Umatch_policy@23@Uaction_policy@23@@spirit@boost@@@23@@Z 004106a1 f i Core:ConsoleCommandLineParser.obj
 0001:0000f738       ??0?$match@Unil_t@spirit@boost@@@spirit@boost@@QAE@XZ 00410738 f i Core:ConsoleCommandLineParser.obj
 0001:0000f74a       ?no_match@match_policy@spirit@boost@@QBE?BV?$match@Unil_t@spirit@boost@@@23@XZ 0041074a f i Core:ConsoleCommandLineParser.obj
 0001:0000f760       ?post_parse@?$parser_context_linker@Uparser_context@spirit@boost@@@spirit@boost@@QAEAAV?$match@Unil_t@spirit@boost@@@23@AAV423@ABU?$grammar@VConsoleGrammar@@Uparser_context@spirit@boost@@@23@ABU?$parser_scanner_linker@V?$scanner@PBDU?$scanner_policies@Uiteration_policy@spirit@boost@@Umatch_policy@23@Uaction_policy@23@@spirit@boost@@@spirit@boost@@@23@@Z 00410760 f i Core:ConsoleCommandLineParser.obj
 0001:0000f760       ?post_parse@?$parser_context_linker@Uparser_context@spirit@boost@@@spirit@boost@@QAEAAV?$match@Unil_t@spirit@boost@@@23@AAV423@ABV?$rule@V?$scanner@PBDU?$scanner_policies@Uiteration_policy@spirit@boost@@Umatch_policy@23@Uaction_policy@23@@spirit@boost@@@spirit@boost@@Uparser_context@23@Uparser_address_tag@23@@23@ABU?$parser_scanner_linker@V?$scanner@PBDU?$scanner_policies@Uiteration_policy@spirit@boost@@Umatch_policy@23@Uaction_policy@23@@spirit@boost@@@spirit@boost@@@23@@Z 00410760 f i Core:ConsoleCommandLineParser.obj
 0001:0000f77c       ??0shared_count@detail@boost@@QAE@PAU?$grammar_helper@U?$grammar@VConsoleGrammar@@Uparser_context@spirit@boost@@@spirit@boost@@VConsoleGrammar@@V?$scanner@PBDU?$scanner_policies@Uiteration_policy@spirit@boost@@Umatch_policy@23@Uaction_policy@23@@spirit@boost@@@23@@impl@spirit@2@U?$checked_deleter@U?$grammar_helper@U?$grammar@VConsoleGrammar@@Uparser_context@spirit@boost@@@spirit@boost@@VConsoleGrammar@@V?$scanner@PBDU?$scanner_policies@Uiteration_policy@spirit@boost@@Umatch_policy@23@Uaction_policy@23@@spirit@boost@@@23@@impl@spirit@boost@@@2@@Z 0041077c f i Core:ConsoleCommandLineParser.obj
 0001:0000f815       ?__destroy@_STL@@YAXPAPAU?$definition@V?$scanner@PBDU?$scanner_policies@Uiteration_policy@spirit@boost@@Umatch_policy@23@Uaction_policy@23@@spirit@boost@@@spirit@boost@@@ConsoleGrammar@@00@Z 00410815 f i Core:ConsoleCommandLineParser.obj
 0001:0000f815       ?__destroy@_STL@@YAXPAK00@Z 00410815 f i Core:ConsoleCommandLineParser.obj
 0001:0000f815       ?__destroy@_STL@@YAXPAI00@Z 00410815 f i Core:Console.obj
 0001:0000f815       ?__destroy@_STL@@YAXPAPAU?$grammar_helper_base@U?$grammar@VConsoleGrammar@@Uparser_context@spirit@boost@@@spirit@boost@@@impl@spirit@boost@@00@Z 00410815 f i Core:ConsoleCommandLineParser.obj
 0001:0000f82d       ??0?$shared_ptr@U?$grammar_helper@U?$grammar@VConsoleGrammar@@Uparser_context@spirit@boost@@@spirit@boost@@VConsoleGrammar@@V?$scanner@PBDU?$scanner_policies@Uiteration_policy@spirit@boost@@Umatch_policy@23@Uaction_policy@23@@spirit@boost@@@23@@impl@spirit@boost@@@boost@@QAE@ABV?$weak_ptr@U?$grammar_helper@U?$grammar@VConsoleGrammar@@Uparser_context@spirit@boost@@@spirit@boost@@VConsoleGrammar@@V?$scanner@PBDU?$scanner_policies@Uiteration_policy@spirit@boost@@Umatch_policy@23@Uaction_policy@23@@spirit@boost@@@23@@impl@spirit@boost@@@1@@Z 0041082d f i Core:ConsoleCommandLineParser.obj
 0001:0000f857       ??0shared_count@detail@boost@@QAE@ABVweak_count@12@@Z 00410857 f i Core:ConsoleCommandLineParser.obj
 0001:0000f8c0       ?add_ref_lock@sp_counted_base@detail@boost@@QAEXXZ 004108c0 f i Core:ConsoleCommandLineParser.obj
 0001:0000f93b       ??0bad_weak_ptr@boost@@QAE@XZ 0041093b f i Core:ConsoleCommandLineParser.obj
 0001:0000f959       ?what@bad_weak_ptr@boost@@UBEPBDXZ 00410959 f i Core:ConsoleCommandLineParser.obj
 0001:0000f967       ??1bad_weak_ptr@boost@@UAE@XZ 00410967 f i Core:ConsoleCommandLineParser.obj
 0001:0000f979       ??_Ebad_weak_ptr@boost@@UAEPAXI@Z 00410979 f i Core:ConsoleCommandLineParser.obj
 0001:0000f979       ??_Gbad_weak_ptr@boost@@UAEPAXI@Z 00410979 f i Core:ConsoleCommandLineParser.obj
 0001:0000f9a2       ?throw_exception@boost@@YAXABVbad_weak_ptr@1@@Z 004109a2 f i Core:ConsoleCommandLineParser.obj
 0001:0000f9c3       ??0bad_weak_ptr@boost@@QAE@ABV01@@Z 004109c3 f i Core:ConsoleCommandLineParser.obj
 0001:0000f9e6       ?parse@?$alternative@V?$rule@V?$scanner@PBDU?$scanner_policies@Uiteration_policy@spirit@boost@@Umatch_policy@23@Uaction_policy@23@@spirit@boost@@@spirit@boost@@Uparser_context@23@Uparser_address_tag@23@@spirit@boost@@U?$sequence@V?$action@V?$rule@V?$scanner@PBDU?$scanner_policies@Uiteration_policy@spirit@boost@@Umatch_policy@23@Uaction_policy@23@@spirit@boost@@@spirit@boost@@Uparser_context@23@Uparser_address_tag@23@@spirit@boost@@V?$assign_actor@V?$basic_string@DV?$char_traits@D@_STL@@V?$allocator@D@2@@_STL@@@23@@spirit@boost@@U?$kleene_star@U?$sequence@U?$positive@Uspace_parser@spirit@boost@@@spirit@boost@@V?$rule@V?$scanner@PBDU?$scanner_policies@Uiteration_policy@spirit@boost@@Umatch_policy@23@Uaction_policy@23@@spirit@boost@@@spirit@boost@@Uparser_context@23@Uparser_address_tag@23@@23@@spirit@boost@@@23@@23@@spirit@boost@@QBE?AV?$match@Unil_t@spirit@boost@@@23@ABV?$scanner@PBDU?$scanner_policies@Uiteration_policy@spirit@boost@@Umatch_policy@23@Uaction_policy@23@@spirit@boost@@@23@@Z 004109e6 f i Core:ConsoleCommandLineParser.obj
 0001:0000fa50       ?parse@?$alternative@U?$alternative@U?$alternative@U?$alternative@V?$rule@V?$scanner@PBDU?$scanner_policies@Uiteration_policy@spirit@boost@@Umatch_policy@23@Uaction_policy@23@@spirit@boost@@@spirit@boost@@Uparser_context@23@Uparser_address_tag@23@@spirit@boost@@V123@@spirit@boost@@V?$rule@V?$scanner@PBDU?$scanner_policies@Uiteration_policy@spirit@boost@@Umatch_policy@23@Uaction_policy@23@@spirit@boost@@@spirit@boost@@Uparser_context@23@Uparser_address_tag@23@@23@@spirit@boost@@V?$action@V?$rule@V?$scanner@PBDU?$scanner_policies@Uiteration_policy@spirit@boost@@Umatch_policy@23@Uaction_policy@23@@spirit@boost@@@spirit@boost@@Uparser_context@23@Uparser_address_tag@23@@spirit@boost@@VAddBooleanToArgs@@@23@@spirit@boost@@V?$action@V?$rule@V?$scanner@PBDU?$scanner_policies@Uiteration_policy@spirit@boost@@Umatch_policy@23@Uaction_policy@23@@spirit@boost@@@spirit@boost@@Uparser_context@23@Uparser_address_tag@23@@spirit@boost@@VAddString@@@23@@spirit@boost@@QBE?AV?$match@Unil_t@spirit@boost@@@23@ABV?$scanner@PBDU?$scanner_policies@Uiteration_policy@spirit@boost@@Umatch_policy@23@Uaction_policy@23@@spirit@boost@@@23@@Z 00410a50 f i Core:ConsoleCommandLineParser.obj
 0001:0000faba       ?parse@?$contiguous@U?$sequence@U?$positive@U?$alternative@Ualpha_parser@spirit@boost@@U?$chlit@D@23@@spirit@boost@@@spirit@boost@@U?$kleene_star@U?$alternative@Ualnum_parser@spirit@boost@@U?$chlit@D@23@@spirit@boost@@@23@@spirit@boost@@@spirit@boost@@QBE?AV?$match@Unil_t@spirit@boost@@@23@ABV?$scanner@PBDU?$scanner_policies@Uiteration_policy@spirit@boost@@Umatch_policy@23@Uaction_policy@23@@spirit@boost@@@23@@Z 00410aba f i Core:ConsoleCommandLineParser.obj
 0001:0000fae2       ?parse@?$contiguous@V?$action@U?$int_parser@H$09$00$0?0@spirit@boost@@VAddIntegerToArgs@@@spirit@boost@@@spirit@boost@@QBE?AV?$match@H@23@ABV?$scanner@PBDU?$scanner_policies@Uiteration_policy@spirit@boost@@Umatch_policy@23@Uaction_policy@23@@spirit@boost@@@23@@Z 00410ae2 f i Core:ConsoleCommandLineParser.obj
 0001:0000fb0a       ?parse@?$contiguous@V?$action@U?$uint_parser@I$09$00$0?0@spirit@boost@@VAddUnsignedIntegerToArgs@@@spirit@boost@@@spirit@boost@@QBE?AV?$match@I@23@ABV?$scanner@PBDU?$scanner_policies@Uiteration_policy@spirit@boost@@Umatch_policy@23@Uaction_policy@23@@spirit@boost@@@23@@Z 00410b0a f i Core:ConsoleCommandLineParser.obj
 0001:0000fb32       ?parse@?$contiguous@V?$action@U?$real_parser@NU?$strict_real_parser_policies@N@spirit@boost@@@spirit@boost@@VAddFloatToArgs@@@spirit@boost@@@spirit@boost@@QBE?AV?$match@N@23@ABV?$scanner@PBDU?$scanner_policies@Uiteration_policy@spirit@boost@@Umatch_policy@23@Uaction_policy@23@@spirit@boost@@@23@@Z 00410b32 f i Core:ConsoleCommandLineParser.obj
 0001:0000fb5a       ??0?$match@Unil_t@spirit@boost@@@spirit@boost@@QAE@ABV?$match@N@12@@Z 00410b5a f i Core:ConsoleCommandLineParser.obj
 0001:0000fb5a       ??0?$match@Unil_t@spirit@boost@@@spirit@boost@@QAE@ABV?$match@H@12@@Z 00410b5a f i Core:ConsoleCommandLineParser.obj
 0001:0000fb5a       ??0?$match@Unil_t@spirit@boost@@@spirit@boost@@QAE@ABV?$match@I@12@@Z 00410b5a f i Core:ConsoleCommandLineParser.obj
 0001:0000fb5a       ??0?$match@Unil_t@spirit@boost@@@spirit@boost@@QAE@ABV?$match@D@12@@Z 00410b5a f i Core:ConsoleCommandLineParser.obj
 0001:0000fb75       ?parse@?$alternative@U?$sequence@U?$sequence@U?$chlit@D@spirit@boost@@U?$kleene_star@U?$negated_char_parser@U?$chlit@D@spirit@boost@@@spirit@boost@@@23@@spirit@boost@@U?$chlit@D@23@@spirit@boost@@U?$kleene_star@U?$difference@U?$negated_char_parser@U?$chlit@D@spirit@boost@@@spirit@boost@@Uspace_parser@23@@spirit@boost@@@23@@spirit@boost@@QBE?AV?$match@Unil_t@spirit@boost@@@23@ABV?$scanner@PBDU?$scanner_policies@Uiteration_policy@spirit@boost@@Umatch_policy@23@Uaction_policy@23@@spirit@boost@@@23@@Z 00410b75 f i Core:ConsoleCommandLineParser.obj
 0001:0000fbdf       ?parse@?$alternative@V?$strlit@PBD@spirit@boost@@V123@@spirit@boost@@QBE?AV?$match@Unil_t@spirit@boost@@@23@ABV?$scanner@PBDU?$scanner_policies@Uiteration_policy@spirit@boost@@Umatch_policy@23@Uaction_policy@23@@spirit@boost@@@23@@Z 00410bdf f i Core:ConsoleCommandLineParser.obj
 0001:0000fc49       ?parse@?$sequence@U?$alternative@U?$chlit@D@spirit@boost@@V?$strlit@PBD@23@@spirit@boost@@U?$kleene_star@Uanychar_parser@spirit@boost@@@23@@spirit@boost@@QBE?AV?$match@Unil_t@spirit@boost@@@23@ABV?$scanner@PBDU?$scanner_policies@Uiteration_policy@spirit@boost@@Umatch_policy@23@Uaction_policy@23@@spirit@boost@@@23@@Z 00410c49 f i Core:ConsoleCommandLineParser.obj
 0001:0000fccb       ??C?$scoped_ptr@U?$abstract_parser@V?$scanner@PBDU?$scanner_policies@Uiteration_policy@spirit@boost@@Umatch_policy@23@Uaction_policy@23@@spirit@boost@@@spirit@boost@@V?$match@Unil_t@spirit@boost@@@23@@impl@spirit@boost@@@boost@@QBEPAU?$abstract_parser@V?$scanner@PBDU?$scanner_policies@Uiteration_policy@spirit@boost@@Umatch_policy@23@Uaction_policy@23@@spirit@boost@@@spirit@boost@@V?$match@Unil_t@spirit@boost@@@23@@impl@spirit@1@XZ 00410ccb f i Core:ConsoleCommandLineParser.obj
 0001:0000fcf6       ?left@?$binary@V?$rule@V?$scanner@PBDU?$scanner_policies@Uiteration_policy@spirit@boost@@Umatch_policy@23@Uaction_policy@23@@spirit@boost@@@spirit@boost@@Uparser_context@23@Uparser_address_tag@23@@spirit@boost@@U?$sequence@V?$action@V?$rule@V?$scanner@PBDU?$scanner_policies@Uiteration_policy@spirit@boost@@Umatch_policy@23@Uaction_policy@23@@spirit@boost@@@spirit@boost@@Uparser_context@23@Uparser_address_tag@23@@spirit@boost@@V?$assign_actor@V?$basic_string@DV?$char_traits@D@_STL@@V?$allocator@D@2@@_STL@@@23@@spirit@boost@@U?$kleene_star@U?$sequence@U?$positive@Uspace_parser@spirit@boost@@@spirit@boost@@V?$rule@V?$scanner@PBDU?$scanner_policies@Uiteration_policy@spirit@boost@@Umatch_policy@23@Uaction_policy@23@@spirit@boost@@@spirit@boost@@Uparser_context@23@Uparser_address_tag@23@@23@@spirit@boost@@@23@@23@U?$parser@U?$alternative@V?$rule@V?$scanner@PBDU?$scanner_policies@Uiteration_policy@spirit@boost@@Umatch_policy@23@Uaction_policy@23@@spirit@boost@@@spirit@boost@@Uparser_context@23@Uparser_address_tag@23@@spirit@boost@@U?$sequence@V?$action@V?$rule@V?$scanner@PBDU?$scanner_policies@Uiteration_policy@spirit@boost@@Umatch_policy@23@Uaction_policy@23@@spirit@boost@@@spirit@boost@@Uparser_context@23@Uparser_address_tag@23@@spirit@boost@@V?$assign_actor@V?$basic_string@DV?$char_traits@D@_STL@@V?$allocator@D@2@@_STL@@@23@@spirit@boost@@U?$kleene_star@U?$sequence@U?$positive@Uspace_parser@spirit@boost@@@spirit@boost@@V?$rule@V?$scanner@PBDU?$scanner_policies@Uiteration_policy@spirit@boost@@Umatch_policy@23@Uaction_policy@23@@spirit@boost@@@spirit@boost@@Uparser_context@23@Uparser_address_tag@23@@23@@spirit@boost@@@23@@23@@spirit@boost@@@23@@spirit@boost@@QBEABV?$rule@V?$scanner@PBDU?$scanner_policies@Uiteration_policy@spirit@boost@@Umatch_policy@23@Uaction_policy@23@@spirit@boost@@@spirit@boost@@Uparser_context@23@Uparser_address_tag@23@@23@XZ 00410cf6 f i Core:ConsoleCommandLineParser.obj
 0001:0000fd07       ?left@?$binary@V?$strlit@PBD@spirit@boost@@V123@U?$parser@U?$alternative@V?$strlit@PBD@spirit@boost@@V123@@spirit@boost@@@23@@spirit@boost@@QBEABV?$strlit@PBD@23@XZ 00410d07 f i Core:ConsoleCommandLineParser.obj
 0001:0000fd07       ?left@?$binary@U?$alternative@U?$alternative@V?$rule@V?$scanner@PBDU?$scanner_policies@Uiteration_policy@spirit@boost@@Umatch_policy@23@Uaction_policy@23@@spirit@boost@@@spirit@boost@@Uparser_context@23@Uparser_address_tag@23@@spirit@boost@@V123@@spirit@boost@@V?$rule@V?$scanner@PBDU?$scanner_policies@Uiteration_policy@spirit@boost@@Umatch_policy@23@Uaction_policy@23@@spirit@boost@@@spirit@boost@@Uparser_context@23@Uparser_address_tag@23@@23@@spirit@boost@@V?$action@V?$rule@V?$scanner@PBDU?$scanner_policies@Uiteration_policy@spirit@boost@@Umatch_policy@23@Uaction_policy@23@@spirit@boost@@@spirit@boost@@Uparser_context@23@Uparser_address_tag@23@@spirit@boost@@VAddBooleanToArgs@@@23@U?$parser@U?$alternative@U?$alternative@U?$alternative@V?$rule@V?$scanner@PBDU?$scanner_policies@Uiteration_policy@spirit@boost@@Umatch_policy@23@Uaction_policy@23@@spirit@boost@@@spirit@boost@@Uparser_context@23@Uparser_address_tag@23@@spirit@boost@@V123@@spirit@boost@@V?$rule@V?$scanner@PBDU?$scanner_policies@Uiteration_policy@spirit@boost@@Umatch_policy@23@Uaction_policy@23@@spirit@boost@@@spirit@boost@@Uparser_context@23@Uparser_address_tag@23@@23@@spirit@boost@@V?$action@V?$rule@V?$scanner@PBDU?$scanner_policies@Uiteration_policy@spirit@boost@@Umatch_policy@23@Uaction_policy@23@@spirit@boost@@@spirit@boost@@Uparser_context@23@Uparser_address_tag@23@@spirit@boost@@VAddBooleanToArgs@@@23@@spirit@boost@@@23@@spirit@boost@@QBEABU?$alternative@U?$alternative@V?$rule@V?$scanner@PBDU?$scanner_policies@Uiteration_policy@spirit@boost@@Umatch_policy@23@Uaction_policy@23@@spirit@boost@@@spirit@boost@@Uparser_context@23@Uparser_address_tag@23@@spirit@boost@@V123@@spirit@boost@@V?$rule@V?$scanner@PBDU?$scanner_policies@Uiteration_policy@spirit@boost@@Umatch_policy@23@Uaction_policy@23@@spirit@boost@@@spirit@boost@@Uparser_context@23@Uparser_address_tag@23@@23@@23@XZ 00410d07 f i Core:ConsoleCommandLineParser.obj
 0001:0000fd07       ?left@?$binary@U?$chlit@D@spirit@boost@@V?$strlit@PBD@23@U?$parser@U?$alternative@U?$chlit@D@spirit@boost@@V?$strlit@PBD@23@@spirit@boost@@@23@@spirit@boost@@QBEABU?$chlit@D@23@XZ 00410d07 f i Core:ConsoleCommandLineParser.obj
 0001:0000fd07       ?left@?$binary@U?$alternative@U?$alternative@U?$alternative@V?$rule@V?$scanner@PBDU?$scanner_policies@Uiteration_policy@spirit@boost@@Umatch_policy@23@Uaction_policy@23@@spirit@boost@@@spirit@boost@@Uparser_context@23@Uparser_address_tag@23@@spirit@boost@@V123@@spirit@boost@@V?$rule@V?$scanner@PBDU?$scanner_policies@Uiteration_policy@spirit@boost@@Umatch_policy@23@Uaction_policy@23@@spirit@boost@@@spirit@boost@@Uparser_context@23@Uparser_address_tag@23@@23@@spirit@boost@@V?$action@V?$rule@V?$scanner@PBDU?$scanner_policies@Uiteration_policy@spirit@boost@@Umatch_policy@23@Uaction_policy@23@@spirit@boost@@@spirit@boost@@Uparser_context@23@Uparser_address_tag@23@@spirit@boost@@VAddBooleanToArgs@@@23@@spirit@boost@@V?$action@V?$rule@V?$scanner@PBDU?$scanner_policies@Uiteration_policy@spirit@boost@@Umatch_policy@23@Uaction_policy@23@@spirit@boost@@@spirit@boost@@Uparser_context@23@Uparser_address_tag@23@@spirit@boost@@VAddString@@@23@U?$parser@U?$alternative@U?$alternative@U?$alternative@U?$alternative@V?$rule@V?$scanner@PBDU?$scanner_policies@Uiteration_policy@spirit@boost@@Umatch_policy@23@Uaction_policy@23@@spirit@boost@@@spirit@boost@@Uparser_context@23@Uparser_address_tag@23@@spirit@boost@@V123@@spirit@boost@@V?$rule@V?$scanner@PBDU?$scanner_policies@Uiteration_policy@spirit@boost@@Umatch_policy@23@Uaction_policy@23@@spirit@boost@@@spirit@boost@@Uparser_context@23@Uparser_address_tag@23@@23@@spirit@boost@@V?$action@V?$rule@V?$scanner@PBDU?$scanner_policies@Uiteration_policy@spirit@boost@@Umatch_policy@23@Uaction_policy@23@@spirit@boost@@@spirit@boost@@Uparser_context@23@Uparser_address_tag@23@@spirit@boost@@VAddBooleanToArgs@@@23@@spirit@boost@@V?$action@V?$rule@V?$scanner@PBDU?$scanner_policies@Uiteration_policy@spirit@boost@@Umatch_policy@23@Uaction_policy@23@@spirit@boost@@@spirit@boost@@Uparser_context@23@Uparser_address_tag@23@@spirit@boost@@VAddString@@@23@@spirit@boost@@@23@@spirit@boost@@QBEABU?$alternative@U?$alternative@U?$alternative@V?$rule@V?$scanner@PBDU?$scanner_policies@Uiteration_policy@spirit@boost@@Umatch_policy@23@Uaction_policy@23@@spirit@boost@@@spirit@boost@@Uparser_context@23@Uparser_address_tag@23@@spirit@boost@@V123@@spirit@boost@@V?$rule@V?$scanner@PBDU?$scanner_policies@Uiteration_policy@spirit@boost@@Umatch_policy@23@Uaction_policy@23@@spirit@boost@@@spirit@boost@@Uparser_context@23@Uparser_address_tag@23@@23@@spirit@boost@@V?$action@V?$rule@V?$scanner@PBDU?$scanner_policies@Uiteration_policy@spirit@boost@@Umatch_policy@23@Uaction_policy@23@@spirit@boost@@@spirit@boost@@Uparser_context@23@Uparser_address_tag@23@@spirit@boost@@VAddBooleanToArgs@@@23@@23@XZ 00410d07 f i Core:ConsoleCommandLineParser.obj
 0001:0000fd18       ??R?$checked_deleter@U?$grammar_helper@U?$grammar@VConsoleGrammar@@Uparser_context@spirit@boost@@@spirit@boost@@VConsoleGrammar@@V?$scanner@PBDU?$scanner_policies@Uiteration_policy@spirit@boost@@Umatch_policy@23@Uaction_policy@23@@spirit@boost@@@23@@impl@spirit@boost@@@boost@@QBEXPAU?$grammar_helper@U?$grammar@VConsoleGrammar@@Uparser_context@spirit@boost@@@spirit@boost@@VConsoleGrammar@@V?$scanner@PBDU?$scanner_policies@Uiteration_policy@spirit@boost@@Umatch_policy@23@Uaction_policy@23@@spirit@boost@@@23@@impl@spirit@1@@Z 00410d18 f i Core:ConsoleCommandLineParser.obj
 0001:0000fd2c       ??0?$sp_counted_base_impl@PAU?$grammar_helper@U?$grammar@VConsoleGrammar@@Uparser_context@spirit@boost@@@spirit@boost@@VConsoleGrammar@@V?$scanner@PBDU?$scanner_policies@Uiteration_policy@spirit@boost@@Umatch_policy@23@Uaction_policy@23@@spirit@boost@@@23@@impl@spirit@boost@@U?$checked_deleter@U?$grammar_helper@U?$grammar@VConsoleGrammar@@Uparser_context@spirit@boost@@@spirit@boost@@VConsoleGrammar@@V?$scanner@PBDU?$scanner_policies@Uiteration_policy@spirit@boost@@Umatch_policy@23@Uaction_policy@23@@spirit@boost@@@23@@impl@spirit@boost@@@4@@detail@boost@@QAE@PAU?$grammar_helper@U?$grammar@VConsoleGrammar@@Uparser_context@spirit@boost@@@spirit@boost@@VConsoleGrammar@@V?$scanner@PBDU?$scanner_policies@Uiteration_policy@spirit@boost@@Umatch_policy@23@Uaction_policy@23@@spirit@boost@@@23@@impl@spirit@2@U?$checked_deleter@U?$grammar_helper@U?$grammar@VConsoleGrammar@@Uparser_context@spirit@boost@@@spirit@boost@@VConsoleGrammar@@V?$scanner@PBDU?$scanner_policies@Uiteration_policy@spirit@boost@@Umatch_policy@23@Uaction_policy@23@@spirit@boost@@@23@@impl@spirit@boost@@@2@@Z 00410d2c f i Core:ConsoleCommandLineParser.obj
 0001:0000fd5d       ?dispose@?$sp_counted_base_impl@PAU?$grammar_helper@U?$grammar@VConsoleGrammar@@Uparser_context@spirit@boost@@@spirit@boost@@VConsoleGrammar@@V?$scanner@PBDU?$scanner_policies@Uiteration_policy@spirit@boost@@Umatch_policy@23@Uaction_policy@23@@spirit@boost@@@23@@impl@spirit@boost@@U?$checked_deleter@U?$grammar_helper@U?$grammar@VConsoleGrammar@@Uparser_context@spirit@boost@@@spirit@boost@@VConsoleGrammar@@V?$scanner@PBDU?$scanner_policies@Uiteration_policy@spirit@boost@@Umatch_policy@23@Uaction_policy@23@@spirit@boost@@@23@@impl@spirit@boost@@@4@@detail@boost@@UAEXXZ 00410d5d f i Core:ConsoleCommandLineParser.obj
 0001:0000fd77       ?get_deleter@?$sp_counted_base_impl@PAU?$grammar_helper@U?$grammar@VConsoleGrammar@@Uparser_context@spirit@boost@@@spirit@boost@@VConsoleGrammar@@V?$scanner@PBDU?$scanner_policies@Uiteration_policy@spirit@boost@@Umatch_policy@23@Uaction_policy@23@@spirit@boost@@@23@@impl@spirit@boost@@U?$checked_deleter@U?$grammar_helper@U?$grammar@VConsoleGrammar@@Uparser_context@spirit@boost@@@spirit@boost@@VConsoleGrammar@@V?$scanner@PBDU?$scanner_policies@Uiteration_policy@spirit@boost@@Umatch_policy@23@Uaction_policy@23@@spirit@boost@@@23@@impl@spirit@boost@@@4@@detail@boost@@UAEPAXABVtype_info@@@Z 00410d77 f i Core:ConsoleCommandLineParser.obj
 0001:0000fd9c       ?left@?$left_subject@ABV?$rule@V?$scanner@PBDU?$scanner_policies@Uiteration_policy@spirit@boost@@Umatch_policy@23@Uaction_policy@23@@spirit@boost@@@spirit@boost@@Uparser_context@23@Uparser_address_tag@23@@spirit@boost@@U?$right_subject@U?$sequence@V?$action@V?$rule@V?$scanner@PBDU?$scanner_policies@Uiteration_policy@spirit@boost@@Umatch_policy@23@Uaction_policy@23@@spirit@boost@@@spirit@boost@@Uparser_context@23@Uparser_address_tag@23@@spirit@boost@@V?$assign_actor@V?$basic_string@DV?$char_traits@D@_STL@@V?$allocator@D@2@@_STL@@@23@@spirit@boost@@U?$kleene_star@U?$sequence@U?$positive@Uspace_parser@spirit@boost@@@spirit@boost@@V?$rule@V?$scanner@PBDU?$scanner_policies@Uiteration_policy@spirit@boost@@Umatch_policy@23@Uaction_policy@23@@spirit@boost@@@spirit@boost@@Uparser_context@23@Uparser_address_tag@23@@23@@spirit@boost@@@23@@spirit@boost@@U?$parser@U?$alternative@V?$rule@V?$scanner@PBDU?$scanner_policies@Uiteration_policy@spirit@boost@@Umatch_policy@23@Uaction_policy@23@@spirit@boost@@@spirit@boost@@Uparser_context@23@Uparser_address_tag@23@@spirit@boost@@U?$sequence@V?$action@V?$rule@V?$scanner@PBDU?$scanner_policies@Uiteration_policy@spirit@boost@@Umatch_policy@23@Uaction_policy@23@@spirit@boost@@@spirit@boost@@Uparser_context@23@Uparser_address_tag@23@@spirit@boost@@V?$assign_actor@V?$basic_string@DV?$char_traits@D@_STL@@V?$allocator@D@2@@_STL@@@23@@spirit@boost@@U?$kleene_star@U?$sequence@U?$positive@Uspace_parser@spirit@boost@@@spirit@boost@@V?$rule@V?$scanner@PBDU?$scanner_policies@Uiteration_policy@spirit@boost@@Umatch_policy@23@Uaction_policy@23@@spirit@boost@@@spirit@boost@@Uparser_context@23@Uparser_address_tag@23@@23@@spirit@boost@@@23@@23@@spirit@boost@@@23@@impl@23@@impl@spirit@boost@@QBEABV?$rule@V?$scanner@PBDU?$scanner_policies@Uiteration_policy@spirit@boost@@Umatch_policy@23@Uaction_policy@23@@spirit@boost@@@spirit@boost@@Uparser_context@23@Uparser_address_tag@23@@34@XZ 00410d9c f i Core:ConsoleCommandLineParser.obj
 0001:0000fdad       ?right@?$right_subject@U?$kleene_star@Uanychar_parser@spirit@boost@@@spirit@boost@@U?$parser@U?$sequence@U?$alternative@U?$chlit@D@spirit@boost@@V?$strlit@PBD@23@@spirit@boost@@U?$kleene_star@Uanychar_parser@spirit@boost@@@23@@spirit@boost@@@23@@impl@spirit@boost@@QBE?AU?$kleene_star@Uanychar_parser@spirit@boost@@@34@XZ 00410dad f i Core:ConsoleCommandLineParser.obj
 0001:0000fdad       ?left@?$left_subject@U?$positive@Uspace_parser@spirit@boost@@@spirit@boost@@U?$right_subject@ABV?$rule@V?$scanner@PBDU?$scanner_policies@Uiteration_policy@spirit@boost@@Umatch_policy@23@Uaction_policy@23@@spirit@boost@@@spirit@boost@@Uparser_context@23@Uparser_address_tag@23@@spirit@boost@@U?$parser@U?$sequence@U?$positive@Uspace_parser@spirit@boost@@@spirit@boost@@V?$rule@V?$scanner@PBDU?$scanner_policies@Uiteration_policy@spirit@boost@@Umatch_policy@23@Uaction_policy@23@@spirit@boost@@@spirit@boost@@Uparser_context@23@Uparser_address_tag@23@@23@@spirit@boost@@@23@@impl@23@@impl@spirit@boost@@QBE?AU?$positive@Uspace_parser@spirit@boost@@@34@XZ 00410dad f i Core:ConsoleCommandLineParser.obj
 0001:0000fdc6       ?get@?$non_empty_subject@ABV?$rule@V?$scanner@PBDU?$scanner_policies@Uiteration_policy@spirit@boost@@Umatch_policy@23@Uaction_policy@23@@spirit@boost@@@spirit@boost@@Uparser_context@23@Uparser_address_tag@23@@spirit@boost@@U?$right_subject@U?$sequence@V?$action@V?$rule@V?$scanner@PBDU?$scanner_policies@Uiteration_policy@spirit@boost@@Umatch_policy@23@Uaction_policy@23@@spirit@boost@@@spirit@boost@@Uparser_context@23@Uparser_address_tag@23@@spirit@boost@@V?$assign_actor@V?$basic_string@DV?$char_traits@D@_STL@@V?$allocator@D@2@@_STL@@@23@@spirit@boost@@U?$kleene_star@U?$sequence@U?$positive@Uspace_parser@spirit@boost@@@spirit@boost@@V?$rule@V?$scanner@PBDU?$scanner_policies@Uiteration_policy@spirit@boost@@Umatch_policy@23@Uaction_policy@23@@spirit@boost@@@spirit@boost@@Uparser_context@23@Uparser_address_tag@23@@23@@spirit@boost@@@23@@spirit@boost@@U?$parser@U?$alternative@V?$rule@V?$scanner@PBDU?$scanner_policies@Uiteration_policy@spirit@boost@@Umatch_policy@23@Uaction_policy@23@@spirit@boost@@@spirit@boost@@Uparser_context@23@Uparser_address_tag@23@@spirit@boost@@U?$sequence@V?$action@V?$rule@V?$scanner@PBDU?$scanner_policies@Uiteration_policy@spirit@boost@@Umatch_policy@23@Uaction_policy@23@@spirit@boost@@@spirit@boost@@Uparser_context@23@Uparser_address_tag@23@@spirit@boost@@V?$assign_actor@V?$basic_string@DV?$char_traits@D@_STL@@V?$allocator@D@2@@_STL@@@23@@spirit@boost@@U?$kleene_star@U?$sequence@U?$positive@Uspace_parser@spirit@boost@@@spirit@boost@@V?$rule@V?$scanner@PBDU?$scanner_policies@Uiteration_policy@spirit@boost@@Umatch_policy@23@Uaction_policy@23@@spirit@boost@@@spirit@boost@@Uparser_context@23@Uparser_address_tag@23@@23@@spirit@boost@@@23@@23@@spirit@boost@@@23@@impl@23@@impl@spirit@boost@@QBEABV?$rule@V?$scanner@PBDU?$scanner_policies@Uiteration_policy@spirit@boost@@Umatch_policy@23@Uaction_policy@23@@spirit@boost@@@spirit@boost@@Uparser_context@23@Uparser_address_tag@23@@34@XZ 00410dc6 f i Core:ConsoleCommandLineParser.obj
 0001:0000fdc6       ?BitsPerPixel@DisplayMode@Renderer@@QBEIXZ 00410dc6 f i DirectX9Renderer:DirectX9Renderer.obj
 0001:0000fdd5       ?get@?$empty_subject@U?$positive@Uspace_parser@spirit@boost@@@spirit@boost@@U?$right_subject@ABV?$rule@V?$scanner@PBDU?$scanner_policies@Uiteration_policy@spirit@boost@@Umatch_policy@23@Uaction_policy@23@@spirit@boost@@@spirit@boost@@Uparser_context@23@Uparser_address_tag@23@@spirit@boost@@U?$parser@U?$sequence@U?$positive@Uspace_parser@spirit@boost@@@spirit@boost@@V?$rule@V?$scanner@PBDU?$scanner_policies@Uiteration_policy@spirit@boost@@Umatch_policy@23@Uaction_policy@23@@spirit@boost@@@spirit@boost@@Uparser_context@23@Uparser_address_tag@23@@23@@spirit@boost@@@23@@impl@23@@impl@spirit@boost@@QBE?AU?$positive@Uspace_parser@spirit@boost@@@34@XZ 00410dd5 f i Core:ConsoleCommandLineParser.obj
 0001:0000fdd5       ?get@?$empty_subject@U?$kleene_star@Uanychar_parser@spirit@boost@@@spirit@boost@@U?$parser@U?$sequence@U?$alternative@U?$chlit@D@spirit@boost@@V?$strlit@PBD@23@@spirit@boost@@U?$kleene_star@Uanychar_parser@spirit@boost@@@23@@spirit@boost@@@23@@impl@spirit@boost@@QBE?AU?$kleene_star@Uanychar_parser@spirit@boost@@@34@XZ 00410dd5 f i Core:ConsoleCommandLineParser.obj
 0001:0000fdeb       ??0?$kleene_star@Uanychar_parser@spirit@boost@@@spirit@boost@@QAE@XZ 00410deb f i Core:ConsoleCommandLineParser.obj
 0001:0000fdeb       ??0?$positive@Uspace_parser@spirit@boost@@@spirit@boost@@QAE@XZ 00410deb f i Core:ConsoleCommandLineParser.obj
 0001:0000fe09       ?__uninitialized_fill_n@_STL@@YAPAPAU?$definition@V?$scanner@PBDU?$scanner_policies@Uiteration_policy@spirit@boost@@Umatch_policy@23@Uaction_policy@23@@spirit@boost@@@spirit@boost@@@ConsoleGrammar@@PAPAU23@IABQAU23@ABU__true_type@1@@Z 00410e09 f i Core:ConsoleCommandLineParser.obj
 0001:0000fe1f       ?id@?$rule@V?$scanner@PBDU?$scanner_policies@Uiteration_policy@spirit@boost@@Umatch_policy@23@Uaction_policy@23@@spirit@boost@@@spirit@boost@@Uparser_context@23@Uparser_address_tag@23@@spirit@boost@@QBE?AVparser_id@23@XZ 00410e1f f i Core:ConsoleCommandLineParser.obj
 0001:0000fe3a       ?group_match@match_policy@spirit@boost@@QBEXAAV?$match@Unil_t@spirit@boost@@@23@ABVparser_id@23@ABQBD2@Z 00410e3a f i Core:ConsoleCommandLineParser.obj
 0001:0000fe45       ?pre_parse@parser_context@spirit@boost@@QAEXABU?$grammar@VConsoleGrammar@@Uparser_context@spirit@boost@@@23@ABU?$parser_scanner_linker@V?$scanner@PBDU?$scanner_policies@Uiteration_policy@spirit@boost@@Umatch_policy@23@Uaction_policy@23@@spirit@boost@@@spirit@boost@@@23@@Z 00410e45 f i Core:ConsoleCommandLineParser.obj
 0001:0000fe45       ?pre_parse@parser_context@spirit@boost@@QAEXABV?$rule@V?$scanner@PBDU?$scanner_policies@Uiteration_policy@spirit@boost@@Umatch_policy@23@Uaction_policy@23@@spirit@boost@@@spirit@boost@@Uparser_context@23@Uparser_address_tag@23@@23@ABU?$parser_scanner_linker@V?$scanner@PBDU?$scanner_policies@Uiteration_policy@spirit@boost@@Umatch_policy@23@Uaction_policy@23@@spirit@boost@@@spirit@boost@@@23@@Z 00410e45 f i Core:ConsoleCommandLineParser.obj
 0001:0000fe50       ?post_parse@parser_context@spirit@boost@@QAEAAV?$match@Unil_t@spirit@boost@@@23@AAV423@ABV?$rule@V?$scanner@PBDU?$scanner_policies@Uiteration_policy@spirit@boost@@Umatch_policy@23@Uaction_policy@23@@spirit@boost@@@spirit@boost@@Uparser_context@23@Uparser_address_tag@23@@23@ABU?$parser_scanner_linker@V?$scanner@PBDU?$scanner_policies@Uiteration_policy@spirit@boost@@Umatch_policy@23@Uaction_policy@23@@spirit@boost@@@spirit@boost@@@23@@Z 00410e50 f i Core:ConsoleCommandLineParser.obj
 0001:0000fe50       ?post_parse@parser_context@spirit@boost@@QAEAAV?$match@Unil_t@spirit@boost@@@23@AAV423@ABU?$grammar@VConsoleGrammar@@Uparser_context@spirit@boost@@@23@ABU?$parser_scanner_linker@V?$scanner@PBDU?$scanner_policies@Uiteration_policy@spirit@boost@@Umatch_policy@23@Uaction_policy@23@@spirit@boost@@@spirit@boost@@@23@@Z 00410e50 f i Core:ConsoleCommandLineParser.obj
 0001:0000fe5e       ?parse@?$sequence@V?$action@V?$rule@V?$scanner@PBDU?$scanner_policies@Uiteration_policy@spirit@boost@@Umatch_policy@23@Uaction_policy@23@@spirit@boost@@@spirit@boost@@Uparser_context@23@Uparser_address_tag@23@@spirit@boost@@V?$assign_actor@V?$basic_string@DV?$char_traits@D@_STL@@V?$allocator@D@2@@_STL@@@23@@spirit@boost@@U?$kleene_star@U?$sequence@U?$positive@Uspace_parser@spirit@boost@@@spirit@boost@@V?$rule@V?$scanner@PBDU?$scanner_policies@Uiteration_policy@spirit@boost@@Umatch_policy@23@Uaction_policy@23@@spirit@boost@@@spirit@boost@@Uparser_context@23@Uparser_address_tag@23@@23@@spirit@boost@@@23@@spirit@boost@@QBE?AV?$match@Unil_t@spirit@boost@@@23@ABV?$scanner@PBDU?$scanner_policies@Uiteration_policy@spirit@boost@@Umatch_policy@23@Uaction_policy@23@@spirit@boost@@@23@@Z 00410e5e f i Core:ConsoleCommandLineParser.obj
 0001:0000fedc       ?parse@?$alternative@U?$alternative@U?$alternative@V?$rule@V?$scanner@PBDU?$scanner_policies@Uiteration_policy@spirit@boost@@Umatch_policy@23@Uaction_policy@23@@spirit@boost@@@spirit@boost@@Uparser_context@23@Uparser_address_tag@23@@spirit@boost@@V123@@spirit@boost@@V?$rule@V?$scanner@PBDU?$scanner_policies@Uiteration_policy@spirit@boost@@Umatch_policy@23@Uaction_policy@23@@spirit@boost@@@spirit@boost@@Uparser_context@23@Uparser_address_tag@23@@23@@spirit@boost@@V?$action@V?$rule@V?$scanner@PBDU?$scanner_policies@Uiteration_policy@spirit@boost@@Umatch_policy@23@Uaction_policy@23@@spirit@boost@@@spirit@boost@@Uparser_context@23@Uparser_address_tag@23@@spirit@boost@@VAddBooleanToArgs@@@23@@spirit@boost@@QBE?AV?$match@Unil_t@spirit@boost@@@23@ABV?$scanner@PBDU?$scanner_policies@Uiteration_policy@spirit@boost@@Umatch_policy@23@Uaction_policy@23@@spirit@boost@@@23@@Z 00410edc f i Core:ConsoleCommandLineParser.obj
 0001:0000ff46       ?parse@?$action@V?$rule@V?$scanner@PBDU?$scanner_policies@Uiteration_policy@spirit@boost@@Umatch_policy@23@Uaction_policy@23@@spirit@boost@@@spirit@boost@@Uparser_context@23@Uparser_address_tag@23@@spirit@boost@@VAddString@@@spirit@boost@@QBE?AV?$match@Unil_t@spirit@boost@@@23@ABV?$scanner@PBDU?$scanner_policies@Uiteration_policy@spirit@boost@@Umatch_policy@23@Uaction_policy@23@@spirit@boost@@@23@@Z 00410f46 f i Core:ConsoleCommandLineParser.obj
 0001:0000ffbb       ?value@?$match@Unil_t@spirit@boost@@@spirit@boost@@QBE?AUnil_t@23@XZ 00410fbb f i Core:ConsoleCommandLineParser.obj
 0001:0000ffbb       ?get@?$empty_subject@U?$int_parser@H$09$00$0?0@spirit@boost@@U?$parser@V?$action@U?$int_parser@H$09$00$0?0@spirit@boost@@VAddIntegerToArgs@@@spirit@boost@@@23@@impl@spirit@boost@@QBE?AU?$int_parser@H$09$00$0?0@34@XZ 00410fbb f i Core:ConsoleCommandLineParser.obj
 0001:0000ffbb       ?get@?$empty_subject@U?$uint_parser@I$09$00$0?0@spirit@boost@@U?$parser@V?$action@U?$uint_parser@I$09$00$0?0@spirit@boost@@VAddUnsignedIntegerToArgs@@@spirit@boost@@@23@@impl@spirit@boost@@QBE?AU?$uint_parser@I$09$00$0?0@34@XZ 00410fbb f i Core:ConsoleCommandLineParser.obj
 0001:0000ffd2       ?contiguous_parser_parse@?$@V?$match@Unil_t@spirit@boost@@@spirit@boost@@U?$sequence@U?$positive@U?$alternative@Ualpha_parser@spirit@boost@@U?$chlit@D@23@@spirit@boost@@@spirit@boost@@U?$kleene_star@U?$alternative@Ualnum_parser@spirit@boost@@U?$chlit@D@23@@spirit@boost@@@23@@12@V?$scanner@PBDU?$scanner_policies@Uiteration_policy@spirit@boost@@Umatch_policy@23@Uaction_policy@23@@spirit@boost@@@12@@impl@spirit@boost@@YA?AV?$match@Unil_t@spirit@boost@@@23@ABU?$sequence@U?$positive@U?$alternative@Ualpha_parser@spirit@boost@@U?$chlit@D@23@@spirit@boost@@@spirit@boost@@U?$kleene_star@U?$alternative@Ualnum_parser@spirit@boost@@U?$chlit@D@23@@spirit@boost@@@23@@23@ABV?$scanner@PBDU?$scanner_policies@Uiteration_policy@spirit@boost@@Umatch_policy@23@Uaction_policy@23@@spirit@boost@@@23@ABUiteration_policy@23@@Z 00410fd2 f i Core:ConsoleCommandLineParser.obj
 0001:0000ffe8       ?contiguous_parser_parse@?$@V?$match@H@spirit@boost@@V?$action@U?$int_parser@H$09$00$0?0@spirit@boost@@VAddIntegerToArgs@@@12@V?$scanner@PBDU?$scanner_policies@Uiteration_policy@spirit@boost@@Umatch_policy@23@Uaction_policy@23@@spirit@boost@@@12@@impl@spirit@boost@@YA?AV?$match@H@23@ABV?$action@U?$int_parser@H$09$00$0?0@spirit@boost@@VAddIntegerToArgs@@@23@ABV?$scanner@PBDU?$scanner_policies@Uiteration_policy@spirit@boost@@Umatch_policy@23@Uaction_policy@23@@spirit@boost@@@23@ABUiteration_policy@23@@Z 00410fe8 f i Core:ConsoleCommandLineParser.obj
 0001:0000fffe       ?contiguous_parser_parse@?$@V?$match@I@spirit@boost@@V?$action@U?$uint_parser@I$09$00$0?0@spirit@boost@@VAddUnsignedIntegerToArgs@@@12@V?$scanner@PBDU?$scanner_policies@Uiteration_policy@spirit@boost@@Umatch_policy@23@Uaction_policy@23@@spirit@boost@@@12@@impl@spirit@boost@@YA?AV?$match@I@23@ABV?$action@U?$uint_parser@I$09$00$0?0@spirit@boost@@VAddUnsignedIntegerToArgs@@@23@ABV?$scanner@PBDU?$scanner_policies@Uiteration_policy@spirit@boost@@Umatch_policy@23@Uaction_policy@23@@spirit@boost@@@23@ABUiteration_policy@23@@Z 00410ffe f i Core:ConsoleCommandLineParser.obj
 0001:00010014       ?contiguous_parser_parse@?$@V?$match@N@spirit@boost@@V?$action@U?$real_parser@NU?$strict_real_parser_policies@N@spirit@boost@@@spirit@boost@@VAddFloatToArgs@@@12@V?$scanner@PBDU?$scanner_policies@Uiteration_policy@spirit@boost@@Umatch_policy@23@Uaction_policy@23@@spirit@boost@@@12@@impl@spirit@boost@@YA?AV?$match@N@23@ABV?$action@U?$real_parser@NU?$strict_real_parser_policies@N@spirit@boost@@@spirit@boost@@VAddFloatToArgs@@@23@ABV?$scanner@PBDU?$scanner_policies@Uiteration_policy@spirit@boost@@Umatch_policy@23@Uaction_policy@23@@spirit@boost@@@23@ABUiteration_policy@23@@Z 00411014 f i Core:ConsoleCommandLineParser.obj
 0001:0001002a       ?parse@?$sequence@U?$sequence@U?$chlit@D@spirit@boost@@U?$kleene_star@U?$negated_char_parser@U?$chlit@D@spirit@boost@@@spirit@boost@@@23@@spirit@boost@@U?$chlit@D@23@@spirit@boost@@QBE?AV?$match@Unil_t@spirit@boost@@@23@ABV?$scanner@PBDU?$scanner_policies@Uiteration_policy@spirit@boost@@Umatch_policy@23@Uaction_policy@23@@spirit@boost@@@23@@Z 0041102a f i Core:ConsoleCommandLineParser.obj
 0001:000100b1       ?parse@?$kleene_star@U?$difference@U?$negated_char_parser@U?$chlit@D@spirit@boost@@@spirit@boost@@Uspace_parser@23@@spirit@boost@@@spirit@boost@@QBE?AV?$match@Unil_t@spirit@boost@@@23@ABV?$scanner@PBDU?$scanner_policies@Uiteration_policy@spirit@boost@@Umatch_policy@23@Uaction_policy@23@@spirit@boost@@@23@@Z 004110b1 f i Core:ConsoleCommandLineParser.obj
 0001:00010125       ?empty_match@match_policy@spirit@boost@@QBE?BV?$match@Unil_t@spirit@boost@@@23@XZ 00411125 f i Core:ConsoleCommandLineParser.obj
 0001:00010141       ??0?$match@Unil_t@spirit@boost@@@spirit@boost@@QAE@IUnil_t@12@@Z 00411141 f i Core:ConsoleCommandLineParser.obj
 0001:00010157       ?parse@?$strlit@PBD@spirit@boost@@QBE?AV?$match@Unil_t@spirit@boost@@@23@ABV?$scanner@PBDU?$scanner_policies@Uiteration_policy@spirit@boost@@Umatch_policy@23@Uaction_policy@23@@spirit@boost@@@23@@Z 00411157 f i Core:ConsoleCommandLineParser.obj
 0001:00010179       ?parse@?$alternative@U?$chlit@D@spirit@boost@@V?$strlit@PBD@23@@spirit@boost@@QBE?AV?$match@Unil_t@spirit@boost@@@23@ABV?$scanner@PBDU?$scanner_policies@Uiteration_policy@spirit@boost@@Umatch_policy@23@Uaction_policy@23@@spirit@boost@@@23@@Z 00411179 f i Core:ConsoleCommandLineParser.obj
 0001:000101ec       ?parse@?$kleene_star@Uanychar_parser@spirit@boost@@@spirit@boost@@QBE?AV?$match@Unil_t@spirit@boost@@@23@ABV?$scanner@PBDU?$scanner_policies@Uiteration_policy@spirit@boost@@Umatch_policy@23@Uaction_policy@23@@spirit@boost@@@23@@Z 004111ec f i Core:ConsoleCommandLineParser.obj
 0001:0001026d       ?concat_match@match_policy@spirit@boost@@QBEXAAV?$match@Unil_t@spirit@boost@@@23@ABV423@@Z 0041126d f i Core:ConsoleCommandLineParser.obj
 0001:00010283       ?checked_delete@boost@@YAXPAU?$grammar_helper@U?$grammar@VConsoleGrammar@@Uparser_context@spirit@boost@@@spirit@boost@@VConsoleGrammar@@V?$scanner@PBDU?$scanner_policies@Uiteration_policy@spirit@boost@@Umatch_policy@23@Uaction_policy@23@@spirit@boost@@@23@@impl@spirit@1@@Z 00411283 f i Core:ConsoleCommandLineParser.obj
 0001:000102b3       ?left@?$left_subject@U?$alternative@U?$alternative@V?$rule@V?$scanner@PBDU?$scanner_policies@Uiteration_policy@spirit@boost@@Umatch_policy@23@Uaction_policy@23@@spirit@boost@@@spirit@boost@@Uparser_context@23@Uparser_address_tag@23@@spirit@boost@@V123@@spirit@boost@@V?$rule@V?$scanner@PBDU?$scanner_policies@Uiteration_policy@spirit@boost@@Umatch_policy@23@Uaction_policy@23@@spirit@boost@@@spirit@boost@@Uparser_context@23@Uparser_address_tag@23@@23@@spirit@boost@@U?$right_subject@V?$action@V?$rule@V?$scanner@PBDU?$scanner_policies@Uiteration_policy@spirit@boost@@Umatch_policy@23@Uaction_policy@23@@spirit@boost@@@spirit@boost@@Uparser_context@23@Uparser_address_tag@23@@spirit@boost@@VAddBooleanToArgs@@@spirit@boost@@U?$parser@U?$alternative@U?$alternative@U?$alternative@V?$rule@V?$scanner@PBDU?$scanner_policies@Uiteration_policy@spirit@boost@@Umatch_policy@23@Uaction_policy@23@@spirit@boost@@@spirit@boost@@Uparser_context@23@Uparser_address_tag@23@@spirit@boost@@V123@@spirit@boost@@V?$rule@V?$scanner@PBDU?$scanner_policies@Uiteration_policy@spirit@boost@@Umatch_policy@23@Uaction_policy@23@@spirit@boost@@@spirit@boost@@Uparser_context@23@Uparser_address_tag@23@@23@@spirit@boost@@V?$action@V?$rule@V?$scanner@PBDU?$scanner_policies@Uiteration_policy@spirit@boost@@Umatch_policy@23@Uaction_policy@23@@spirit@boost@@@spirit@boost@@Uparser_context@23@Uparser_address_tag@23@@spirit@boost@@VAddBooleanToArgs@@@23@@spirit@boost@@@23@@impl@23@@impl@spirit@boost@@QBEABU?$alternative@U?$alternative@V?$rule@V?$scanner@PBDU?$scanner_policies@Uiteration_policy@spirit@boost@@Umatch_policy@23@Uaction_policy@23@@spirit@boost@@@spirit@boost@@Uparser_context@23@Uparser_address_tag@23@@spirit@boost@@V123@@spirit@boost@@V?$rule@V?$scanner@PBDU?$scanner_policies@Uiteration_policy@spirit@boost@@Umatch_policy@23@Uaction_policy@23@@spirit@boost@@@spirit@boost@@Uparser_context@23@Uparser_address_tag@23@@23@@34@XZ 004112b3 f i Core:ConsoleCommandLineParser.obj
 0001:000102b3       ?left@?$left_subject@V?$strlit@PBD@spirit@boost@@U?$right_subject@V?$strlit@PBD@spirit@boost@@U?$parser@U?$alternative@V?$strlit@PBD@spirit@boost@@V123@@spirit@boost@@@23@@impl@23@@impl@spirit@boost@@QBEABV?$strlit@PBD@34@XZ 004112b3 f i Core:ConsoleCommandLineParser.obj
 0001:000102b3       ?left@?$left_subject@U?$alternative@U?$alternative@U?$alternative@V?$rule@V?$scanner@PBDU?$scanner_policies@Uiteration_policy@spirit@boost@@Umatch_policy@23@Uaction_policy@23@@spirit@boost@@@spirit@boost@@Uparser_context@23@Uparser_address_tag@23@@spirit@boost@@V123@@spirit@boost@@V?$rule@V?$scanner@PBDU?$scanner_policies@Uiteration_policy@spirit@boost@@Umatch_policy@23@Uaction_policy@23@@spirit@boost@@@spirit@boost@@Uparser_context@23@Uparser_address_tag@23@@23@@spirit@boost@@V?$action@V?$rule@V?$scanner@PBDU?$scanner_policies@Uiteration_policy@spirit@boost@@Umatch_policy@23@Uaction_policy@23@@spirit@boost@@@spirit@boost@@Uparser_context@23@Uparser_address_tag@23@@spirit@boost@@VAddBooleanToArgs@@@23@@spirit@boost@@U?$right_subject@V?$action@V?$rule@V?$scanner@PBDU?$scanner_policies@Uiteration_policy@spirit@boost@@Umatch_policy@23@Uaction_policy@23@@spirit@boost@@@spirit@boost@@Uparser_context@23@Uparser_address_tag@23@@spirit@boost@@VAddString@@@spirit@boost@@U?$parser@U?$alternative@U?$alternative@U?$alternative@U?$alternative@V?$rule@V?$scanner@PBDU?$scanner_policies@Uiteration_policy@spirit@boost@@Umatch_policy@23@Uaction_policy@23@@spirit@boost@@@spirit@boost@@Uparser_context@23@Uparser_address_tag@23@@spirit@boost@@V123@@spirit@boost@@V?$rule@V?$scanner@PBDU?$scanner_policies@Uiteration_policy@spirit@boost@@Umatch_policy@23@Uaction_policy@23@@spirit@boost@@@spirit@boost@@Uparser_context@23@Uparser_address_tag@23@@23@@spirit@boost@@V?$action@V?$rule@V?$scanner@PBDU?$scanner_policies@Uiteration_policy@spirit@boost@@Umatch_policy@23@Uaction_policy@23@@spirit@boost@@@spirit@boost@@Uparser_context@23@Uparser_address_tag@23@@spirit@boost@@VAddBooleanToArgs@@@23@@spirit@boost@@V?$action@V?$rule@V?$scanner@PBDU?$scanner_policies@Uiteration_policy@spirit@boost@@Umatch_policy@23@Uaction_policy@23@@spirit@boost@@@spirit@boost@@Uparser_context@23@Uparser_address_tag@23@@spirit@boost@@VAddString@@@23@@spirit@boost@@@23@@impl@23@@impl@spirit@boost@@QBEABU?$alternative@U?$alternative@U?$alternative@V?$rule@V?$scanner@PBDU?$scanner_policies@Uiteration_policy@spirit@boost@@Umatch_policy@23@Uaction_policy@23@@spirit@boost@@@spirit@boost@@Uparser_context@23@Uparser_address_tag@23@@spirit@boost@@V123@@spirit@boost@@V?$rule@V?$scanner@PBDU?$scanner_policies@Uiteration_policy@spirit@boost@@Umatch_policy@23@Uaction_policy@23@@spirit@boost@@@spirit@boost@@Uparser_context@23@Uparser_address_tag@23@@23@@spirit@boost@@V?$action@V?$rule@V?$scanner@PBDU?$scanner_policies@Uiteration_policy@spirit@boost@@Umatch_policy@23@Uaction_policy@23@@spirit@boost@@@spirit@boost@@Uparser_context@23@Uparser_address_tag@23@@spirit@boost@@VAddBooleanToArgs@@@23@@34@XZ 004112b3 f i Core:ConsoleCommandLineParser.obj
 0001:000102b3       ?left@?$left_subject@U?$chlit@D@spirit@boost@@U?$right_subject@V?$strlit@PBD@spirit@boost@@U?$parser@U?$alternative@U?$chlit@D@spirit@boost@@V?$strlit@PBD@23@@spirit@boost@@@23@@impl@23@@impl@spirit@boost@@QBEABU?$chlit@D@34@XZ 004112b3 f i Core:ConsoleCommandLineParser.obj
 0001:000102c4       ?left@?$left_subject@U?$chlit@D@spirit@boost@@U?$right_subject@U?$kleene_star@U?$negated_char_parser@U?$chlit@D@spirit@boost@@@spirit@boost@@@spirit@boost@@U?$parser@U?$sequence@U?$chlit@D@spirit@boost@@U?$kleene_star@U?$negated_char_parser@U?$chlit@D@spirit@boost@@@spirit@boost@@@23@@spirit@boost@@@23@@impl@23@@impl@spirit@boost@@QBEABU?$chlit@D@34@XZ 004112c4 f i Core:ConsoleCommandLineParser.obj
 0001:000102c4       ?left@?$left_subject@U?$positive@U?$alternative@Ualpha_parser@spirit@boost@@U?$chlit@D@23@@spirit@boost@@@spirit@boost@@U?$right_subject@U?$kleene_star@U?$alternative@Ualnum_parser@spirit@boost@@U?$chlit@D@23@@spirit@boost@@@spirit@boost@@U?$parser@U?$sequence@U?$positive@U?$alternative@Ualpha_parser@spirit@boost@@U?$chlit@D@23@@spirit@boost@@@spirit@boost@@U?$kleene_star@U?$alternative@Ualnum_parser@spirit@boost@@U?$chlit@D@23@@spirit@boost@@@23@@spirit@boost@@@23@@impl@23@@impl@spirit@boost@@QBEABU?$positive@U?$alternative@Ualpha_parser@spirit@boost@@U?$chlit@D@23@@spirit@boost@@@34@XZ 004112c4 f i Core:ConsoleCommandLineParser.obj
 0001:000102c4       ?left@?$left_subject@U?$sequence@U?$sequence@U?$chlit@D@spirit@boost@@U?$kleene_star@U?$negated_char_parser@U?$chlit@D@spirit@boost@@@spirit@boost@@@23@@spirit@boost@@U?$chlit@D@23@@spirit@boost@@U?$right_subject@U?$kleene_star@U?$difference@U?$negated_char_parser@U?$chlit@D@spirit@boost@@@spirit@boost@@Uspace_parser@23@@spirit@boost@@@spirit@boost@@U?$parser@U?$alternative@U?$sequence@U?$sequence@U?$chlit@D@spirit@boost@@U?$kleene_star@U?$negated_char_parser@U?$chlit@D@spirit@boost@@@spirit@boost@@@23@@spirit@boost@@U?$chlit@D@23@@spirit@boost@@U?$kleene_star@U?$difference@U?$negated_char_parser@U?$chlit@D@spirit@boost@@@spirit@boost@@Uspace_parser@23@@spirit@boost@@@23@@spirit@boost@@@23@@impl@23@@impl@spirit@boost@@QBEABU?$sequence@U?$sequence@U?$chlit@D@spirit@boost@@U?$kleene_star@U?$negated_char_parser@U?$chlit@D@spirit@boost@@@spirit@boost@@@23@@spirit@boost@@U?$chlit@D@23@@34@XZ 004112c4 f i Core:ConsoleCommandLineParser.obj
 0001:000102c4       ?left@?$left_subject@U?$sequence@U?$chlit@D@spirit@boost@@U?$kleene_star@U?$negated_char_parser@U?$chlit@D@spirit@boost@@@spirit@boost@@@23@@spirit@boost@@U?$right_subject@U?$chlit@D@spirit@boost@@U?$parser@U?$sequence@U?$sequence@U?$chlit@D@spirit@boost@@U?$kleene_star@U?$negated_char_parser@U?$chlit@D@spirit@boost@@@spirit@boost@@@23@@spirit@boost@@U?$chlit@D@23@@spirit@boost@@@23@@impl@23@@impl@spirit@boost@@QBEABU?$sequence@U?$chlit@D@spirit@boost@@U?$kleene_star@U?$negated_char_parser@U?$chlit@D@spirit@boost@@@spirit@boost@@@23@@34@XZ 004112c4 f i Core:ConsoleCommandLineParser.obj
